
Tempy.elf:     file format elf32-avr

Sections:
Idx Name          Size      VMA       LMA       File off  Algn
  0 .text         000022b0  00000000  00000000  000000b4  2**1
                  CONTENTS, ALLOC, LOAD, READONLY, CODE
  1 .data         0000042e  00800060  000022b0  00002364  2**0
                  CONTENTS, ALLOC, LOAD, DATA
  2 .bss          000000af  0080048e  0080048e  00002792  2**0
                  ALLOC
  3 .eeprom       00000008  00810000  00810000  00002792  2**0
                  CONTENTS, ALLOC, LOAD, DATA
  4 .comment      00000030  00000000  00000000  0000279a  2**0
                  CONTENTS, READONLY
  5 .note.gnu.avr.deviceinfo 0000003c  00000000  00000000  000027cc  2**2
                  CONTENTS, READONLY
  6 .debug_aranges 00000358  00000000  00000000  00002808  2**3
                  CONTENTS, READONLY, DEBUGGING
  7 .debug_info   00004b1b  00000000  00000000  00002b60  2**0
                  CONTENTS, READONLY, DEBUGGING
  8 .debug_abbrev 00001314  00000000  00000000  0000767b  2**0
                  CONTENTS, READONLY, DEBUGGING
  9 .debug_line   00002248  00000000  00000000  0000898f  2**0
                  CONTENTS, READONLY, DEBUGGING
 10 .debug_frame  000009b8  00000000  00000000  0000abd8  2**2
                  CONTENTS, READONLY, DEBUGGING
 11 .debug_str    00000f94  00000000  00000000  0000b590  2**0
                  CONTENTS, READONLY, DEBUGGING
 12 .debug_loc    0000336e  00000000  00000000  0000c524  2**0
                  CONTENTS, READONLY, DEBUGGING
 13 .debug_ranges 000002c8  00000000  00000000  0000f892  2**0
                  CONTENTS, READONLY, DEBUGGING

Disassembly of section .text:

00000000 <__vectors>:
       0:	0c 94 ff 09 	jmp	0x13fe	; 0x13fe <__ctors_end>
       4:	0c 94 1c 0a 	jmp	0x1438	; 0x1438 <__bad_interrupt>
       8:	0c 94 1c 0a 	jmp	0x1438	; 0x1438 <__bad_interrupt>
       c:	0c 94 1c 0a 	jmp	0x1438	; 0x1438 <__bad_interrupt>
      10:	0c 94 d1 10 	jmp	0x21a2	; 0x21a2 <__vector_4>
      14:	0c 94 1c 0a 	jmp	0x1438	; 0x1438 <__bad_interrupt>
      18:	0c 94 1c 0a 	jmp	0x1438	; 0x1438 <__bad_interrupt>
      1c:	0c 94 fb 0f 	jmp	0x1ff6	; 0x1ff6 <__vector_7>
      20:	0c 94 1c 0a 	jmp	0x1438	; 0x1438 <__bad_interrupt>
      24:	0c 94 1c 0a 	jmp	0x1438	; 0x1438 <__bad_interrupt>
      28:	0c 94 1c 0a 	jmp	0x1438	; 0x1438 <__bad_interrupt>
      2c:	0c 94 1c 0a 	jmp	0x1438	; 0x1438 <__bad_interrupt>
      30:	0c 94 1c 0a 	jmp	0x1438	; 0x1438 <__bad_interrupt>
      34:	0c 94 1c 0a 	jmp	0x1438	; 0x1438 <__bad_interrupt>
      38:	0c 94 1c 0a 	jmp	0x1438	; 0x1438 <__bad_interrupt>
      3c:	0c 94 1c 0a 	jmp	0x1438	; 0x1438 <__bad_interrupt>
      40:	0c 94 1c 0a 	jmp	0x1438	; 0x1438 <__bad_interrupt>
      44:	0c 94 1c 0a 	jmp	0x1438	; 0x1438 <__bad_interrupt>
      48:	0c 94 1c 0a 	jmp	0x1438	; 0x1438 <__bad_interrupt>
      4c:	0c 94 1c 0a 	jmp	0x1438	; 0x1438 <__bad_interrupt>
      50:	0c 94 1c 0a 	jmp	0x1438	; 0x1438 <__bad_interrupt>

00000054 <__trampolines_end>:
      54:	13 aa       	std	Z+51, r1	; 0x33
      56:	0a 20       	and	r0, r10
      58:	20 60       	ori	r18, 0x00	; 0
      5a:	06 07       	cpc	r16, r22
      5c:	0b 13       	cpse	r16, r27
      5e:	0f 14       	cp	r0, r15
      60:	11 05       	cpc	r17, r1
      62:	08 08       	sbc	r0, r8
      64:	08 10       	cpse	r0, r8
      66:	04 08       	sbc	r0, r4
      68:	05 0b       	sbc	r16, r21
      6a:	0e 0a       	sbc	r0, r30
      6c:	0d 0e       	add	r0, r29
      6e:	0f 0e       	add	r0, r31
      70:	0e 0c       	add	r0, r14
      72:	0e 0e       	add	r0, r30
      74:	05 05       	cpc	r16, r5
      76:	0f 0f       	add	r16, r31
      78:	0f 0f       	add	r16, r31
      7a:	17 10       	cpse	r1, r7
      7c:	0f 0f       	add	r16, r31
      7e:	0f 0b       	sbc	r16, r31
      80:	0b 0f       	add	r16, r27
      82:	0f 06       	cpc	r0, r31
      84:	09 0f       	add	r16, r25
      86:	0a 14       	cp	r0, r10
      88:	0e 0e       	add	r0, r30
      8a:	0e 0e       	add	r0, r30
      8c:	0e 0f       	add	r16, r30
      8e:	0e 0f       	add	r16, r30
      90:	10 19       	sub	r17, r0
      92:	0e 0f       	add	r16, r30
      94:	0c 07       	cpc	r16, r28
      96:	0d 07       	cpc	r16, r29
      98:	0f 12       	cpse	r0, r31
      9a:	07 0e       	add	r0, r23
      9c:	0f 0e       	add	r0, r31
      9e:	0f 0e       	add	r0, r31
      a0:	09 0f       	add	r16, r25
      a2:	0f 06       	cpc	r0, r31
      a4:	07 0e       	add	r0, r23
      a6:	06 17       	cp	r16, r22
      a8:	0f 0e       	add	r0, r31
      aa:	0f 0f       	add	r16, r31
      ac:	0a 0d       	add	r16, r10
      ae:	0a 0f       	add	r16, r26
      b0:	0f 15       	cp	r16, r15
      b2:	0d 0e       	add	r0, r29
      b4:	0b 0a       	sbc	r0, r27
      b6:	03 0a       	sbc	r0, r19
      b8:	0f 10       	cpse	r0, r15
	...
      d2:	fc fc       	.word	0xfcfc	; ????
      d4:	fc fc       	.word	0xfcfc	; ????
      d6:	fc fc       	.word	0xfcfc	; ????
      d8:	fc 07       	cpc	r31, r28
      da:	ff ff       	.word	0xffff	; ????
      dc:	ff ff       	.word	0xffff	; ????
      de:	ff 07       	cpc	r31, r31
      e0:	00 df       	rcall	.-512    	; 0xfffffee2 <__eeprom_end+0xff7efeda>
      e2:	df df       	rcall	.-66     	; 0xa2 <__trampolines_end+0x4e>
      e4:	df df       	rcall	.-66     	; 0xa4 <__trampolines_end+0x50>
      e6:	c0 00       	.word	0x00c0	; ????
      e8:	07 07       	cpc	r16, r23
      ea:	07 07       	cpc	r16, r23
      ec:	07 07       	cpc	r16, r23
      ee:	fc fc       	.word	0xfcfc	; ????
      f0:	fc fc       	.word	0xfcfc	; ????
      f2:	fc 00       	.word	0x00fc	; ????
      f4:	fc fc       	.word	0xfcfc	; ????
      f6:	fc fc       	.word	0xfcfc	; ????
      f8:	fc 00       	.word	0x00fc	; ????
      fa:	03 03       	mulsu	r16, r19
      fc:	03 00       	.word	0x0003	; ????
      fe:	00 00       	nop
     100:	03 03       	mulsu	r16, r19
     102:	03 00       	.word	0x0003	; ????
	...
     11c:	00 00       	nop
     11e:	00 c0       	rjmp	.+0      	; 0x120 <__trampolines_end+0xcc>
     120:	f0 f0       	brcs	.+60     	; 0x15e <__trampolines_end+0x10a>
     122:	30 00       	.word	0x0030	; ????
     124:	00 00       	nop
     126:	00 00       	nop
     128:	c0 f0       	brcs	.+48     	; 0x15a <__trampolines_end+0x106>
     12a:	f0 30       	cpi	r31, 0x00	; 0
     12c:	00 1c       	adc	r0, r0
     12e:	1c 1c       	adc	r1, r12
     130:	9c fc       	.word	0xfc9c	; ????
     132:	ff 7f       	andi	r31, 0xFF	; 255
     134:	1f 1c       	adc	r1, r15
     136:	1c 1c       	adc	r1, r12
     138:	1c 9c       	mul	r1, r12
     13a:	fc ff       	.word	0xfffc	; ????
     13c:	7f 1f       	adc	r23, r31
     13e:	1c 1c       	adc	r1, r12
     140:	1c 1c       	adc	r1, r12
     142:	fc ff       	.word	0xfffc	; ????
     144:	ff 1f       	adc	r31, r31
     146:	1c 1c       	adc	r1, r12
     148:	1c 1c       	adc	r1, r12
     14a:	1c fc       	.word	0xfc1c	; ????
     14c:	ff ff       	.word	0xffff	; ????
     14e:	1f 1c       	adc	r1, r15
     150:	1c 1c       	adc	r1, r12
     152:	1c 00       	.word	0x001c	; ????
     154:	07 07       	cpc	r16, r23
     156:	07 00       	.word	0x0007	; ????
     158:	00 00       	nop
     15a:	00 00       	nop
     15c:	00 07       	cpc	r16, r16
     15e:	07 07       	cpc	r16, r23
     160:	00 00       	nop
     162:	00 00       	nop
     164:	00 00       	nop
     166:	e0 f0       	brcs	.+56     	; 0x1a0 <__trampolines_end+0x14c>
     168:	f8 f8       	.word	0xf8f8	; ????
     16a:	fc fc       	.word	0xfcfc	; ????
     16c:	3f 3f       	cpi	r19, 0xFF	; 255
     16e:	ff fc       	.word	0xfcff	; ????
     170:	fc f8       	.word	0xf8fc	; ????
     172:	f0 e0       	ldi	r31, 0x00	; 0
     174:	00 07       	cpc	r16, r16
     176:	1f 3f       	cpi	r17, 0xFF	; 255
     178:	7f 7f       	andi	r23, 0xFF	; 255
     17a:	ff fc       	.word	0xfcff	; ????
     17c:	fc f9       	.word	0xf9fc	; ????
     17e:	f1 f1       	breq	.+124    	; 0x1fc <__trampolines_end+0x1a8>
     180:	e1 c1       	rjmp	.+962    	; 0x544 <__LOCK_REGION_LENGTH__+0x144>
     182:	81 00       	.word	0x0081	; ????
     184:	7c fc       	.word	0xfc7c	; ????
     186:	fc fc       	.word	0xfcfc	; ????
     188:	fc fc       	.word	0xfcfc	; ????
     18a:	80 81       	ld	r24, Z
     18c:	83 ff       	sbrs	r24, 3
     18e:	ff ff       	.word	0xffff	; ????
     190:	ff ff       	.word	0xffff	; ????
     192:	7f 00       	.word	0x007f	; ????
     194:	01 03       	mulsu	r16, r17
     196:	03 07       	cpc	r16, r19
     198:	07 1f       	adc	r16, r23
     19a:	1f 1f       	adc	r17, r31
     19c:	07 07       	cpc	r16, r23
     19e:	03 03       	mulsu	r16, r19
     1a0:	01 00       	.word	0x0001	; ????
     1a2:	f0 f8       	bld	r15, 0
     1a4:	fc fc       	.word	0xfcfc	; ????
     1a6:	0c fc       	.word	0xfc0c	; ????
     1a8:	fc f8       	.word	0xf8fc	; ????
     1aa:	f0 00       	.word	0x00f0	; ????
     1ac:	00 00       	nop
     1ae:	e0 fc       	sbrc	r14, 0
     1b0:	1c 04       	cpc	r1, r12
     1b2:	00 00       	nop
     1b4:	00 00       	nop
     1b6:	3f 7f       	andi	r19, 0xFF	; 255
     1b8:	ff ff       	.word	0xffff	; ????
     1ba:	c0 ff       	sbrs	r28, 0
     1bc:	ff 7f       	andi	r31, 0xFF	; 255
     1be:	3f e0       	ldi	r19, 0x0F	; 15
     1c0:	fc 9f       	mul	r31, r28
     1c2:	c7 e0       	ldi	r28, 0x07	; 7
     1c4:	e0 60       	ori	r30, 0x00	; 0
     1c6:	e0 e0       	ldi	r30, 0x00	; 0
     1c8:	c0 80       	ld	r12, Z
     1ca:	00 00       	nop
     1cc:	00 00       	nop
     1ce:	00 00       	nop
     1d0:	e0 fc       	sbrc	r14, 0
     1d2:	1f 07       	cpc	r17, r31
     1d4:	00 ff       	sbrs	r16, 0
     1d6:	ff ff       	.word	0xffff	; ????
     1d8:	ff 00       	.word	0x00ff	; ????
     1da:	ff ff       	.word	0xffff	; ????
     1dc:	ff ff       	.word	0xffff	; ????
     1de:	00 00       	nop
     1e0:	00 00       	nop
     1e2:	04 07       	cpc	r16, r20
     1e4:	07 00       	.word	0x0007	; ????
     1e6:	00 00       	nop
     1e8:	00 01       	movw	r0, r0
     1ea:	03 07       	cpc	r16, r19
     1ec:	07 06       	cpc	r0, r23
     1ee:	07 07       	cpc	r16, r23
     1f0:	03 01       	movw	r0, r6
     1f2:	00 00       	nop
     1f4:	00 80       	ld	r0, Z
     1f6:	80 c0       	rjmp	.+256    	; 0x2f8 <__trampolines_end+0x2a4>
     1f8:	c0 c0       	rjmp	.+384    	; 0x37a <__trampolines_end+0x326>
     1fa:	c0 c0       	rjmp	.+384    	; 0x37c <__trampolines_end+0x328>
     1fc:	c0 80       	ld	r12, Z
     1fe:	00 00       	nop
     200:	00 00       	nop
     202:	00 00       	nop
     204:	3e 7f       	andi	r19, 0xFE	; 254
     206:	ff ff       	.word	0xffff	; ????
     208:	ff ff       	.word	0xffff	; ????
     20a:	e1 e1       	ldi	r30, 0x11	; 17
     20c:	ff ff       	.word	0xffff	; ????
     20e:	ff 7f       	andi	r31, 0xFF	; 255
     210:	1e 00       	.word	0x001e	; ????
     212:	00 00       	nop
     214:	fc fe       	.word	0xfefc	; ????
     216:	fe ff       	.word	0xfffe	; ????
     218:	ff ff       	.word	0xffff	; ????
     21a:	8f 8f       	std	Y+31, r24	; 0x1f
     21c:	bf ff       	.word	0xffbf	; ????
     21e:	ff ff       	.word	0xffff	; ????
     220:	ff f8       	.word	0xf8ff	; ????
     222:	f8 bc       	out	0x28, r15	; 40
     224:	3c 00       	.word	0x003c	; ????
     226:	01 03       	mulsu	r16, r17
     228:	07 07       	cpc	r16, r23
     22a:	07 07       	cpc	r16, r23
     22c:	07 07       	cpc	r16, r23
     22e:	03 03       	mulsu	r16, r19
     230:	07 07       	cpc	r16, r23
     232:	07 07       	cpc	r16, r23
     234:	07 06       	cpc	r0, r23
     236:	fc fc       	.word	0xfcfc	; ????
     238:	fc fc       	.word	0xfcfc	; ????
     23a:	fc 00       	.word	0x00fc	; ????
     23c:	03 03       	mulsu	r16, r19
     23e:	03 00       	.word	0x0003	; ????
	...
     248:	00 00       	nop
     24a:	f0 f8       	bld	r15, 0
     24c:	fc fc       	.word	0xfcfc	; ????
     24e:	fc fc       	.word	0xfcfc	; ????
     250:	1c 1c       	adc	r1, r12
     252:	ff ff       	.word	0xffff	; ????
     254:	ff ff       	.word	0xffff	; ????
     256:	ff ff       	.word	0xffff	; ????
     258:	00 00       	nop
     25a:	ff ff       	.word	0xffff	; ????
     25c:	ff ff       	.word	0xffff	; ????
     25e:	ff ff       	.word	0xffff	; ????
     260:	00 00       	nop
     262:	01 03       	mulsu	r16, r17
     264:	07 07       	cpc	r16, r23
     266:	07 07       	cpc	r16, r23
     268:	07 07       	cpc	r16, r23
     26a:	1c 1c       	adc	r1, r12
     26c:	fc fc       	.word	0xfcfc	; ????
     26e:	fc fc       	.word	0xfcfc	; ????
     270:	f8 f0       	brcs	.+62     	; 0x2b0 <__trampolines_end+0x25c>
     272:	00 00       	nop
     274:	ff ff       	.word	0xffff	; ????
     276:	ff ff       	.word	0xffff	; ????
     278:	ff ff       	.word	0xffff	; ????
     27a:	00 00       	nop
     27c:	ff ff       	.word	0xffff	; ????
     27e:	ff ff       	.word	0xffff	; ????
     280:	ff ff       	.word	0xffff	; ????
     282:	07 07       	cpc	r16, r23
     284:	07 07       	cpc	r16, r23
     286:	07 07       	cpc	r16, r23
     288:	03 01       	movw	r0, r6
     28a:	10 b0       	in	r1, 0x00	; 0
     28c:	f0 fc       	sbrc	r15, 0
     28e:	fc f0       	brlt	.+62     	; 0x2ce <__trampolines_end+0x27a>
     290:	b0 10       	cpse	r11, r0
     292:	00 00       	nop
     294:	01 00       	.word	0x0001	; ????
     296:	00 01       	movw	r0, r0
	...
     2b0:	c0 c0       	rjmp	.+384    	; 0x432 <__LOCK_REGION_LENGTH__+0x32>
     2b2:	c0 c0       	rjmp	.+384    	; 0x434 <__LOCK_REGION_LENGTH__+0x34>
     2b4:	00 00       	nop
     2b6:	00 00       	nop
     2b8:	00 00       	nop
     2ba:	f0 f0       	brcs	.+60     	; 0x2f8 <__trampolines_end+0x2a4>
     2bc:	f0 f0       	brcs	.+60     	; 0x2fa <__trampolines_end+0x2a6>
     2be:	f0 f0       	brcs	.+60     	; 0x2fc <__trampolines_end+0x2a8>
     2c0:	ff ff       	.word	0xffff	; ????
     2c2:	ff ff       	.word	0xffff	; ????
     2c4:	f0 f0       	brcs	.+60     	; 0x302 <__trampolines_end+0x2ae>
     2c6:	f0 f0       	brcs	.+60     	; 0x304 <__trampolines_end+0x2b0>
     2c8:	f0 f0       	brcs	.+60     	; 0x306 <__trampolines_end+0x2b2>
     2ca:	00 00       	nop
     2cc:	00 00       	nop
     2ce:	00 00       	nop
     2d0:	3f 3f       	cpi	r19, 0xFF	; 255
     2d2:	3f 3f       	cpi	r19, 0xFF	; 255
	...
     2f0:	00 00       	nop
     2f2:	c0 c0       	rjmp	.+384    	; 0x474 <__LOCK_REGION_LENGTH__+0x74>
     2f4:	c0 c0       	rjmp	.+384    	; 0x476 <__LOCK_REGION_LENGTH__+0x76>
     2f6:	37 3f       	cpi	r19, 0xF7	; 247
     2f8:	1f 0f       	add	r17, r31
	...
     302:	80 80       	ld	r8, Z
     304:	80 80       	ld	r8, Z
     306:	80 80       	ld	r8, Z
     308:	80 80       	ld	r8, Z
     30a:	07 07       	cpc	r16, r23
     30c:	07 07       	cpc	r16, r23
     30e:	07 07       	cpc	r16, r23
     310:	07 07       	cpc	r16, r23
	...
     322:	00 00       	nop
     324:	c0 c0       	rjmp	.+384    	; 0x4a6 <__LOCK_REGION_LENGTH__+0xa6>
     326:	c0 c0       	rjmp	.+384    	; 0x4a8 <__LOCK_REGION_LENGTH__+0xa8>
     328:	c0 07       	cpc	r28, r16
     32a:	07 07       	cpc	r16, r23
     32c:	07 07       	cpc	r16, r23
     32e:	00 00       	nop
     330:	00 00       	nop
     332:	00 e0       	ldi	r16, 0x00	; 0
     334:	fe fe       	.word	0xfefe	; ????
     336:	fe fe       	.word	0xfefe	; ????
     338:	1e 00       	.word	0x001e	; ????
     33a:	00 00       	nop
     33c:	f0 ff       	sbrs	r31, 0
     33e:	ff ff       	.word	0xffff	; ????
     340:	ff 1f       	adc	r31, r31
     342:	01 00       	.word	0x0001	; ????
     344:	80 f0       	brcs	.+32     	; 0x366 <__trampolines_end+0x312>
     346:	ff ff       	.word	0xffff	; ????
     348:	ff ff       	.word	0xffff	; ????
     34a:	0f 00       	.word	0x000f	; ????
     34c:	00 00       	nop
     34e:	00 07       	cpc	r16, r16
     350:	07 07       	cpc	r16, r23
     352:	07 07       	cpc	r16, r23
     354:	00 00       	nop
     356:	00 00       	nop
     358:	00 00       	nop
     35a:	c0 f0       	brcs	.+48     	; 0x38c <__trampolines_end+0x338>
     35c:	f8 f8       	.word	0xf8f8	; ????
     35e:	fc fc       	.word	0xfcfc	; ????
     360:	3c 3c       	cpi	r19, 0xCC	; 204
     362:	fc fc       	.word	0xfcfc	; ????
     364:	f8 f8       	.word	0xf8f8	; ????
     366:	f0 c0       	rjmp	.+480    	; 0x548 <__LOCK_REGION_LENGTH__+0x148>
     368:	ff ff       	.word	0xffff	; ????
     36a:	ff ff       	.word	0xffff	; ????
     36c:	ff ff       	.word	0xffff	; ????
     36e:	00 00       	nop
     370:	ff ff       	.word	0xffff	; ????
     372:	ff ff       	.word	0xffff	; ????
     374:	ff ff       	.word	0xffff	; ????
     376:	7f ff       	.word	0xff7f	; ????
     378:	ff ff       	.word	0xffff	; ????
     37a:	ff ff       	.word	0xffff	; ????
     37c:	80 80       	ld	r8, Z
     37e:	ff ff       	.word	0xffff	; ????
     380:	ff ff       	.word	0xffff	; ????
     382:	ff 7f       	andi	r31, 0xFF	; 255
     384:	00 01       	movw	r0, r0
     386:	03 03       	mulsu	r16, r19
     388:	07 07       	cpc	r16, r23
     38a:	07 07       	cpc	r16, r23
     38c:	07 07       	cpc	r16, r23
     38e:	03 03       	mulsu	r16, r19
     390:	01 00       	.word	0x0001	; ????
     392:	c0 c0       	rjmp	.+384    	; 0x514 <__LOCK_REGION_LENGTH__+0x114>
     394:	e0 e0       	ldi	r30, 0x00	; 0
     396:	f0 f0       	brcs	.+60     	; 0x3d4 <__trampolines_end+0x380>
     398:	f8 fc       	.word	0xfcf8	; ????
     39a:	fc fc       	.word	0xfcfc	; ????
     39c:	01 01       	movw	r0, r2
     39e:	01 03       	mulsu	r16, r17
     3a0:	ff ff       	.word	0xffff	; ????
     3a2:	ff ff       	.word	0xffff	; ????
     3a4:	ff ff       	.word	0xffff	; ????
     3a6:	00 00       	nop
     3a8:	00 00       	nop
     3aa:	ff ff       	.word	0xffff	; ????
     3ac:	ff ff       	.word	0xffff	; ????
     3ae:	ff ff       	.word	0xffff	; ????
     3b0:	00 00       	nop
     3b2:	00 00       	nop
     3b4:	07 07       	cpc	r16, r23
     3b6:	07 07       	cpc	r16, r23
     3b8:	07 07       	cpc	r16, r23
     3ba:	c0 f0       	brcs	.+48     	; 0x3ec <__trampolines_end+0x398>
     3bc:	f8 fc       	.word	0xfcf8	; ????
     3be:	fc 3c       	cpi	r31, 0xCC	; 204
     3c0:	3c fc       	.word	0xfc3c	; ????
     3c2:	fc f8       	.word	0xf8fc	; ????
     3c4:	f8 f0       	brcs	.+62     	; 0x404 <__LOCK_REGION_LENGTH__+0x4>
     3c6:	c0 07       	cpc	r28, r16
     3c8:	07 07       	cpc	r16, r23
     3ca:	07 07       	cpc	r16, r23
     3cc:	e0 f8       	bld	r14, 0
     3ce:	ff ff       	.word	0xffff	; ????
     3d0:	ff ff       	.word	0xffff	; ????
     3d2:	3f 0f       	add	r19, r31
     3d4:	00 c0       	rjmp	.+0      	; 0x3d6 <__trampolines_end+0x382>
     3d6:	f0 fc       	sbrc	r15, 0
     3d8:	ff ff       	.word	0xffff	; ????
     3da:	ff bf       	out	0x3f, r31	; 63
     3dc:	8f 87       	std	Y+15, r24	; 0x0f
     3de:	81 80       	ldd	r8, Z+1	; 0x01
     3e0:	00 07       	cpc	r16, r16
     3e2:	07 07       	cpc	r16, r23
     3e4:	07 07       	cpc	r16, r23
     3e6:	07 07       	cpc	r16, r23
     3e8:	07 07       	cpc	r16, r23
     3ea:	07 07       	cpc	r16, r23
     3ec:	07 00       	.word	0x0007	; ????
     3ee:	f0 f8       	bld	r15, 0
     3f0:	f8 fc       	.word	0xfcf8	; ????
     3f2:	fc fc       	.word	0xfcfc	; ????
     3f4:	3c 3c       	cpi	r19, 0xCC	; 204
     3f6:	fc fc       	.word	0xfcfc	; ????
     3f8:	fc f8       	.word	0xf8fc	; ????
     3fa:	f0 e0       	ldi	r31, 0x00	; 0
     3fc:	01 01       	movw	r0, r2
     3fe:	01 01       	movw	r0, r2
     400:	01 79       	andi	r16, 0x91	; 145
     402:	78 f8       	.word	0xf878	; ????
     404:	ff ff       	.word	0xffff	; ????
     406:	ff ef       	ldi	r31, 0xFF	; 255
     408:	ef c7       	rjmp	.+4062   	; 0x13e8 <__stack+0xb89>
     40a:	fe fe       	.word	0xfefe	; ????
     40c:	fe fe       	.word	0xfefe	; ????
     40e:	fe fe       	.word	0xfefe	; ????
     410:	80 80       	ld	r8, Z
     412:	ff ff       	.word	0xffff	; ????
     414:	ff ff       	.word	0xffff	; ????
     416:	ff 7f       	andi	r31, 0xFF	; 255
     418:	00 01       	movw	r0, r0
     41a:	03 03       	mulsu	r16, r19
     41c:	07 07       	cpc	r16, r23
     41e:	07 07       	cpc	r16, r23
     420:	07 07       	cpc	r16, r23
     422:	03 03       	mulsu	r16, r19
     424:	01 00       	.word	0x0001	; ????
     426:	00 00       	nop
     428:	00 80       	ld	r0, Z
     42a:	f0 fc       	sbrc	r15, 0
     42c:	fc fc       	.word	0xfcfc	; ????
     42e:	fc fc       	.word	0xfcfc	; ????
     430:	fc fc       	.word	0xfcfc	; ????
     432:	fc 00       	.word	0x00fc	; ????
     434:	00 00       	nop
     436:	e0 fc       	sbrc	r14, 0
     438:	ff 7f       	andi	r31, 0xFF	; 255
     43a:	07 00       	.word	0x0007	; ????
     43c:	ff ff       	.word	0xffff	; ????
     43e:	ff ff       	.word	0xffff	; ????
     440:	ff ff       	.word	0xffff	; ????
     442:	00 00       	nop
     444:	7f 7f       	andi	r23, 0xFF	; 255
     446:	7f 7f       	andi	r23, 0xFF	; 255
     448:	7e 7e       	andi	r23, 0xEE	; 238
     44a:	7e ff       	.word	0xff7e	; ????
     44c:	ff ff       	.word	0xffff	; ????
     44e:	ff ff       	.word	0xffff	; ????
     450:	ff 7e       	andi	r31, 0xEF	; 239
     452:	7e 00       	.word	0x007e	; ????
     454:	00 00       	nop
     456:	00 00       	nop
     458:	00 00       	nop
     45a:	07 07       	cpc	r16, r23
     45c:	07 07       	cpc	r16, r23
     45e:	07 07       	cpc	r16, r23
     460:	00 00       	nop
     462:	fc fc       	.word	0xfcfc	; ????
     464:	fc fc       	.word	0xfcfc	; ????
     466:	fc fc       	.word	0xfcfc	; ????
     468:	3c 3c       	cpi	r19, 0xCC	; 204
     46a:	3c 3c       	cpi	r19, 0xCC	; 204
     46c:	3c 3c       	cpi	r19, 0xCC	; 204
     46e:	3c 3c       	cpi	r19, 0xCC	; 204
     470:	7f 7f       	andi	r23, 0xFF	; 255
     472:	7f 7f       	andi	r23, 0xFF	; 255
     474:	7f 7f       	andi	r23, 0xFF	; 255
     476:	1c 1e       	adc	r1, r28
     478:	fe fe       	.word	0xfefe	; ????
     47a:	fe fe       	.word	0xfefe	; ????
     47c:	fc f0       	brlt	.+62     	; 0x4bc <__LOCK_REGION_LENGTH__+0xbc>
     47e:	7c fc       	.word	0xfc7c	; ????
     480:	fc fc       	.word	0xfcfc	; ????
     482:	fc fc       	.word	0xfcfc	; ????
     484:	80 80       	ld	r8, Z
     486:	ff ff       	.word	0xffff	; ????
     488:	ff ff       	.word	0xffff	; ????
     48a:	ff ff       	.word	0xffff	; ????
     48c:	00 01       	movw	r0, r0
     48e:	03 03       	mulsu	r16, r19
     490:	07 07       	cpc	r16, r23
     492:	07 07       	cpc	r16, r23
     494:	07 07       	cpc	r16, r23
     496:	03 03       	mulsu	r16, r19
     498:	01 00       	.word	0x0001	; ????
     49a:	c0 f0       	brcs	.+48     	; 0x4cc <__LOCK_REGION_LENGTH__+0xcc>
     49c:	f8 f8       	.word	0xf8f8	; ????
     49e:	fc fc       	.word	0xfcfc	; ????
     4a0:	3c 3c       	cpi	r19, 0xCC	; 204
     4a2:	fc fc       	.word	0xfcfc	; ????
     4a4:	f8 f8       	.word	0xf8f8	; ????
     4a6:	f0 c0       	rjmp	.+480    	; 0x688 <__LOCK_REGION_LENGTH__+0x288>
     4a8:	ff ff       	.word	0xffff	; ????
     4aa:	ff ff       	.word	0xffff	; ????
     4ac:	ff ff       	.word	0xffff	; ????
     4ae:	70 78       	andi	r23, 0x80	; 128
     4b0:	f9 f9       	.word	0xf9f9	; ????
     4b2:	f9 f9       	.word	0xf9f9	; ????
     4b4:	f1 e1       	ldi	r31, 0x11	; 17
     4b6:	7f ff       	.word	0xff7f	; ????
     4b8:	ff ff       	.word	0xffff	; ????
     4ba:	ff ff       	.word	0xffff	; ????
     4bc:	80 80       	ld	r8, Z
     4be:	ff ff       	.word	0xffff	; ????
     4c0:	ff ff       	.word	0xffff	; ????
     4c2:	ff ff       	.word	0xffff	; ????
     4c4:	00 01       	movw	r0, r0
     4c6:	03 03       	mulsu	r16, r19
     4c8:	07 07       	cpc	r16, r23
     4ca:	07 07       	cpc	r16, r23
     4cc:	07 07       	cpc	r16, r23
     4ce:	03 03       	mulsu	r16, r19
     4d0:	01 00       	.word	0x0001	; ????
     4d2:	3c 3c       	cpi	r19, 0xCC	; 204
     4d4:	3c 3c       	cpi	r19, 0xCC	; 204
     4d6:	3c 3c       	cpi	r19, 0xCC	; 204
     4d8:	fc fc       	.word	0xfcfc	; ????
     4da:	fc fc       	.word	0xfcfc	; ????
     4dc:	fc fc       	.word	0xfcfc	; ????
     4de:	00 00       	nop
     4e0:	00 00       	nop
     4e2:	80 f8       	bld	r8, 0
     4e4:	ff ff       	.word	0xffff	; ????
     4e6:	ff ff       	.word	0xffff	; ????
     4e8:	3f 01       	movw	r6, r30
     4ea:	00 00       	nop
     4ec:	00 f0       	brcs	.+0      	; 0x4ee <__LOCK_REGION_LENGTH__+0xee>
     4ee:	ff ff       	.word	0xffff	; ????
     4f0:	ff ff       	.word	0xffff	; ????
     4f2:	ff 07       	cpc	r31, r31
     4f4:	00 00       	nop
     4f6:	00 00       	nop
     4f8:	06 07       	cpc	r16, r22
     4fa:	07 07       	cpc	r16, r23
     4fc:	07 07       	cpc	r16, r23
     4fe:	00 00       	nop
     500:	00 00       	nop
     502:	e0 f0       	brcs	.+56     	; 0x53c <__LOCK_REGION_LENGTH__+0x13c>
     504:	f8 f8       	.word	0xf8f8	; ????
     506:	fc fc       	.word	0xfcfc	; ????
     508:	3c 3c       	cpi	r19, 0xCC	; 204
     50a:	fc fc       	.word	0xfcfc	; ????
     50c:	fc f8       	.word	0xf8fc	; ????
     50e:	f0 e0       	ldi	r31, 0x00	; 0
     510:	87 ef       	ldi	r24, 0xF7	; 247
     512:	ff ff       	.word	0xffff	; ????
     514:	ff ff       	.word	0xffff	; ????
     516:	78 78       	andi	r23, 0x88	; 136
     518:	ff ff       	.word	0xffff	; ????
     51a:	ff ef       	ldi	r31, 0xFF	; 255
     51c:	ef 87       	std	Y+15, r30	; 0x0f
     51e:	7f ff       	.word	0xff7f	; ????
     520:	ff ff       	.word	0xffff	; ????
     522:	ff ff       	.word	0xffff	; ????
     524:	80 80       	ld	r8, Z
     526:	ff ff       	.word	0xffff	; ????
     528:	ff ff       	.word	0xffff	; ????
     52a:	ff ff       	.word	0xffff	; ????
     52c:	00 01       	movw	r0, r0
     52e:	03 03       	mulsu	r16, r19
     530:	07 07       	cpc	r16, r23
     532:	07 07       	cpc	r16, r23
     534:	07 07       	cpc	r16, r23
     536:	03 03       	mulsu	r16, r19
     538:	01 00       	.word	0x0001	; ????
     53a:	e0 f0       	brcs	.+56     	; 0x574 <__LOCK_REGION_LENGTH__+0x174>
     53c:	f8 f8       	.word	0xf8f8	; ????
     53e:	fc fc       	.word	0xfcfc	; ????
     540:	3c 3c       	cpi	r19, 0xCC	; 204
     542:	fc fc       	.word	0xfcfc	; ????
     544:	f8 f8       	.word	0xf8f8	; ????
     546:	f0 c0       	rjmp	.+480    	; 0x728 <__LOCK_REGION_LENGTH__+0x328>
     548:	ff ff       	.word	0xffff	; ????
     54a:	ff ff       	.word	0xffff	; ????
     54c:	ff ff       	.word	0xffff	; ????
     54e:	c0 c0       	rjmp	.+384    	; 0x6d0 <__LOCK_REGION_LENGTH__+0x2d0>
     550:	ff ff       	.word	0xffff	; ????
     552:	ff ff       	.word	0xffff	; ????
     554:	ff ff       	.word	0xffff	; ????
     556:	70 f1       	brcs	.+92     	; 0x5b4 <__LOCK_REGION_LENGTH__+0x1b4>
     558:	f3 f3       	brvs	.-4      	; 0x556 <__LOCK_REGION_LENGTH__+0x156>
     55a:	f3 f3       	brvs	.-4      	; 0x558 <__LOCK_REGION_LENGTH__+0x158>
     55c:	83 81       	ldd	r24, Z+3	; 0x03
     55e:	ff ff       	.word	0xffff	; ????
     560:	ff ff       	.word	0xffff	; ????
     562:	ff 7f       	andi	r31, 0xFF	; 255
     564:	00 01       	movw	r0, r0
     566:	03 03       	mulsu	r16, r19
     568:	07 07       	cpc	r16, r23
     56a:	07 07       	cpc	r16, r23
     56c:	07 07       	cpc	r16, r23
     56e:	03 03       	mulsu	r16, r19
     570:	01 00       	.word	0x0001	; ????
     572:	00 00       	nop
     574:	00 00       	nop
     576:	00 f8       	bld	r0, 0
     578:	f8 f8       	.word	0xf8f8	; ????
     57a:	f8 f8       	.word	0xf8f8	; ????
     57c:	c0 c0       	rjmp	.+384    	; 0x6fe <__LOCK_REGION_LENGTH__+0x2fe>
     57e:	c0 c0       	rjmp	.+384    	; 0x700 <__LOCK_REGION_LENGTH__+0x300>
     580:	c0 07       	cpc	r28, r16
     582:	07 07       	cpc	r16, r23
     584:	07 07       	cpc	r16, r23
     586:	00 00       	nop
     588:	00 00       	nop
     58a:	00 f8       	bld	r0, 0
     58c:	f8 f8       	.word	0xf8f8	; ????
     58e:	f8 f8       	.word	0xf8f8	; ????
     590:	c0 c0       	rjmp	.+384    	; 0x712 <__LOCK_REGION_LENGTH__+0x312>
     592:	c0 c0       	rjmp	.+384    	; 0x714 <__LOCK_REGION_LENGTH__+0x314>
     594:	c0 37       	cpi	r28, 0x70	; 112
     596:	3f 1f       	adc	r19, r31
     598:	0f 07       	cpc	r16, r31
	...
     5a6:	00 00       	nop
     5a8:	80 e0       	ldi	r24, 0x00	; 0
     5aa:	f0 f0       	brcs	.+60     	; 0x5e8 <__LOCK_REGION_LENGTH__+0x1e8>
     5ac:	f0 f8       	bld	r15, 0
     5ae:	f8 fc       	.word	0xfcf8	; ????
     5b0:	bc bc       	out	0x2c, r11	; 44
     5b2:	1e 1e       	adc	r1, r30
     5b4:	1f 0f       	add	r17, r31
     5b6:	0f 07       	cpc	r16, r31
     5b8:	00 01       	movw	r0, r0
     5ba:	01 01       	movw	r0, r2
     5bc:	03 03       	mulsu	r16, r19
     5be:	07 07       	cpc	r16, r23
     5c0:	07 0f       	add	r16, r23
     5c2:	0f 1f       	adc	r16, r31
     5c4:	1e 1e       	adc	r1, r30
     5c6:	3c 00       	.word	0x003c	; ????
	...
     5e4:	00 9e       	mul	r0, r16
     5e6:	9e 9e       	mul	r9, r30
     5e8:	9e 9e       	mul	r9, r30
     5ea:	9e 9e       	mul	r9, r30
     5ec:	9e 9e       	mul	r9, r30
     5ee:	9e 9e       	mul	r9, r30
     5f0:	9e 9e       	mul	r9, r30
     5f2:	9e 9e       	mul	r9, r30
     5f4:	07 07       	cpc	r16, r23
     5f6:	07 07       	cpc	r16, r23
     5f8:	07 07       	cpc	r16, r23
     5fa:	07 07       	cpc	r16, r23
     5fc:	07 07       	cpc	r16, r23
     5fe:	07 07       	cpc	r16, r23
     600:	07 07       	cpc	r16, r23
     602:	07 00       	.word	0x0007	; ????
	...
     610:	00 00       	nop
     612:	80 00       	.word	0x0080	; ????
	...
     620:	00 07       	cpc	r16, r16
     622:	0f 0f       	add	r16, r31
     624:	1f 1e       	adc	r1, r31
     626:	1e bc       	out	0x2e, r1	; 46
     628:	bc fc       	.word	0xfcbc	; ????
     62a:	f8 f8       	.word	0xf8f8	; ????
     62c:	f0 f0       	brcs	.+60     	; 0x66a <__LOCK_REGION_LENGTH__+0x26a>
     62e:	f0 e0       	ldi	r31, 0x00	; 0
     630:	3c 1e       	adc	r3, r28
     632:	1e 1f       	adc	r17, r30
     634:	0f 0f       	add	r16, r31
     636:	07 07       	cpc	r16, r23
     638:	07 03       	mulsu	r16, r23
     63a:	03 01       	movw	r0, r6
     63c:	01 01       	movw	r0, r2
	...
     64e:	c0 f0       	brcs	.+48     	; 0x680 <__LOCK_REGION_LENGTH__+0x280>
     650:	f8 f8       	.word	0xf8f8	; ????
     652:	fc fc       	.word	0xfcfc	; ????
     654:	3c 3c       	cpi	r19, 0xCC	; 204
     656:	3c fc       	.word	0xfc3c	; ????
     658:	fc f8       	.word	0xf8fc	; ????
     65a:	f0 e0       	ldi	r31, 0x00	; 0
     65c:	c0 c3       	rjmp	.+1920   	; 0xdde <__stack+0x57f>
     65e:	c3 c3       	rjmp	.+1926   	; 0xde6 <__stack+0x587>
     660:	c3 c3       	rjmp	.+1926   	; 0xde8 <__stack+0x589>
     662:	c3 00       	.word	0x00c3	; ????
     664:	00 00       	nop
     666:	ff ff       	.word	0xffff	; ????
     668:	ff ff       	.word	0xffff	; ????
     66a:	ff ff       	.word	0xffff	; ????
     66c:	df df       	rcall	.-66     	; 0x62c <__LOCK_REGION_LENGTH__+0x22c>
     66e:	df df       	rcall	.-66     	; 0x62e <__LOCK_REGION_LENGTH__+0x22e>
     670:	df df       	rcall	.-66     	; 0x630 <__LOCK_REGION_LENGTH__+0x230>
     672:	07 0f       	add	r16, r23
     674:	0f 0f       	add	r16, r31
     676:	0f 0f       	add	r16, r31
     678:	07 07       	cpc	r16, r23
     67a:	01 07       	cpc	r16, r17
     67c:	07 07       	cpc	r16, r23
     67e:	07 07       	cpc	r16, r23
     680:	07 00       	.word	0x0007	; ????
	...
     68a:	00 00       	nop
     68c:	80 c0       	rjmp	.+256    	; 0x78e <__LOCK_REGION_LENGTH__+0x38e>
     68e:	e0 70       	andi	r30, 0x00	; 0
     690:	38 98       	cbi	0x07, 0	; 7
     692:	9c cc       	rjmp	.-1736   	; 0xffffffcc <__eeprom_end+0xff7effc4>
     694:	cc cc       	rjmp	.-1640   	; 0x2e <__FUSE_REGION_LENGTH__+0x2c>
     696:	cc 8c       	ldd	r12, Y+28	; 0x1c
     698:	0c dc       	rcall	.-2024   	; 0xfffffeb2 <__eeprom_end+0xff7efeaa>
     69a:	d8 f8       	.word	0xf8d8	; ????
     69c:	30 e0       	ldi	r19, 0x00	; 0
     69e:	c0 80       	ld	r12, Z
     6a0:	00 f8       	bld	r0, 0
     6a2:	fe 07       	cpc	r31, r30
     6a4:	01 f0       	breq	.+0      	; 0x6a6 <__LOCK_REGION_LENGTH__+0x2a6>
     6a6:	fc ff       	.word	0xfffc	; ????
     6a8:	1f 03       	fmul	r17, r23
     6aa:	01 00       	.word	0x0001	; ????
     6ac:	00 00       	nop
     6ae:	c3 ff       	sbrs	r28, 3
     6b0:	ff ff       	.word	0xffff	; ????
     6b2:	01 00       	.word	0x0001	; ????
     6b4:	00 03       	mulsu	r16, r16
     6b6:	ff fe       	.word	0xfeff	; ????
     6b8:	07 3f       	cpi	r16, 0xF7	; 247
     6ba:	78 e0       	ldi	r23, 0x08	; 8
     6bc:	87 1f       	adc	r24, r23
     6be:	3f 70       	andi	r19, 0x0F	; 15
     6c0:	60 60       	ori	r22, 0x00	; 0
     6c2:	60 30       	cpi	r22, 0x00	; 0
     6c4:	3c 3f       	cpi	r19, 0xFC	; 252
     6c6:	7f 7f       	andi	r23, 0xFF	; 255
     6c8:	60 60       	ori	r22, 0x00	; 0
     6ca:	30 98       	cbi	0x06, 0	; 6
     6cc:	8e 87       	std	Y+14, r24	; 0x0e
     6ce:	81 00       	.word	0x0081	; ????
     6d0:	00 00       	nop
     6d2:	01 01       	movw	r0, r2
     6d4:	03 07       	cpc	r16, r19
     6d6:	06 0e       	add	r0, r22
     6d8:	0c 0c       	add	r0, r12
     6da:	0c 0c       	add	r0, r12
     6dc:	0c 0c       	add	r0, r12
     6de:	0e 06       	cpc	r0, r30
     6e0:	06 07       	cpc	r16, r22
     6e2:	03 01       	movw	r0, r6
     6e4:	01 00       	.word	0x0001	; ????
     6e6:	00 00       	nop
     6e8:	c0 fc       	sbrc	r12, 0
     6ea:	fc fc       	.word	0xfcfc	; ????
     6ec:	fc 7c       	andi	r31, 0xCC	; 204
     6ee:	fc fc       	.word	0xfcfc	; ????
     6f0:	fc fc       	.word	0xfcfc	; ????
     6f2:	c0 00       	.word	0x00c0	; ????
     6f4:	00 00       	nop
     6f6:	00 f0       	brcs	.+0      	; 0x6f8 <__LOCK_REGION_LENGTH__+0x2f8>
     6f8:	ff ff       	.word	0xffff	; ????
     6fa:	ff ff       	.word	0xffff	; ????
     6fc:	1f 00       	.word	0x001f	; ????
     6fe:	1f ff       	.word	0xff1f	; ????
     700:	ff ff       	.word	0xffff	; ????
     702:	ff f0       	brie	.+62     	; 0x742 <__LOCK_REGION_LENGTH__+0x342>
     704:	00 00       	nop
     706:	fc ff       	.word	0xfffc	; ????
     708:	ff ff       	.word	0xffff	; ????
     70a:	ff 3f       	cpi	r31, 0xFF	; 255
     70c:	3c 3c       	cpi	r19, 0xCC	; 204
     70e:	3c 3f       	cpi	r19, 0xFC	; 252
     710:	ff ff       	.word	0xffff	; ????
     712:	ff ff       	.word	0xffff	; ????
     714:	fc 00       	.word	0x00fc	; ????
     716:	07 07       	cpc	r16, r23
     718:	07 07       	cpc	r16, r23
     71a:	07 00       	.word	0x0007	; ????
     71c:	00 00       	nop
     71e:	00 00       	nop
     720:	07 07       	cpc	r16, r23
     722:	07 07       	cpc	r16, r23
     724:	07 07       	cpc	r16, r23
     726:	fc fc       	.word	0xfcfc	; ????
     728:	fc fc       	.word	0xfcfc	; ????
     72a:	fc fc       	.word	0xfcfc	; ????
     72c:	3c 3c       	cpi	r19, 0xCC	; 204
     72e:	7c fc       	.word	0xfc7c	; ????
     730:	fc f8       	.word	0xf8fc	; ????
     732:	f8 f0       	brcs	.+62     	; 0x772 <__LOCK_REGION_LENGTH__+0x372>
     734:	e0 ff       	sbrs	r30, 0
     736:	ff ff       	.word	0xffff	; ????
     738:	ff ff       	.word	0xffff	; ????
     73a:	ff f0       	brie	.+62     	; 0x77a <__LOCK_REGION_LENGTH__+0x37a>
     73c:	f0 f0       	brcs	.+60     	; 0x77a <__LOCK_REGION_LENGTH__+0x37a>
     73e:	ff ff       	.word	0xffff	; ????
     740:	ff df       	rcall	.-2      	; 0x740 <__LOCK_REGION_LENGTH__+0x340>
     742:	df 0f       	add	r29, r31
     744:	ff ff       	.word	0xffff	; ????
     746:	ff ff       	.word	0xffff	; ????
     748:	ff ff       	.word	0xffff	; ????
     74a:	80 80       	ld	r8, Z
     74c:	80 ff       	sbrs	r24, 0
     74e:	ff ff       	.word	0xffff	; ????
     750:	ff ff       	.word	0xffff	; ????
     752:	ff 07       	cpc	r31, r31
     754:	07 07       	cpc	r16, r23
     756:	07 07       	cpc	r16, r23
     758:	07 07       	cpc	r16, r23
     75a:	07 07       	cpc	r16, r23
     75c:	07 07       	cpc	r16, r23
     75e:	07 07       	cpc	r16, r23
     760:	03 01       	movw	r0, r6
     762:	c0 f0       	brcs	.+48     	; 0x794 <__LOCK_REGION_LENGTH__+0x394>
     764:	f8 f8       	.word	0xf8f8	; ????
     766:	fc fc       	.word	0xfcfc	; ????
     768:	3c 3c       	cpi	r19, 0xCC	; 204
     76a:	3c fc       	.word	0xfc3c	; ????
     76c:	fc f8       	.word	0xf8fc	; ????
     76e:	f8 f0       	brcs	.+62     	; 0x7ae <__LOCK_REGION_LENGTH__+0x3ae>
     770:	c0 ff       	sbrs	r28, 0
     772:	ff ff       	.word	0xffff	; ????
     774:	ff ff       	.word	0xffff	; ????
     776:	ff 00       	.word	0x00ff	; ????
     778:	00 00       	nop
     77a:	0f 0f       	add	r16, r31
     77c:	0f 0f       	add	r16, r31
     77e:	0f 0f       	add	r16, r31
     780:	7f ff       	.word	0xff7f	; ????
     782:	ff ff       	.word	0xffff	; ????
     784:	ff ff       	.word	0xffff	; ????
     786:	80 80       	ld	r8, Z
     788:	80 ff       	sbrs	r24, 0
     78a:	ff ff       	.word	0xffff	; ????
     78c:	ff ff       	.word	0xffff	; ????
     78e:	7f 00       	.word	0x007f	; ????
     790:	01 03       	mulsu	r16, r17
     792:	03 07       	cpc	r16, r19
     794:	07 07       	cpc	r16, r23
     796:	07 07       	cpc	r16, r23
     798:	07 07       	cpc	r16, r23
     79a:	03 01       	movw	r0, r6
     79c:	00 00       	nop
     79e:	fc fc       	.word	0xfcfc	; ????
     7a0:	fc fc       	.word	0xfcfc	; ????
     7a2:	fc fc       	.word	0xfcfc	; ????
     7a4:	3c 3c       	cpi	r19, 0xCC	; 204
     7a6:	3c fc       	.word	0xfc3c	; ????
     7a8:	fc f8       	.word	0xf8fc	; ????
     7aa:	f8 f0       	brcs	.+62     	; 0x7ea <__LOCK_REGION_LENGTH__+0x3ea>
     7ac:	e0 ff       	sbrs	r30, 0
     7ae:	ff ff       	.word	0xffff	; ????
     7b0:	ff ff       	.word	0xffff	; ????
     7b2:	ff 00       	.word	0x00ff	; ????
     7b4:	00 00       	nop
     7b6:	ff ff       	.word	0xffff	; ????
     7b8:	ff ff       	.word	0xffff	; ????
     7ba:	ff ff       	.word	0xffff	; ????
     7bc:	ff ff       	.word	0xffff	; ????
     7be:	ff ff       	.word	0xffff	; ????
     7c0:	ff ff       	.word	0xffff	; ????
     7c2:	80 80       	ld	r8, Z
     7c4:	c0 ff       	sbrs	r28, 0
     7c6:	ff ff       	.word	0xffff	; ????
     7c8:	ff ff       	.word	0xffff	; ????
     7ca:	ff 07       	cpc	r31, r31
     7cc:	07 07       	cpc	r16, r23
     7ce:	07 07       	cpc	r16, r23
     7d0:	07 07       	cpc	r16, r23
     7d2:	07 07       	cpc	r16, r23
     7d4:	07 07       	cpc	r16, r23
     7d6:	07 03       	mulsu	r16, r23
     7d8:	03 01       	movw	r0, r6
     7da:	fc fc       	.word	0xfcfc	; ????
     7dc:	fc fc       	.word	0xfcfc	; ????
     7de:	fc fc       	.word	0xfcfc	; ????
     7e0:	7c 7c       	andi	r23, 0xCC	; 204
     7e2:	7c 7c       	andi	r23, 0xCC	; 204
     7e4:	00 ff       	sbrs	r16, 0
     7e6:	ff ff       	.word	0xffff	; ????
     7e8:	ff ff       	.word	0xffff	; ????
     7ea:	ff f8       	.word	0xf8ff	; ????
     7ec:	f8 f8       	.word	0xf8f8	; ????
     7ee:	f8 00       	.word	0x00f8	; ????
     7f0:	ff ff       	.word	0xffff	; ????
     7f2:	ff ff       	.word	0xffff	; ????
     7f4:	ff ff       	.word	0xffff	; ????
     7f6:	c0 c0       	rjmp	.+384    	; 0x978 <__stack+0x119>
     7f8:	c0 c0       	rjmp	.+384    	; 0x97a <__stack+0x11b>
     7fa:	c0 07       	cpc	r28, r16
     7fc:	07 07       	cpc	r16, r23
     7fe:	07 07       	cpc	r16, r23
     800:	07 07       	cpc	r16, r23
     802:	07 07       	cpc	r16, r23
     804:	07 07       	cpc	r16, r23
     806:	fc fc       	.word	0xfcfc	; ????
     808:	fc fc       	.word	0xfcfc	; ????
     80a:	fc fc       	.word	0xfcfc	; ????
     80c:	7c 7c       	andi	r23, 0xCC	; 204
     80e:	7c 7c       	andi	r23, 0xCC	; 204
     810:	7c ff       	.word	0xff7c	; ????
     812:	ff ff       	.word	0xffff	; ????
     814:	ff ff       	.word	0xffff	; ????
     816:	ff f8       	.word	0xf8ff	; ????
     818:	f8 f8       	.word	0xf8f8	; ????
     81a:	f8 f8       	.word	0xf8f8	; ????
     81c:	ff ff       	.word	0xffff	; ????
     81e:	ff ff       	.word	0xffff	; ????
     820:	ff ff       	.word	0xffff	; ????
     822:	00 00       	nop
     824:	00 00       	nop
     826:	00 07       	cpc	r16, r16
     828:	07 07       	cpc	r16, r23
     82a:	07 07       	cpc	r16, r23
     82c:	07 00       	.word	0x0007	; ????
     82e:	00 00       	nop
     830:	00 00       	nop
     832:	c0 f0       	brcs	.+48     	; 0x864 <__stack+0x5>
     834:	f8 f8       	.word	0xf8f8	; ????
     836:	fc fc       	.word	0xfcfc	; ????
     838:	3c 3c       	cpi	r19, 0xCC	; 204
     83a:	3c fc       	.word	0xfc3c	; ????
     83c:	f8 f8       	.word	0xf8f8	; ????
     83e:	f0 f0       	brcs	.+60     	; 0x87c <__stack+0x1d>
     840:	c0 ff       	sbrs	r28, 0
     842:	ff ff       	.word	0xffff	; ????
     844:	ff ff       	.word	0xffff	; ????
     846:	ff 00       	.word	0x00ff	; ????
     848:	00 c0       	rjmp	.+0      	; 0x84a <__LOCK_REGION_LENGTH__+0x44a>
     84a:	cf cf       	rjmp	.-98     	; 0x7ea <__LOCK_REGION_LENGTH__+0x3ea>
     84c:	cf cf       	rjmp	.-98     	; 0x7ec <__LOCK_REGION_LENGTH__+0x3ec>
     84e:	cf cf       	rjmp	.-98     	; 0x7ee <__LOCK_REGION_LENGTH__+0x3ee>
     850:	7f ff       	.word	0xff7f	; ????
     852:	ff ff       	.word	0xffff	; ????
     854:	ff ff       	.word	0xffff	; ????
     856:	80 80       	ld	r8, Z
     858:	83 ff       	sbrs	r24, 3
     85a:	ff ff       	.word	0xffff	; ????
     85c:	ff ff       	.word	0xffff	; ????
     85e:	ff 00       	.word	0x00ff	; ????
     860:	01 03       	mulsu	r16, r17
     862:	03 07       	cpc	r16, r19
     864:	07 07       	cpc	r16, r23
     866:	07 07       	cpc	r16, r23
     868:	03 01       	movw	r0, r6
     86a:	07 07       	cpc	r16, r23
     86c:	07 07       	cpc	r16, r23
     86e:	fc fc       	.word	0xfcfc	; ????
     870:	fc fc       	.word	0xfcfc	; ????
     872:	fc fc       	.word	0xfcfc	; ????
     874:	00 00       	nop
     876:	00 fc       	sbrc	r0, 0
     878:	fc fc       	.word	0xfcfc	; ????
     87a:	fc fc       	.word	0xfcfc	; ????
     87c:	fc ff       	.word	0xfffc	; ????
     87e:	ff ff       	.word	0xffff	; ????
     880:	ff ff       	.word	0xffff	; ????
     882:	ff f8       	.word	0xf8ff	; ????
     884:	f8 f8       	.word	0xf8f8	; ????
     886:	ff ff       	.word	0xffff	; ????
     888:	ff ff       	.word	0xffff	; ????
     88a:	ff ff       	.word	0xffff	; ????
     88c:	ff ff       	.word	0xffff	; ????
     88e:	ff ff       	.word	0xffff	; ????
     890:	ff ff       	.word	0xffff	; ????
     892:	00 00       	nop
     894:	00 ff       	sbrs	r16, 0
     896:	ff ff       	.word	0xffff	; ????
     898:	ff ff       	.word	0xffff	; ????
     89a:	ff 07       	cpc	r31, r31
     89c:	07 07       	cpc	r16, r23
     89e:	07 07       	cpc	r16, r23
     8a0:	07 00       	.word	0x0007	; ????
     8a2:	00 00       	nop
     8a4:	07 07       	cpc	r16, r23
     8a6:	07 07       	cpc	r16, r23
     8a8:	07 07       	cpc	r16, r23
     8aa:	fc fc       	.word	0xfcfc	; ????
     8ac:	fc fc       	.word	0xfcfc	; ????
     8ae:	fc fc       	.word	0xfcfc	; ????
     8b0:	ff ff       	.word	0xffff	; ????
     8b2:	ff ff       	.word	0xffff	; ????
     8b4:	ff ff       	.word	0xffff	; ????
     8b6:	ff ff       	.word	0xffff	; ????
     8b8:	ff ff       	.word	0xffff	; ????
     8ba:	ff ff       	.word	0xffff	; ????
     8bc:	07 07       	cpc	r16, r23
     8be:	07 07       	cpc	r16, r23
     8c0:	07 07       	cpc	r16, r23
     8c2:	00 00       	nop
     8c4:	00 fc       	sbrc	r0, 0
     8c6:	fc fc       	.word	0xfcfc	; ????
     8c8:	fc fc       	.word	0xfcfc	; ????
     8ca:	fc 00       	.word	0x00fc	; ????
     8cc:	00 00       	nop
     8ce:	ff ff       	.word	0xffff	; ????
     8d0:	ff ff       	.word	0xffff	; ????
     8d2:	ff ff       	.word	0xffff	; ????
     8d4:	80 80       	ld	r8, Z
     8d6:	80 ff       	sbrs	r24, 0
     8d8:	ff ff       	.word	0xffff	; ????
     8da:	ff ff       	.word	0xffff	; ????
     8dc:	ff 07       	cpc	r31, r31
     8de:	07 07       	cpc	r16, r23
     8e0:	07 07       	cpc	r16, r23
     8e2:	07 07       	cpc	r16, r23
     8e4:	03 01       	movw	r0, r6
     8e6:	fc fc       	.word	0xfcfc	; ????
     8e8:	fc fc       	.word	0xfcfc	; ????
     8ea:	fc fc       	.word	0xfcfc	; ????
     8ec:	00 00       	nop
     8ee:	e0 fc       	sbrc	r14, 0
     8f0:	fc fc       	.word	0xfcfc	; ????
     8f2:	fc fc       	.word	0xfcfc	; ????
     8f4:	1c ff       	.word	0xff1c	; ????
     8f6:	ff ff       	.word	0xffff	; ????
     8f8:	ff ff       	.word	0xffff	; ????
     8fa:	ff fc       	.word	0xfcff	; ????
     8fc:	ff ff       	.word	0xffff	; ????
     8fe:	ff ff       	.word	0xffff	; ????
     900:	9f 03       	fmulsu	r17, r23
     902:	00 00       	nop
     904:	ff ff       	.word	0xffff	; ????
     906:	ff ff       	.word	0xffff	; ????
     908:	ff ff       	.word	0xffff	; ????
     90a:	03 1f       	adc	r16, r19
     90c:	ff ff       	.word	0xffff	; ????
     90e:	ff ff       	.word	0xffff	; ????
     910:	fc e0       	ldi	r31, 0x0C	; 12
     912:	00 07       	cpc	r16, r16
     914:	07 07       	cpc	r16, r23
     916:	07 07       	cpc	r16, r23
     918:	07 00       	.word	0x0007	; ????
     91a:	00 00       	nop
     91c:	07 07       	cpc	r16, r23
     91e:	07 07       	cpc	r16, r23
     920:	07 07       	cpc	r16, r23
     922:	fc fc       	.word	0xfcfc	; ????
     924:	fc fc       	.word	0xfcfc	; ????
     926:	fc fc       	.word	0xfcfc	; ????
     928:	00 00       	nop
     92a:	00 00       	nop
     92c:	ff ff       	.word	0xffff	; ????
     92e:	ff ff       	.word	0xffff	; ????
     930:	ff ff       	.word	0xffff	; ????
     932:	00 00       	nop
     934:	00 00       	nop
     936:	ff ff       	.word	0xffff	; ????
     938:	ff ff       	.word	0xffff	; ????
     93a:	ff ff       	.word	0xffff	; ????
     93c:	c0 c0       	rjmp	.+384    	; 0xabe <__stack+0x25f>
     93e:	c0 c0       	rjmp	.+384    	; 0xac0 <__stack+0x261>
     940:	07 07       	cpc	r16, r23
     942:	07 07       	cpc	r16, r23
     944:	07 07       	cpc	r16, r23
     946:	07 07       	cpc	r16, r23
     948:	07 07       	cpc	r16, r23
     94a:	fc fc       	.word	0xfcfc	; ????
     94c:	fc fc       	.word	0xfcfc	; ????
     94e:	fc fc       	.word	0xfcfc	; ????
     950:	fc fc       	.word	0xfcfc	; ????
     952:	fc 80       	ldd	r15, Y+4	; 0x04
     954:	00 80       	ld	r0, Z
     956:	fc fc       	.word	0xfcfc	; ????
     958:	fc fc       	.word	0xfcfc	; ????
     95a:	fc fc       	.word	0xfcfc	; ????
     95c:	fc fc       	.word	0xfcfc	; ????
     95e:	ff ff       	.word	0xffff	; ????
     960:	ff ff       	.word	0xffff	; ????
     962:	ff ff       	.word	0xffff	; ????
     964:	03 ff       	sbrs	r16, 3
     966:	ff ff       	.word	0xffff	; ????
     968:	c0 ff       	sbrs	r28, 0
     96a:	ff 03       	fmulsu	r23, r23
     96c:	ff ff       	.word	0xffff	; ????
     96e:	ff ff       	.word	0xffff	; ????
     970:	ff ff       	.word	0xffff	; ????
     972:	ff ff       	.word	0xffff	; ????
     974:	ff ff       	.word	0xffff	; ????
     976:	ff ff       	.word	0xffff	; ????
     978:	00 1f       	adc	r16, r16
     97a:	ff ff       	.word	0xffff	; ????
     97c:	ff ff       	.word	0xffff	; ????
     97e:	1f 00       	.word	0x001f	; ????
     980:	ff ff       	.word	0xffff	; ????
     982:	ff ff       	.word	0xffff	; ????
     984:	ff ff       	.word	0xffff	; ????
     986:	07 07       	cpc	r16, r23
     988:	07 07       	cpc	r16, r23
     98a:	07 07       	cpc	r16, r23
     98c:	00 00       	nop
     98e:	07 07       	cpc	r16, r23
     990:	07 07       	cpc	r16, r23
     992:	00 00       	nop
     994:	07 07       	cpc	r16, r23
     996:	07 07       	cpc	r16, r23
     998:	07 07       	cpc	r16, r23
     99a:	fc fc       	.word	0xfcfc	; ????
     99c:	fc fc       	.word	0xfcfc	; ????
     99e:	f8 c0       	rjmp	.+496    	; 0xb90 <__stack+0x331>
     9a0:	00 00       	nop
     9a2:	fc fc       	.word	0xfcfc	; ????
     9a4:	fc fc       	.word	0xfcfc	; ????
     9a6:	fc fc       	.word	0xfcfc	; ????
     9a8:	ff ff       	.word	0xffff	; ????
     9aa:	ff ff       	.word	0xffff	; ????
     9ac:	ff ff       	.word	0xffff	; ????
     9ae:	fe f0       	brts	.+62     	; 0x9ee <__stack+0x18f>
     9b0:	ff ff       	.word	0xffff	; ????
     9b2:	ff ff       	.word	0xffff	; ????
     9b4:	ff ff       	.word	0xffff	; ????
     9b6:	ff ff       	.word	0xffff	; ????
     9b8:	ff ff       	.word	0xffff	; ????
     9ba:	ff ff       	.word	0xffff	; ????
     9bc:	01 0f       	add	r16, r17
     9be:	7f ff       	.word	0xff7f	; ????
     9c0:	ff ff       	.word	0xffff	; ????
     9c2:	ff ff       	.word	0xffff	; ????
     9c4:	07 07       	cpc	r16, r23
     9c6:	07 07       	cpc	r16, r23
     9c8:	07 07       	cpc	r16, r23
     9ca:	00 00       	nop
     9cc:	00 03       	mulsu	r16, r16
     9ce:	07 07       	cpc	r16, r23
     9d0:	07 07       	cpc	r16, r23
     9d2:	c0 f0       	brcs	.+48     	; 0xa04 <__stack+0x1a5>
     9d4:	f8 f8       	.word	0xf8f8	; ????
     9d6:	fc fc       	.word	0xfcfc	; ????
     9d8:	3c 3c       	cpi	r19, 0xCC	; 204
     9da:	fc fc       	.word	0xfcfc	; ????
     9dc:	f8 f8       	.word	0xf8f8	; ????
     9de:	f0 c0       	rjmp	.+480    	; 0xbc0 <__stack+0x361>
     9e0:	ff ff       	.word	0xffff	; ????
     9e2:	ff ff       	.word	0xffff	; ????
     9e4:	ff ff       	.word	0xffff	; ????
     9e6:	00 00       	nop
     9e8:	ff ff       	.word	0xffff	; ????
     9ea:	ff ff       	.word	0xffff	; ????
     9ec:	ff ff       	.word	0xffff	; ????
     9ee:	7f ff       	.word	0xff7f	; ????
     9f0:	ff ff       	.word	0xffff	; ????
     9f2:	ff ff       	.word	0xffff	; ????
     9f4:	80 80       	ld	r8, Z
     9f6:	ff ff       	.word	0xffff	; ????
     9f8:	ff ff       	.word	0xffff	; ????
     9fa:	ff 7f       	andi	r31, 0xFF	; 255
     9fc:	00 01       	movw	r0, r0
     9fe:	03 03       	mulsu	r16, r19
     a00:	07 07       	cpc	r16, r23
     a02:	07 07       	cpc	r16, r23
     a04:	07 07       	cpc	r16, r23
     a06:	03 03       	mulsu	r16, r19
     a08:	01 00       	.word	0x0001	; ????
     a0a:	fc fc       	.word	0xfcfc	; ????
     a0c:	fc fc       	.word	0xfcfc	; ????
     a0e:	fc fc       	.word	0xfcfc	; ????
     a10:	3c 3c       	cpi	r19, 0xCC	; 204
     a12:	fc fc       	.word	0xfcfc	; ????
     a14:	fc f8       	.word	0xf8fc	; ????
     a16:	f8 e0       	ldi	r31, 0x08	; 8
     a18:	ff ff       	.word	0xffff	; ????
     a1a:	ff ff       	.word	0xffff	; ????
     a1c:	ff ff       	.word	0xffff	; ????
     a1e:	e0 e0       	ldi	r30, 0x00	; 0
     a20:	ff ff       	.word	0xffff	; ????
     a22:	ff ff       	.word	0xffff	; ????
     a24:	ff 7f       	andi	r31, 0xFF	; 255
     a26:	ff ff       	.word	0xffff	; ????
     a28:	ff ff       	.word	0xffff	; ????
     a2a:	ff ff       	.word	0xffff	; ????
     a2c:	01 01       	movw	r0, r2
     a2e:	01 01       	movw	r0, r2
     a30:	01 00       	.word	0x0001	; ????
     a32:	00 00       	nop
     a34:	07 07       	cpc	r16, r23
     a36:	07 07       	cpc	r16, r23
     a38:	07 07       	cpc	r16, r23
	...
     a42:	c0 f0       	brcs	.+48     	; 0xa74 <__stack+0x215>
     a44:	f8 f8       	.word	0xf8f8	; ????
     a46:	fc fc       	.word	0xfcfc	; ????
     a48:	3c 3c       	cpi	r19, 0xCC	; 204
     a4a:	fc fc       	.word	0xfcfc	; ????
     a4c:	f8 f8       	.word	0xf8f8	; ????
     a4e:	f0 c0       	rjmp	.+480    	; 0xc30 <__stack+0x3d1>
     a50:	ff ff       	.word	0xffff	; ????
     a52:	ff ff       	.word	0xffff	; ????
     a54:	ff ff       	.word	0xffff	; ????
     a56:	00 00       	nop
     a58:	ff ff       	.word	0xffff	; ????
     a5a:	ff ff       	.word	0xffff	; ????
     a5c:	ff ff       	.word	0xffff	; ????
     a5e:	7f ff       	.word	0xff7f	; ????
     a60:	ff ff       	.word	0xffff	; ????
     a62:	ff ff       	.word	0xffff	; ????
     a64:	80 80       	ld	r8, Z
     a66:	ff ff       	.word	0xffff	; ????
     a68:	ff ff       	.word	0xffff	; ????
     a6a:	ff 7f       	andi	r31, 0xFF	; 255
     a6c:	00 01       	movw	r0, r0
     a6e:	03 03       	mulsu	r16, r19
     a70:	07 07       	cpc	r16, r23
     a72:	1f 3f       	cpi	r17, 0xFF	; 255
     a74:	3f 3f       	cpi	r19, 0xFF	; 255
     a76:	39 39       	cpi	r19, 0x99	; 153
     a78:	38 38       	cpi	r19, 0x88	; 136
     a7a:	fc fc       	.word	0xfcfc	; ????
     a7c:	fc fc       	.word	0xfcfc	; ????
     a7e:	fc fc       	.word	0xfcfc	; ????
     a80:	3c 3c       	cpi	r19, 0xCC	; 204
     a82:	fc fc       	.word	0xfcfc	; ????
     a84:	fc f8       	.word	0xf8fc	; ????
     a86:	f0 e0       	ldi	r31, 0x00	; 0
     a88:	ff ff       	.word	0xffff	; ????
     a8a:	ff ff       	.word	0xffff	; ????
     a8c:	ff ff       	.word	0xffff	; ????
     a8e:	f0 f0       	brcs	.+60     	; 0xacc <__stack+0x26d>
     a90:	ff ff       	.word	0xffff	; ????
     a92:	ff bf       	out	0x3f, r31	; 63
     a94:	bf 1f       	adc	r27, r31
     a96:	ff ff       	.word	0xffff	; ????
     a98:	ff ff       	.word	0xffff	; ????
     a9a:	ff ff       	.word	0xffff	; ????
     a9c:	00 00       	nop
     a9e:	ff ff       	.word	0xffff	; ????
     aa0:	ff ff       	.word	0xffff	; ????
     aa2:	ff ff       	.word	0xffff	; ????
     aa4:	07 07       	cpc	r16, r23
     aa6:	07 07       	cpc	r16, r23
     aa8:	07 07       	cpc	r16, r23
     aaa:	00 00       	nop
     aac:	07 07       	cpc	r16, r23
     aae:	07 07       	cpc	r16, r23
     ab0:	07 07       	cpc	r16, r23
     ab2:	e0 f0       	brcs	.+56     	; 0xaec <__stack+0x28d>
     ab4:	f8 f8       	.word	0xf8f8	; ????
     ab6:	fc fc       	.word	0xfcfc	; ????
     ab8:	3c 3c       	cpi	r19, 0xCC	; 204
     aba:	fc fc       	.word	0xfcfc	; ????
     abc:	f8 f8       	.word	0xf8f8	; ????
     abe:	f0 e0       	ldi	r31, 0x00	; 0
     ac0:	00 0f       	add	r16, r16
     ac2:	1f 3f       	cpi	r17, 0xFF	; 255
     ac4:	7f ff       	.word	0xff7f	; ????
     ac6:	ff fc       	.word	0xfcff	; ????
     ac8:	fc fb       	.word	0xfbfc	; ????
     aca:	f3 f3       	brvs	.-4      	; 0xac8 <__stack+0x269>
     acc:	e3 c3       	rjmp	.+1990   	; 0x1294 <__stack+0xa35>
     ace:	83 00       	.word	0x0083	; ????
     ad0:	7c fc       	.word	0xfc7c	; ????
     ad2:	fc fc       	.word	0xfcfc	; ????
     ad4:	fc fc       	.word	0xfcfc	; ????
     ad6:	81 83       	std	Z+1, r24	; 0x01
     ad8:	83 ff       	sbrs	r24, 3
     ada:	ff ff       	.word	0xffff	; ????
     adc:	ff ff       	.word	0xffff	; ????
     ade:	fe 00       	.word	0x00fe	; ????
     ae0:	01 03       	mulsu	r16, r17
     ae2:	03 07       	cpc	r16, r19
     ae4:	07 07       	cpc	r16, r23
     ae6:	07 07       	cpc	r16, r23
     ae8:	07 07       	cpc	r16, r23
     aea:	03 03       	mulsu	r16, r19
     aec:	01 00       	.word	0x0001	; ????
     aee:	7c 7c       	andi	r23, 0xCC	; 204
     af0:	7c 7c       	andi	r23, 0xCC	; 204
     af2:	fc fc       	.word	0xfcfc	; ????
     af4:	fc fc       	.word	0xfcfc	; ????
     af6:	fc fc       	.word	0xfcfc	; ????
     af8:	7c 7c       	andi	r23, 0xCC	; 204
     afa:	7c 7c       	andi	r23, 0xCC	; 204
     afc:	00 00       	nop
     afe:	00 00       	nop
     b00:	ff ff       	.word	0xffff	; ????
     b02:	ff ff       	.word	0xffff	; ????
     b04:	ff ff       	.word	0xffff	; ????
	...
     b0e:	ff ff       	.word	0xffff	; ????
     b10:	ff ff       	.word	0xffff	; ????
     b12:	ff ff       	.word	0xffff	; ????
	...
     b1c:	07 07       	cpc	r16, r23
     b1e:	07 07       	cpc	r16, r23
     b20:	07 07       	cpc	r16, r23
     b22:	00 00       	nop
     b24:	00 00       	nop
     b26:	fc fc       	.word	0xfcfc	; ????
     b28:	fc fc       	.word	0xfcfc	; ????
     b2a:	fc fc       	.word	0xfcfc	; ????
     b2c:	00 00       	nop
     b2e:	00 fc       	sbrc	r0, 0
     b30:	fc fc       	.word	0xfcfc	; ????
     b32:	fc fc       	.word	0xfcfc	; ????
     b34:	fc ff       	.word	0xfffc	; ????
     b36:	ff ff       	.word	0xffff	; ????
     b38:	ff ff       	.word	0xffff	; ????
     b3a:	ff 00       	.word	0x00ff	; ????
     b3c:	00 00       	nop
     b3e:	ff ff       	.word	0xffff	; ????
     b40:	ff ff       	.word	0xffff	; ????
     b42:	ff ff       	.word	0xffff	; ????
     b44:	7f ff       	.word	0xff7f	; ????
     b46:	ff ff       	.word	0xffff	; ????
     b48:	ff ff       	.word	0xffff	; ????
     b4a:	80 80       	ld	r8, Z
     b4c:	80 ff       	sbrs	r24, 0
     b4e:	ff ff       	.word	0xffff	; ????
     b50:	ff ff       	.word	0xffff	; ????
     b52:	7f 00       	.word	0x007f	; ????
     b54:	01 03       	mulsu	r16, r17
     b56:	03 07       	cpc	r16, r19
     b58:	07 07       	cpc	r16, r23
     b5a:	07 07       	cpc	r16, r23
     b5c:	07 07       	cpc	r16, r23
     b5e:	03 03       	mulsu	r16, r19
     b60:	01 00       	.word	0x0001	; ????
     b62:	fc fc       	.word	0xfcfc	; ????
     b64:	fc fc       	.word	0xfcfc	; ????
     b66:	fc e0       	ldi	r31, 0x0C	; 12
     b68:	00 00       	nop
     b6a:	00 e0       	ldi	r16, 0x00	; 0
     b6c:	fc fc       	.word	0xfcfc	; ????
     b6e:	fc fc       	.word	0xfcfc	; ????
     b70:	fc 3c       	cpi	r31, 0xCC	; 204
     b72:	07 ff       	sbrs	r16, 7
     b74:	ff ff       	.word	0xffff	; ????
     b76:	ff ff       	.word	0xffff	; ????
     b78:	e0 00       	.word	0x00e0	; ????
     b7a:	e0 ff       	sbrs	r30, 0
     b7c:	ff ff       	.word	0xffff	; ????
     b7e:	ff ff       	.word	0xffff	; ????
     b80:	3f 00       	.word	0x003f	; ????
     b82:	00 01       	movw	r0, r0
     b84:	7f ff       	.word	0xff7f	; ????
     b86:	ff ff       	.word	0xffff	; ????
     b88:	ff f0       	brie	.+62     	; 0xbc8 <__stack+0x369>
     b8a:	ff ff       	.word	0xffff	; ????
     b8c:	ff ff       	.word	0xffff	; ????
     b8e:	ff 1f       	adc	r31, r31
     b90:	00 00       	nop
     b92:	00 00       	nop
     b94:	00 07       	cpc	r16, r16
     b96:	07 07       	cpc	r16, r23
     b98:	07 07       	cpc	r16, r23
     b9a:	07 07       	cpc	r16, r23
     b9c:	07 07       	cpc	r16, r23
     b9e:	07 00       	.word	0x0007	; ????
     ba0:	00 00       	nop
     ba2:	3c fc       	.word	0xfc3c	; ????
     ba4:	fc fc       	.word	0xfcfc	; ????
     ba6:	fc fc       	.word	0xfcfc	; ????
     ba8:	00 00       	nop
     baa:	00 f0       	brcs	.+0      	; 0xbac <__stack+0x34d>
     bac:	fc fc       	.word	0xfcfc	; ????
     bae:	fc fc       	.word	0xfcfc	; ????
     bb0:	fc f0       	brlt	.+62     	; 0xbf0 <__stack+0x391>
     bb2:	00 00       	nop
     bb4:	00 fc       	sbrc	r0, 0
     bb6:	fc fc       	.word	0xfcfc	; ????
     bb8:	fc fc       	.word	0xfcfc	; ????
     bba:	3c 00       	.word	0x003c	; ????
     bbc:	3f ff       	.word	0xff3f	; ????
     bbe:	ff ff       	.word	0xffff	; ????
     bc0:	ff ff       	.word	0xffff	; ????
     bc2:	00 f0       	brcs	.+0      	; 0xbc4 <__stack+0x365>
     bc4:	ff ff       	.word	0xffff	; ????
     bc6:	ff 1f       	adc	r31, r31
     bc8:	ff ff       	.word	0xffff	; ????
     bca:	ff e0       	ldi	r31, 0x0F	; 15
     bcc:	00 ff       	sbrs	r16, 0
     bce:	ff ff       	.word	0xffff	; ????
     bd0:	ff ff       	.word	0xffff	; ????
     bd2:	3f 00       	.word	0x003f	; ????
     bd4:	00 00       	nop
     bd6:	3f ff       	.word	0xff3f	; ????
     bd8:	ff ff       	.word	0xffff	; ????
     bda:	ff f0       	brie	.+62     	; 0xc1a <__stack+0x3bb>
     bdc:	ff ff       	.word	0xffff	; ????
     bde:	ff 07       	cpc	r31, r31
     be0:	00 07       	cpc	r16, r16
     be2:	ff ff       	.word	0xffff	; ????
     be4:	ff e0       	ldi	r31, 0x0F	; 15
     be6:	ff ff       	.word	0xffff	; ????
     be8:	ff ff       	.word	0xffff	; ????
     bea:	3f 00       	.word	0x003f	; ????
     bec:	00 00       	nop
     bee:	00 00       	nop
     bf0:	07 07       	cpc	r16, r23
     bf2:	07 07       	cpc	r16, r23
     bf4:	07 07       	cpc	r16, r23
     bf6:	07 03       	mulsu	r16, r23
     bf8:	00 00       	nop
     bfa:	00 03       	mulsu	r16, r16
     bfc:	07 07       	cpc	r16, r23
     bfe:	07 07       	cpc	r16, r23
     c00:	07 07       	cpc	r16, r23
     c02:	07 00       	.word	0x0007	; ????
     c04:	00 00       	nop
     c06:	fc fc       	.word	0xfcfc	; ????
     c08:	fc fc       	.word	0xfcfc	; ????
     c0a:	f0 80       	ld	r15, Z
     c0c:	00 80       	ld	r0, Z
     c0e:	f0 fc       	sbrc	r15, 0
     c10:	fc fc       	.word	0xfcfc	; ????
     c12:	fc 1c       	adc	r15, r12
     c14:	00 03       	mulsu	r16, r16
     c16:	ff ff       	.word	0xffff	; ????
     c18:	ff ff       	.word	0xffff	; ????
     c1a:	fc ff       	.word	0xfffc	; ????
     c1c:	ff ff       	.word	0xffff	; ????
     c1e:	ff 03       	fmulsu	r23, r23
     c20:	00 00       	nop
     c22:	f0 fe       	sbrs	r15, 0
     c24:	ff ff       	.word	0xffff	; ????
     c26:	ff 0f       	add	r31, r31
     c28:	01 1f       	adc	r16, r17
     c2a:	ff ff       	.word	0xffff	; ????
     c2c:	ff fe       	.word	0xfeff	; ????
     c2e:	f0 00       	.word	0x00f0	; ????
     c30:	07 07       	cpc	r16, r23
     c32:	07 07       	cpc	r16, r23
     c34:	00 00       	nop
     c36:	00 00       	nop
     c38:	01 07       	cpc	r16, r17
     c3a:	07 07       	cpc	r16, r23
     c3c:	07 07       	cpc	r16, r23
     c3e:	7c fc       	.word	0xfc7c	; ????
     c40:	fc fc       	.word	0xfcfc	; ????
     c42:	fc 80       	ldd	r15, Y+4	; 0x04
     c44:	00 00       	nop
     c46:	80 fc       	sbrc	r8, 0
     c48:	fc fc       	.word	0xfcfc	; ????
     c4a:	fc 7c       	andi	r31, 0xCC	; 204
     c4c:	0c 00       	.word	0x000c	; ????
     c4e:	03 1f       	adc	r16, r19
     c50:	ff ff       	.word	0xffff	; ????
     c52:	ff f8       	.word	0xf8ff	; ????
     c54:	f8 ff       	.word	0xfff8	; ????
     c56:	ff ff       	.word	0xffff	; ????
     c58:	1f 03       	fmul	r17, r23
     c5a:	00 00       	nop
     c5c:	00 00       	nop
     c5e:	00 00       	nop
     c60:	ff ff       	.word	0xffff	; ????
     c62:	ff ff       	.word	0xffff	; ????
     c64:	ff ff       	.word	0xffff	; ????
	...
     c6e:	00 07       	cpc	r16, r16
     c70:	07 07       	cpc	r16, r23
     c72:	07 07       	cpc	r16, r23
     c74:	07 00       	.word	0x0007	; ????
     c76:	00 00       	nop
     c78:	00 00       	nop
     c7a:	00 7c       	andi	r16, 0xC0	; 192
     c7c:	7c 7c       	andi	r23, 0xCC	; 204
     c7e:	7c 7c       	andi	r23, 0xCC	; 204
     c80:	fc fc       	.word	0xfcfc	; ????
     c82:	fc fc       	.word	0xfcfc	; ????
     c84:	fc fc       	.word	0xfcfc	; ????
     c86:	00 00       	nop
     c88:	00 e0       	ldi	r16, 0x00	; 0
     c8a:	f8 ff       	.word	0xfff8	; ????
     c8c:	ff ff       	.word	0xffff	; ????
     c8e:	ff 3f       	cpi	r31, 0xFF	; 255
     c90:	07 00       	.word	0x0007	; ????
     c92:	c0 f8       	bld	r12, 0
     c94:	ff ff       	.word	0xffff	; ????
     c96:	ff ff       	.word	0xffff	; ????
     c98:	ff cf       	rjmp	.-2      	; 0xc98 <__stack+0x439>
     c9a:	c1 c0       	rjmp	.+386    	; 0xe1e <__stack+0x5bf>
     c9c:	c0 c0       	rjmp	.+384    	; 0xe1e <__stack+0x5bf>
     c9e:	07 07       	cpc	r16, r23
     ca0:	07 07       	cpc	r16, r23
     ca2:	07 07       	cpc	r16, r23
     ca4:	07 07       	cpc	r16, r23
     ca6:	07 07       	cpc	r16, r23
     ca8:	07 07       	cpc	r16, r23
     caa:	fc fc       	.word	0xfcfc	; ????
     cac:	fc fc       	.word	0xfcfc	; ????
     cae:	fc fc       	.word	0xfcfc	; ????
     cb0:	3c ff       	.word	0xff3c	; ????
     cb2:	ff ff       	.word	0xffff	; ????
     cb4:	ff ff       	.word	0xffff	; ????
     cb6:	ff 00       	.word	0x00ff	; ????
     cb8:	ff ff       	.word	0xffff	; ????
     cba:	ff ff       	.word	0xffff	; ????
     cbc:	ff ff       	.word	0xffff	; ????
     cbe:	80 07       	cpc	r24, r16
     cc0:	07 07       	cpc	r16, r23
     cc2:	07 07       	cpc	r16, r23
     cc4:	07 07       	cpc	r16, r23
     cc6:	06 3e       	cpi	r16, 0xE6	; 230
     cc8:	fe fe       	.word	0xfefe	; ????
     cca:	fe f8       	.word	0xf8fe	; ????
     ccc:	c0 00       	.word	0x00c0	; ????
     cce:	00 00       	nop
     cd0:	00 00       	nop
     cd2:	00 00       	nop
     cd4:	00 03       	mulsu	r16, r16
     cd6:	1f ff       	.word	0xff1f	; ????
     cd8:	ff ff       	.word	0xffff	; ????
     cda:	fe f0       	brts	.+62     	; 0xd1a <__stack+0x4bb>
	...
     ce4:	00 07       	cpc	r16, r16
     ce6:	7f ff       	.word	0xff7f	; ????
     ce8:	ff ff       	.word	0xffff	; ????
     cea:	f8 c0       	rjmp	.+496    	; 0xedc <__stack+0x67d>
	...
     cf4:	03 07       	cpc	r16, r19
     cf6:	07 07       	cpc	r16, r23
     cf8:	07 06       	cpc	r0, r23
     cfa:	3c fc       	.word	0xfc3c	; ????
     cfc:	fc fc       	.word	0xfcfc	; ????
     cfe:	fc fc       	.word	0xfcfc	; ????
     d00:	fc 00       	.word	0x00fc	; ????
     d02:	ff ff       	.word	0xffff	; ????
     d04:	ff ff       	.word	0xffff	; ????
     d06:	ff ff       	.word	0xffff	; ????
     d08:	80 ff       	sbrs	r24, 0
     d0a:	ff ff       	.word	0xffff	; ????
     d0c:	ff ff       	.word	0xffff	; ????
     d0e:	ff 07       	cpc	r31, r31
     d10:	07 07       	cpc	r16, r23
     d12:	07 07       	cpc	r16, r23
     d14:	07 07       	cpc	r16, r23
     d16:	00 00       	nop
     d18:	00 80       	ld	r0, Z
     d1a:	e0 f8       	bld	r14, 0
     d1c:	fc fc       	.word	0xfcfc	; ????
     d1e:	fc f8       	.word	0xf8fc	; ????
     d20:	e0 80       	ld	r14, Z
     d22:	00 00       	nop
     d24:	00 20       	and	r0, r0
     d26:	38 3e       	cpi	r19, 0xE8	; 232
     d28:	3f 3f       	cpi	r19, 0xFF	; 255
     d2a:	0f 03       	fmul	r16, r23
     d2c:	00 03       	mulsu	r16, r16
     d2e:	0f 3f       	cpi	r16, 0xFF	; 255
     d30:	3f 3e       	cpi	r19, 0xEF	; 239
     d32:	38 20       	and	r3, r8
	...
     d88:	60 60       	ori	r22, 0x00	; 0
     d8a:	60 60       	ori	r22, 0x00	; 0
     d8c:	60 60       	ori	r22, 0x00	; 0
     d8e:	60 60       	ori	r22, 0x00	; 0
     d90:	60 60       	ori	r22, 0x00	; 0
     d92:	60 60       	ori	r22, 0x00	; 0
     d94:	60 60       	ori	r22, 0x00	; 0
     d96:	60 60       	ori	r22, 0x00	; 0
     d98:	60 60       	ori	r22, 0x00	; 0
     d9a:	01 03       	mulsu	r16, r17
     d9c:	07 0f       	add	r16, r23
     d9e:	0e 0c       	add	r0, r14
     da0:	08 00       	.word	0x0008	; ????
	...
     db6:	00 00       	nop
     db8:	80 80       	ld	r8, Z
     dba:	c0 c0       	rjmp	.+384    	; 0xf3c <__stack+0x6dd>
     dbc:	c0 c0       	rjmp	.+384    	; 0xf3e <__stack+0x6df>
     dbe:	c0 c0       	rjmp	.+384    	; 0xf40 <__stack+0x6e1>
     dc0:	c0 80       	ld	r12, Z
     dc2:	00 00       	nop
     dc4:	3e 3f       	cpi	r19, 0xFE	; 254
     dc6:	3f 3f       	cpi	r19, 0xFF	; 255
     dc8:	bf 83       	std	Y+7, r27	; 0x07
     dca:	c3 c3       	rjmp	.+1926   	; 0x1552 <BMP180_I2C_bus_write+0x20>
     dcc:	ff ff       	.word	0xffff	; ????
     dce:	ff ff       	.word	0xffff	; ????
     dd0:	ff fe       	.word	0xfeff	; ????
     dd2:	fc fe       	.word	0xfefc	; ????
     dd4:	ff ff       	.word	0xffff	; ????
     dd6:	ff 83       	std	Y+7, r31	; 0x07
     dd8:	83 81       	ldd	r24, Z+3	; 0x03
     dda:	ff ff       	.word	0xffff	; ????
     ddc:	ff ff       	.word	0xffff	; ????
     dde:	ff ff       	.word	0xffff	; ????
     de0:	01 03       	mulsu	r16, r17
     de2:	07 07       	cpc	r16, r23
     de4:	07 07       	cpc	r16, r23
     de6:	03 01       	movw	r0, r6
     de8:	07 07       	cpc	r16, r23
     dea:	07 07       	cpc	r16, r23
     dec:	07 07       	cpc	r16, r23
     dee:	fc fc       	.word	0xfcfc	; ????
     df0:	fc fc       	.word	0xfcfc	; ????
     df2:	fc fc       	.word	0xfcfc	; ????
     df4:	00 80       	ld	r0, Z
     df6:	c0 c0       	rjmp	.+384    	; 0xf78 <__stack+0x719>
     df8:	c0 c0       	rjmp	.+384    	; 0xf7a <__stack+0x71b>
     dfa:	c0 80       	ld	r12, Z
     dfc:	00 ff       	sbrs	r16, 0
     dfe:	ff ff       	.word	0xffff	; ????
     e00:	ff ff       	.word	0xffff	; ????
     e02:	ff 03       	fmulsu	r23, r23
     e04:	03 03       	mulsu	r16, r19
     e06:	ff ff       	.word	0xffff	; ????
     e08:	ff ff       	.word	0xffff	; ????
     e0a:	ff ff       	.word	0xffff	; ????
     e0c:	ff ff       	.word	0xffff	; ????
     e0e:	ff ff       	.word	0xffff	; ????
     e10:	ff ff       	.word	0xffff	; ????
     e12:	80 80       	ld	r8, Z
     e14:	80 ff       	sbrs	r24, 0
     e16:	ff ff       	.word	0xffff	; ????
     e18:	ff ff       	.word	0xffff	; ????
     e1a:	ff 07       	cpc	r31, r31
     e1c:	07 07       	cpc	r16, r23
     e1e:	07 07       	cpc	r16, r23
     e20:	07 01       	movw	r0, r14
     e22:	03 07       	cpc	r16, r19
     e24:	07 07       	cpc	r16, r23
     e26:	07 07       	cpc	r16, r23
     e28:	03 01       	movw	r0, r6
     e2a:	00 00       	nop
     e2c:	80 80       	ld	r8, Z
     e2e:	c0 c0       	rjmp	.+384    	; 0xfb0 <__stack+0x751>
     e30:	c0 c0       	rjmp	.+384    	; 0xfb2 <__stack+0x753>
     e32:	c0 c0       	rjmp	.+384    	; 0xfb4 <__stack+0x755>
     e34:	80 80       	ld	r8, Z
     e36:	00 00       	nop
     e38:	fe ff       	.word	0xfffe	; ????
     e3a:	ff ff       	.word	0xffff	; ????
     e3c:	ff ff       	.word	0xffff	; ????
     e3e:	03 03       	mulsu	r16, r19
     e40:	03 3f       	cpi	r16, 0xF3	; 243
     e42:	3f 3f       	cpi	r19, 0xFF	; 255
     e44:	3f 3c       	cpi	r19, 0xCF	; 207
     e46:	7f ff       	.word	0xff7f	; ????
     e48:	ff ff       	.word	0xffff	; ????
     e4a:	ff ff       	.word	0xffff	; ????
     e4c:	80 80       	ld	r8, Z
     e4e:	80 fc       	sbrc	r8, 0
     e50:	fc fc       	.word	0xfcfc	; ????
     e52:	fc 7c       	andi	r31, 0xCC	; 204
     e54:	00 01       	movw	r0, r0
     e56:	03 03       	mulsu	r16, r19
     e58:	07 07       	cpc	r16, r23
     e5a:	07 07       	cpc	r16, r23
     e5c:	07 07       	cpc	r16, r23
     e5e:	03 03       	mulsu	r16, r19
     e60:	01 00       	.word	0x0001	; ????
     e62:	00 80       	ld	r0, Z
     e64:	c0 c0       	rjmp	.+384    	; 0xfe6 <__stack+0x787>
     e66:	c0 c0       	rjmp	.+384    	; 0xfe8 <__stack+0x789>
     e68:	c0 80       	ld	r12, Z
     e6a:	00 fc       	sbrc	r0, 0
     e6c:	fc fc       	.word	0xfcfc	; ????
     e6e:	fc fc       	.word	0xfcfc	; ????
     e70:	fc ff       	.word	0xfffc	; ????
     e72:	ff ff       	.word	0xffff	; ????
     e74:	ff ff       	.word	0xffff	; ????
     e76:	ff 03       	fmulsu	r23, r23
     e78:	03 03       	mulsu	r16, r19
     e7a:	ff ff       	.word	0xffff	; ????
     e7c:	ff ff       	.word	0xffff	; ????
     e7e:	ff ff       	.word	0xffff	; ????
     e80:	ff ff       	.word	0xffff	; ????
     e82:	ff ff       	.word	0xffff	; ????
     e84:	ff ff       	.word	0xffff	; ????
     e86:	80 80       	ld	r8, Z
     e88:	80 ff       	sbrs	r24, 0
     e8a:	ff ff       	.word	0xffff	; ????
     e8c:	ff ff       	.word	0xffff	; ????
     e8e:	ff 01       	movw	r30, r30
     e90:	03 07       	cpc	r16, r19
     e92:	07 07       	cpc	r16, r23
     e94:	07 07       	cpc	r16, r23
     e96:	03 01       	movw	r0, r6
     e98:	07 07       	cpc	r16, r23
     e9a:	07 07       	cpc	r16, r23
     e9c:	07 07       	cpc	r16, r23
     e9e:	00 00       	nop
     ea0:	80 80       	ld	r8, Z
     ea2:	c0 c0       	rjmp	.+384    	; 0x1024 <__stack+0x7c5>
     ea4:	c0 c0       	rjmp	.+384    	; 0x1026 <__stack+0x7c7>
     ea6:	c0 c0       	rjmp	.+384    	; 0x1028 <__stack+0x7c9>
     ea8:	80 80       	ld	r8, Z
     eaa:	00 00       	nop
     eac:	fc ff       	.word	0xfffc	; ????
     eae:	ff ff       	.word	0xffff	; ????
     eb0:	ff ff       	.word	0xffff	; ????
     eb2:	c3 c3       	rjmp	.+1926   	; 0x163a <BMP180_delay_msek+0x2>
     eb4:	ff ff       	.word	0xffff	; ????
     eb6:	ff ff       	.word	0xffff	; ????
     eb8:	ff fc       	.word	0xfcff	; ????
     eba:	7f ff       	.word	0xff7f	; ????
     ebc:	ff ff       	.word	0xffff	; ????
     ebe:	ff ff       	.word	0xffff	; ????
     ec0:	81 81       	ldd	r24, Z+1	; 0x01
     ec2:	fd fd       	.word	0xfdfd	; ????
     ec4:	fd fd       	.word	0xfdfd	; ????
     ec6:	fd 7d       	andi	r31, 0xDD	; 221
     ec8:	00 01       	movw	r0, r0
     eca:	03 03       	mulsu	r16, r19
     ecc:	07 07       	cpc	r16, r23
     ece:	07 07       	cpc	r16, r23
     ed0:	07 07       	cpc	r16, r23
     ed2:	03 03       	mulsu	r16, r19
     ed4:	01 00       	.word	0x0001	; ????
     ed6:	80 f0       	brcs	.+32     	; 0xef8 <__stack+0x699>
     ed8:	f8 fc       	.word	0xfcf8	; ????
     eda:	fc fc       	.word	0xfcfc	; ????
     edc:	9c 9c       	mul	r9, r12
     ede:	9c 03       	fmulsu	r17, r20
     ee0:	ff ff       	.word	0xffff	; ????
     ee2:	ff ff       	.word	0xffff	; ????
     ee4:	ff ff       	.word	0xffff	; ????
     ee6:	03 03       	mulsu	r16, r19
     ee8:	00 ff       	sbrs	r16, 0
     eea:	ff ff       	.word	0xffff	; ????
     eec:	ff ff       	.word	0xffff	; ????
     eee:	ff 00       	.word	0x00ff	; ????
     ef0:	00 00       	nop
     ef2:	07 07       	cpc	r16, r23
     ef4:	07 07       	cpc	r16, r23
     ef6:	07 07       	cpc	r16, r23
     ef8:	00 00       	nop
     efa:	00 80       	ld	r0, Z
     efc:	c0 c0       	rjmp	.+384    	; 0x107e <__stack+0x81f>
     efe:	c0 c0       	rjmp	.+384    	; 0x1080 <__stack+0x821>
     f00:	c0 80       	ld	r12, Z
     f02:	00 c0       	rjmp	.+0      	; 0xf04 <__stack+0x6a5>
     f04:	c0 c0       	rjmp	.+384    	; 0x1086 <__stack+0x827>
     f06:	c0 c0       	rjmp	.+384    	; 0x1088 <__stack+0x829>
     f08:	c0 ff       	sbrs	r28, 0
     f0a:	ff ff       	.word	0xffff	; ????
     f0c:	ff ff       	.word	0xffff	; ????
     f0e:	ff 03       	fmulsu	r23, r23
     f10:	03 03       	mulsu	r16, r19
     f12:	ff ff       	.word	0xffff	; ????
     f14:	ff ff       	.word	0xffff	; ????
     f16:	ff ff       	.word	0xffff	; ????
     f18:	3f 7f       	andi	r19, 0xFF	; 255
     f1a:	ff ff       	.word	0xffff	; ????
     f1c:	ff ff       	.word	0xffff	; ????
     f1e:	f0 70       	andi	r31, 0x00	; 0
     f20:	70 ff       	sbrs	r23, 0
     f22:	ff ff       	.word	0xffff	; ????
     f24:	ff ff       	.word	0xffff	; ????
     f26:	ff 06       	cpc	r15, r31
     f28:	1e 1e       	adc	r1, r30
     f2a:	3e 3e       	cpi	r19, 0xEE	; 238
     f2c:	3e 3c       	cpi	r19, 0xCE	; 206
     f2e:	3c 3c       	cpi	r19, 0xCC	; 204
     f30:	3f 3f       	cpi	r19, 0xFF	; 255
     f32:	1f 1f       	adc	r17, r31
     f34:	0f 07       	cpc	r16, r31
     f36:	fc fc       	.word	0xfcfc	; ????
     f38:	fc fc       	.word	0xfcfc	; ????
     f3a:	fc fc       	.word	0xfcfc	; ????
     f3c:	80 80       	ld	r8, Z
     f3e:	c0 c0       	rjmp	.+384    	; 0x10c0 <__stack+0x861>
     f40:	c0 c0       	rjmp	.+384    	; 0x10c2 <__stack+0x863>
     f42:	c0 80       	ld	r12, Z
     f44:	00 ff       	sbrs	r16, 0
     f46:	ff ff       	.word	0xffff	; ????
     f48:	ff ff       	.word	0xffff	; ????
     f4a:	ff 03       	fmulsu	r23, r23
     f4c:	03 03       	mulsu	r16, r19
     f4e:	ff ff       	.word	0xffff	; ????
     f50:	ff ff       	.word	0xffff	; ????
     f52:	ff ff       	.word	0xffff	; ????
     f54:	ff ff       	.word	0xffff	; ????
     f56:	ff ff       	.word	0xffff	; ????
     f58:	ff ff       	.word	0xffff	; ????
     f5a:	00 00       	nop
     f5c:	00 ff       	sbrs	r16, 0
     f5e:	ff ff       	.word	0xffff	; ????
     f60:	ff ff       	.word	0xffff	; ????
     f62:	ff 07       	cpc	r31, r31
     f64:	07 07       	cpc	r16, r23
     f66:	07 07       	cpc	r16, r23
     f68:	07 00       	.word	0x0007	; ????
     f6a:	00 00       	nop
     f6c:	07 07       	cpc	r16, r23
     f6e:	07 07       	cpc	r16, r23
     f70:	07 07       	cpc	r16, r23
     f72:	dc dc       	rcall	.-1608   	; 0x92c <__stack+0xcd>
     f74:	dc dc       	rcall	.-1608   	; 0x92e <__stack+0xcf>
     f76:	dc dc       	rcall	.-1608   	; 0x930 <__stack+0xd1>
     f78:	ff ff       	.word	0xffff	; ????
     f7a:	ff ff       	.word	0xffff	; ????
     f7c:	ff ff       	.word	0xffff	; ????
     f7e:	ff ff       	.word	0xffff	; ????
     f80:	ff ff       	.word	0xffff	; ????
     f82:	ff ff       	.word	0xffff	; ????
     f84:	07 07       	cpc	r16, r23
     f86:	07 07       	cpc	r16, r23
     f88:	07 07       	cpc	r16, r23
     f8a:	00 dc       	rcall	.-2048   	; 0x78c <__LOCK_REGION_LENGTH__+0x38c>
     f8c:	dc dc       	rcall	.-1608   	; 0x946 <__stack+0xe7>
     f8e:	dc dc       	rcall	.-1608   	; 0x948 <__stack+0xe9>
     f90:	dc 00       	.word	0x00dc	; ????
     f92:	ff ff       	.word	0xffff	; ????
     f94:	ff ff       	.word	0xffff	; ????
     f96:	ff ff       	.word	0xffff	; ????
     f98:	00 ff       	sbrs	r16, 0
     f9a:	ff ff       	.word	0xffff	; ????
     f9c:	ff ff       	.word	0xffff	; ????
     f9e:	ff 38       	cpi	r31, 0x8F	; 143
     fa0:	3f 3f       	cpi	r19, 0xFF	; 255
     fa2:	3f 3f       	cpi	r19, 0xFF	; 255
     fa4:	1f 0f       	add	r17, r31
     fa6:	fc fc       	.word	0xfcfc	; ????
     fa8:	fc fc       	.word	0xfcfc	; ????
     faa:	fc fc       	.word	0xfcfc	; ????
     fac:	00 00       	nop
     fae:	00 c0       	rjmp	.+0      	; 0xfb0 <__stack+0x751>
     fb0:	c0 c0       	rjmp	.+384    	; 0x1132 <__stack+0x8d3>
     fb2:	c0 40       	sbci	r28, 0x00	; 0
     fb4:	ff ff       	.word	0xffff	; ????
     fb6:	ff ff       	.word	0xffff	; ????
     fb8:	ff ff       	.word	0xffff	; ????
     fba:	f0 fc       	sbrc	r15, 0
     fbc:	ff ff       	.word	0xffff	; ????
     fbe:	1f 07       	cpc	r17, r31
     fc0:	01 00       	.word	0x0001	; ????
     fc2:	ff ff       	.word	0xffff	; ????
     fc4:	ff ff       	.word	0xffff	; ????
     fc6:	ff ff       	.word	0xffff	; ????
     fc8:	03 1f       	adc	r16, r19
     fca:	ff ff       	.word	0xffff	; ????
     fcc:	ff f8       	.word	0xf8ff	; ????
     fce:	c0 00       	.word	0x00c0	; ????
     fd0:	07 07       	cpc	r16, r23
     fd2:	07 07       	cpc	r16, r23
     fd4:	07 07       	cpc	r16, r23
     fd6:	00 00       	nop
     fd8:	00 07       	cpc	r16, r16
     fda:	07 07       	cpc	r16, r23
     fdc:	07 06       	cpc	r0, r23
     fde:	fc fc       	.word	0xfcfc	; ????
     fe0:	fc fc       	.word	0xfcfc	; ????
     fe2:	fc fc       	.word	0xfcfc	; ????
     fe4:	ff ff       	.word	0xffff	; ????
     fe6:	ff ff       	.word	0xffff	; ????
     fe8:	ff ff       	.word	0xffff	; ????
     fea:	ff ff       	.word	0xffff	; ????
     fec:	ff ff       	.word	0xffff	; ????
     fee:	ff ff       	.word	0xffff	; ????
     ff0:	07 07       	cpc	r16, r23
     ff2:	07 07       	cpc	r16, r23
     ff4:	07 07       	cpc	r16, r23
     ff6:	c0 c0       	rjmp	.+384    	; 0x1178 <__stack+0x919>
     ff8:	c0 c0       	rjmp	.+384    	; 0x117a <__stack+0x91b>
     ffa:	c0 c0       	rjmp	.+384    	; 0x117c <__stack+0x91d>
     ffc:	00 80       	ld	r0, Z
     ffe:	c0 c0       	rjmp	.+384    	; 0x1180 <__stack+0x921>
    1000:	c0 c0       	rjmp	.+384    	; 0x1182 <__stack+0x923>
    1002:	80 00       	.word	0x0080	; ????
    1004:	00 80       	ld	r0, Z
    1006:	c0 c0       	rjmp	.+384    	; 0x1188 <__stack+0x929>
    1008:	c0 c0       	rjmp	.+384    	; 0x118a <__stack+0x92b>
    100a:	c0 80       	ld	r12, Z
    100c:	00 ff       	sbrs	r16, 0
    100e:	ff ff       	.word	0xffff	; ????
    1010:	ff ff       	.word	0xffff	; ????
    1012:	ff 03       	fmulsu	r23, r23
    1014:	03 03       	mulsu	r16, r19
    1016:	ff ff       	.word	0xffff	; ????
    1018:	ff ff       	.word	0xffff	; ????
    101a:	ff 03       	fmulsu	r23, r23
    101c:	03 03       	mulsu	r16, r19
    101e:	ff ff       	.word	0xffff	; ????
    1020:	ff ff       	.word	0xffff	; ????
    1022:	ff ff       	.word	0xffff	; ????
    1024:	ff ff       	.word	0xffff	; ????
    1026:	ff ff       	.word	0xffff	; ????
    1028:	ff ff       	.word	0xffff	; ????
    102a:	00 00       	nop
    102c:	00 ff       	sbrs	r16, 0
    102e:	ff ff       	.word	0xffff	; ????
    1030:	ff ff       	.word	0xffff	; ????
    1032:	00 00       	nop
    1034:	00 ff       	sbrs	r16, 0
    1036:	ff ff       	.word	0xffff	; ????
    1038:	ff ff       	.word	0xffff	; ????
    103a:	ff 07       	cpc	r31, r31
    103c:	07 07       	cpc	r16, r23
    103e:	07 07       	cpc	r16, r23
    1040:	07 00       	.word	0x0007	; ????
    1042:	00 00       	nop
    1044:	07 07       	cpc	r16, r23
    1046:	07 07       	cpc	r16, r23
    1048:	07 00       	.word	0x0007	; ????
    104a:	00 00       	nop
    104c:	07 07       	cpc	r16, r23
    104e:	07 07       	cpc	r16, r23
    1050:	07 07       	cpc	r16, r23
    1052:	c0 c0       	rjmp	.+384    	; 0x11d4 <__stack+0x975>
    1054:	c0 c0       	rjmp	.+384    	; 0x11d6 <__stack+0x977>
    1056:	c0 c0       	rjmp	.+384    	; 0x11d8 <__stack+0x979>
    1058:	00 80       	ld	r0, Z
    105a:	c0 c0       	rjmp	.+384    	; 0x11dc <__stack+0x97d>
    105c:	c0 c0       	rjmp	.+384    	; 0x11de <__stack+0x97f>
    105e:	c0 80       	ld	r12, Z
    1060:	00 ff       	sbrs	r16, 0
    1062:	ff ff       	.word	0xffff	; ????
    1064:	ff ff       	.word	0xffff	; ????
    1066:	ff 03       	fmulsu	r23, r23
    1068:	03 03       	mulsu	r16, r19
    106a:	ff ff       	.word	0xffff	; ????
    106c:	ff ff       	.word	0xffff	; ????
    106e:	ff ff       	.word	0xffff	; ????
    1070:	ff ff       	.word	0xffff	; ????
    1072:	ff ff       	.word	0xffff	; ????
    1074:	ff ff       	.word	0xffff	; ????
    1076:	00 00       	nop
    1078:	00 ff       	sbrs	r16, 0
    107a:	ff ff       	.word	0xffff	; ????
    107c:	ff ff       	.word	0xffff	; ????
    107e:	ff 07       	cpc	r31, r31
    1080:	07 07       	cpc	r16, r23
    1082:	07 07       	cpc	r16, r23
    1084:	07 00       	.word	0x0007	; ????
    1086:	00 00       	nop
    1088:	07 07       	cpc	r16, r23
    108a:	07 07       	cpc	r16, r23
    108c:	07 07       	cpc	r16, r23
    108e:	00 00       	nop
    1090:	80 80       	ld	r8, Z
    1092:	c0 c0       	rjmp	.+384    	; 0x1214 <__stack+0x9b5>
    1094:	c0 c0       	rjmp	.+384    	; 0x1216 <__stack+0x9b7>
    1096:	c0 c0       	rjmp	.+384    	; 0x1218 <__stack+0x9b9>
    1098:	80 80       	ld	r8, Z
    109a:	00 00       	nop
    109c:	fc ff       	.word	0xfffc	; ????
    109e:	ff ff       	.word	0xffff	; ????
    10a0:	ff ff       	.word	0xffff	; ????
    10a2:	03 03       	mulsu	r16, r19
    10a4:	ff ff       	.word	0xffff	; ????
    10a6:	ff ff       	.word	0xffff	; ????
    10a8:	ff fc       	.word	0xfcff	; ????
    10aa:	ff ff       	.word	0xffff	; ????
    10ac:	ff ff       	.word	0xffff	; ????
    10ae:	ff ff       	.word	0xffff	; ????
    10b0:	80 80       	ld	r8, Z
    10b2:	ff ff       	.word	0xffff	; ????
    10b4:	ff ff       	.word	0xffff	; ????
    10b6:	ff 7f       	andi	r31, 0xFF	; 255
    10b8:	00 01       	movw	r0, r0
    10ba:	03 03       	mulsu	r16, r19
    10bc:	07 07       	cpc	r16, r23
    10be:	07 07       	cpc	r16, r23
    10c0:	07 07       	cpc	r16, r23
    10c2:	03 03       	mulsu	r16, r19
    10c4:	01 00       	.word	0x0001	; ????
    10c6:	c0 c0       	rjmp	.+384    	; 0x1248 <__stack+0x9e9>
    10c8:	c0 c0       	rjmp	.+384    	; 0x124a <__stack+0x9eb>
    10ca:	c0 c0       	rjmp	.+384    	; 0x124c <__stack+0x9ed>
    10cc:	00 80       	ld	r0, Z
    10ce:	c0 c0       	rjmp	.+384    	; 0x1250 <__stack+0x9f1>
    10d0:	c0 c0       	rjmp	.+384    	; 0x1252 <__stack+0x9f3>
    10d2:	c0 80       	ld	r12, Z
    10d4:	00 ff       	sbrs	r16, 0
    10d6:	ff ff       	.word	0xffff	; ????
    10d8:	ff ff       	.word	0xffff	; ????
    10da:	ff 03       	fmulsu	r23, r23
    10dc:	03 03       	mulsu	r16, r19
    10de:	ff ff       	.word	0xffff	; ????
    10e0:	ff ff       	.word	0xffff	; ????
    10e2:	ff ff       	.word	0xffff	; ????
    10e4:	ff ff       	.word	0xffff	; ????
    10e6:	ff ff       	.word	0xffff	; ????
    10e8:	ff ff       	.word	0xffff	; ????
    10ea:	80 80       	ld	r8, Z
    10ec:	80 ff       	sbrs	r24, 0
    10ee:	ff ff       	.word	0xffff	; ????
    10f0:	ff ff       	.word	0xffff	; ????
    10f2:	ff 3f       	cpi	r31, 0xFF	; 255
    10f4:	3f 3f       	cpi	r19, 0xFF	; 255
    10f6:	3f 3f       	cpi	r19, 0xFF	; 255
    10f8:	3f 01       	movw	r6, r30
    10fa:	03 07       	cpc	r16, r19
    10fc:	07 07       	cpc	r16, r23
    10fe:	07 07       	cpc	r16, r23
    1100:	03 01       	movw	r0, r6
    1102:	00 80       	ld	r0, Z
    1104:	c0 c0       	rjmp	.+384    	; 0x1286 <__stack+0xa27>
    1106:	c0 c0       	rjmp	.+384    	; 0x1288 <__stack+0xa29>
    1108:	c0 80       	ld	r12, Z
    110a:	00 c0       	rjmp	.+0      	; 0x110c <__stack+0x8ad>
    110c:	c0 c0       	rjmp	.+384    	; 0x128e <__stack+0xa2f>
    110e:	c0 c0       	rjmp	.+384    	; 0x1290 <__stack+0xa31>
    1110:	c0 ff       	sbrs	r28, 0
    1112:	ff ff       	.word	0xffff	; ????
    1114:	ff ff       	.word	0xffff	; ????
    1116:	ff 03       	fmulsu	r23, r23
    1118:	03 03       	mulsu	r16, r19
    111a:	ff ff       	.word	0xffff	; ????
    111c:	ff ff       	.word	0xffff	; ????
    111e:	ff ff       	.word	0xffff	; ????
    1120:	ff ff       	.word	0xffff	; ????
    1122:	ff ff       	.word	0xffff	; ????
    1124:	ff ff       	.word	0xffff	; ????
    1126:	80 80       	ld	r8, Z
    1128:	80 ff       	sbrs	r24, 0
    112a:	ff ff       	.word	0xffff	; ????
    112c:	ff ff       	.word	0xffff	; ????
    112e:	ff 00       	.word	0x00ff	; ????
    1130:	03 03       	mulsu	r16, r19
    1132:	07 07       	cpc	r16, r23
    1134:	07 07       	cpc	r16, r23
    1136:	03 01       	movw	r0, r6
    1138:	3f 3f       	cpi	r19, 0xFF	; 255
    113a:	3f 3f       	cpi	r19, 0xFF	; 255
    113c:	3f 3f       	cpi	r19, 0xFF	; 255
    113e:	c0 c0       	rjmp	.+384    	; 0x12c0 <__stack+0xa61>
    1140:	c0 c0       	rjmp	.+384    	; 0x12c2 <__stack+0xa63>
    1142:	c0 c0       	rjmp	.+384    	; 0x12c4 <__stack+0xa65>
    1144:	00 80       	ld	r0, Z
    1146:	c0 c0       	rjmp	.+384    	; 0x12c8 <__stack+0xa69>
    1148:	ff ff       	.word	0xffff	; ????
    114a:	ff ff       	.word	0xffff	; ????
    114c:	ff ff       	.word	0xffff	; ????
    114e:	3f 1f       	adc	r19, r31
    1150:	1f 1f       	adc	r17, r31
    1152:	ff ff       	.word	0xffff	; ????
    1154:	ff ff       	.word	0xffff	; ????
    1156:	ff ff       	.word	0xffff	; ????
    1158:	00 00       	nop
    115a:	00 00       	nop
    115c:	07 07       	cpc	r16, r23
    115e:	07 07       	cpc	r16, r23
    1160:	07 07       	cpc	r16, r23
    1162:	00 00       	nop
    1164:	00 00       	nop
    1166:	00 80       	ld	r0, Z
    1168:	80 c0       	rjmp	.+256    	; 0x126a <__stack+0xa0b>
    116a:	c0 c0       	rjmp	.+384    	; 0x12ec <__stack+0xa8d>
    116c:	c0 c0       	rjmp	.+384    	; 0x12ee <__stack+0xa8f>
    116e:	c0 c0       	rjmp	.+384    	; 0x12f0 <__stack+0xa91>
    1170:	80 80       	ld	r8, Z
    1172:	00 7e       	andi	r16, 0xE0	; 224
    1174:	ff ff       	.word	0xffff	; ????
    1176:	ff ff       	.word	0xffff	; ????
    1178:	ff e3       	ldi	r31, 0x3F	; 63
    117a:	c3 83       	std	Z+3, r28	; 0x03
    117c:	9f 1f       	adc	r25, r31
    117e:	1f 1e       	adc	r1, r31
    1180:	f0 f0       	brcs	.+60     	; 0x11be <__stack+0x95f>
    1182:	f1 f1       	breq	.+124    	; 0x1200 <__stack+0x9a1>
    1184:	83 87       	std	Z+11, r24	; 0x0b
    1186:	87 ff       	sbrs	r24, 7
    1188:	ff ff       	.word	0xffff	; ????
    118a:	ff fe       	.word	0xfeff	; ????
    118c:	fc 00       	.word	0x00fc	; ????
    118e:	03 03       	mulsu	r16, r19
    1190:	07 07       	cpc	r16, r23
    1192:	07 07       	cpc	r16, r23
    1194:	07 07       	cpc	r16, r23
    1196:	07 03       	mulsu	r16, r23
    1198:	03 00       	.word	0x0003	; ????
    119a:	80 f8       	bld	r8, 0
    119c:	f8 f8       	.word	0xf8f8	; ????
    119e:	f8 f8       	.word	0xf8f8	; ????
    11a0:	f8 80       	ld	r15, Y
    11a2:	80 80       	ld	r8, Z
    11a4:	03 ff       	sbrs	r16, 3
    11a6:	ff ff       	.word	0xffff	; ????
    11a8:	ff ff       	.word	0xffff	; ????
    11aa:	ff 03       	fmulsu	r23, r23
    11ac:	03 03       	mulsu	r16, r19
    11ae:	00 ff       	sbrs	r16, 0
    11b0:	ff ff       	.word	0xffff	; ????
    11b2:	ff ff       	.word	0xffff	; ????
    11b4:	ff 00       	.word	0x00ff	; ????
    11b6:	00 00       	nop
    11b8:	00 01       	movw	r0, r0
    11ba:	03 07       	cpc	r16, r19
    11bc:	07 07       	cpc	r16, r23
    11be:	07 07       	cpc	r16, r23
    11c0:	07 07       	cpc	r16, r23
    11c2:	c0 c0       	rjmp	.+384    	; 0x1344 <__stack+0xae5>
    11c4:	c0 c0       	rjmp	.+384    	; 0x1346 <__stack+0xae7>
    11c6:	c0 c0       	rjmp	.+384    	; 0x1348 <__stack+0xae9>
    11c8:	00 00       	nop
    11ca:	00 c0       	rjmp	.+0      	; 0x11cc <__stack+0x96d>
    11cc:	c0 c0       	rjmp	.+384    	; 0x134e <__stack+0xaef>
    11ce:	c0 c0       	rjmp	.+384    	; 0x1350 <__stack+0xaf1>
    11d0:	c0 ff       	sbrs	r28, 0
    11d2:	ff ff       	.word	0xffff	; ????
    11d4:	ff ff       	.word	0xffff	; ????
    11d6:	ff 00       	.word	0x00ff	; ????
    11d8:	00 00       	nop
    11da:	ff ff       	.word	0xffff	; ????
    11dc:	ff ff       	.word	0xffff	; ????
    11de:	ff ff       	.word	0xffff	; ????
    11e0:	ff ff       	.word	0xffff	; ????
    11e2:	ff ff       	.word	0xffff	; ????
    11e4:	ff ff       	.word	0xffff	; ????
    11e6:	80 80       	ld	r8, Z
    11e8:	80 ff       	sbrs	r24, 0
    11ea:	ff ff       	.word	0xffff	; ????
    11ec:	ff ff       	.word	0xffff	; ????
    11ee:	ff 01       	movw	r30, r30
    11f0:	03 07       	cpc	r16, r19
    11f2:	07 07       	cpc	r16, r23
    11f4:	07 07       	cpc	r16, r23
    11f6:	03 01       	movw	r0, r6
    11f8:	07 07       	cpc	r16, r23
    11fa:	07 07       	cpc	r16, r23
    11fc:	07 07       	cpc	r16, r23
    11fe:	c0 c0       	rjmp	.+384    	; 0x1380 <__stack+0xb21>
    1200:	c0 c0       	rjmp	.+384    	; 0x1382 <__stack+0xb23>
    1202:	c0 c0       	rjmp	.+384    	; 0x1384 <__stack+0xb25>
    1204:	00 00       	nop
    1206:	00 c0       	rjmp	.+0      	; 0x1208 <__stack+0x9a9>
    1208:	c0 c0       	rjmp	.+384    	; 0x138a <__stack+0xb2b>
    120a:	c0 c0       	rjmp	.+384    	; 0x138c <__stack+0xb2d>
    120c:	c0 03       	fmuls	r20, r16
    120e:	ff ff       	.word	0xffff	; ????
    1210:	ff ff       	.word	0xffff	; ????
    1212:	ff e0       	ldi	r31, 0x0F	; 15
    1214:	00 e0       	ldi	r16, 0x00	; 0
    1216:	ff ff       	.word	0xffff	; ????
    1218:	ff ff       	.word	0xffff	; ????
    121a:	ff 03       	fmulsu	r23, r23
    121c:	00 01       	movw	r0, r0
    121e:	ff ff       	.word	0xffff	; ????
    1220:	ff ff       	.word	0xffff	; ????
    1222:	ff c0       	rjmp	.+510    	; 0x1422 <__do_clear_bss+0x2>
    1224:	ff ff       	.word	0xffff	; ????
    1226:	ff ff       	.word	0xffff	; ????
    1228:	ff 01       	movw	r30, r30
    122a:	00 00       	nop
    122c:	00 00       	nop
    122e:	07 07       	cpc	r16, r23
    1230:	07 07       	cpc	r16, r23
    1232:	07 07       	cpc	r16, r23
    1234:	07 07       	cpc	r16, r23
    1236:	07 00       	.word	0x0007	; ????
    1238:	00 00       	nop
    123a:	c0 c0       	rjmp	.+384    	; 0x13bc <__stack+0xb5d>
    123c:	c0 c0       	rjmp	.+384    	; 0x13be <__stack+0xb5f>
    123e:	c0 00       	.word	0x00c0	; ????
    1240:	00 00       	nop
    1242:	c0 c0       	rjmp	.+384    	; 0x13c4 <__stack+0xb65>
    1244:	c0 c0       	rjmp	.+384    	; 0x13c6 <__stack+0xb67>
    1246:	c0 00       	.word	0x00c0	; ????
    1248:	00 00       	nop
    124a:	c0 c0       	rjmp	.+384    	; 0x13cc <__stack+0xb6d>
    124c:	c0 c0       	rjmp	.+384    	; 0x13ce <__stack+0xb6f>
    124e:	c0 01       	movw	r24, r0
    1250:	ff ff       	.word	0xffff	; ????
    1252:	ff ff       	.word	0xffff	; ????
    1254:	f8 00       	.word	0x00f8	; ????
    1256:	f0 ff       	sbrs	r31, 0
    1258:	ff ff       	.word	0xffff	; ????
    125a:	ff ff       	.word	0xffff	; ????
    125c:	f0 00       	.word	0x00f0	; ????
    125e:	f8 ff       	.word	0xfff8	; ????
    1260:	ff ff       	.word	0xffff	; ????
    1262:	ff 01       	movw	r30, r30
    1264:	00 00       	nop
    1266:	3f ff       	.word	0xff3f	; ????
    1268:	ff ff       	.word	0xffff	; ????
    126a:	f8 ff       	.word	0xfff8	; ????
    126c:	ff 3f       	cpi	r31, 0xFF	; 255
    126e:	00 3f       	cpi	r16, 0xF0	; 240
    1270:	ff ff       	.word	0xffff	; ????
    1272:	f8 ff       	.word	0xfff8	; ????
    1274:	ff ff       	.word	0xffff	; ????
    1276:	3f 00       	.word	0x003f	; ????
    1278:	00 00       	nop
    127a:	00 00       	nop
    127c:	07 07       	cpc	r16, r23
    127e:	07 07       	cpc	r16, r23
    1280:	07 07       	cpc	r16, r23
    1282:	00 00       	nop
    1284:	00 07       	cpc	r16, r16
    1286:	07 07       	cpc	r16, r23
    1288:	07 07       	cpc	r16, r23
    128a:	07 00       	.word	0x0007	; ????
    128c:	00 00       	nop
    128e:	c0 c0       	rjmp	.+384    	; 0x1410 <__do_copy_data+0x6>
    1290:	c0 c0       	rjmp	.+384    	; 0x1412 <__do_copy_data+0x8>
    1292:	c0 00       	.word	0x00c0	; ????
    1294:	00 00       	nop
    1296:	c0 c0       	rjmp	.+384    	; 0x1418 <__do_copy_data+0xe>
    1298:	c0 c0       	rjmp	.+384    	; 0x141a <__do_copy_data+0x10>
    129a:	c0 03       	fmuls	r20, r16
    129c:	0f 7f       	andi	r16, 0xFF	; 255
    129e:	ff ff       	.word	0xffff	; ????
    12a0:	fc c0       	rjmp	.+504    	; 0x149a <errorWriteCircular+0x36>
    12a2:	fc ff       	.word	0xfffc	; ????
    12a4:	ff 7f       	andi	r31, 0xFF	; 255
    12a6:	0f 03       	fmul	r16, r23
    12a8:	80 f0       	brcs	.+32     	; 0x12ca <__stack+0xa6b>
    12aa:	fe ff       	.word	0xfffe	; ????
    12ac:	ff ff       	.word	0xffff	; ????
    12ae:	07 7f       	andi	r16, 0xF7	; 247
    12b0:	ff ff       	.word	0xffff	; ????
    12b2:	fe f0       	brts	.+62     	; 0x12f2 <__stack+0xa93>
    12b4:	80 07       	cpc	r24, r16
    12b6:	07 07       	cpc	r16, r23
    12b8:	07 07       	cpc	r16, r23
    12ba:	00 00       	nop
    12bc:	00 07       	cpc	r16, r16
    12be:	07 07       	cpc	r16, r23
    12c0:	07 07       	cpc	r16, r23
    12c2:	c0 c0       	rjmp	.+384    	; 0x1444 <errorInit+0x8>
    12c4:	c0 c0       	rjmp	.+384    	; 0x1446 <errorInit+0xa>
    12c6:	c0 00       	.word	0x00c0	; ????
    12c8:	00 00       	nop
    12ca:	00 c0       	rjmp	.+0      	; 0x12cc <__stack+0xa6d>
    12cc:	c0 c0       	rjmp	.+384    	; 0x144e <errorInit+0x12>
    12ce:	c0 c0       	rjmp	.+384    	; 0x1450 <errorInit+0x14>
    12d0:	00 0f       	add	r16, r16
    12d2:	ff ff       	.word	0xffff	; ????
    12d4:	ff fc       	.word	0xfcff	; ????
    12d6:	00 00       	nop
    12d8:	e0 ff       	sbrs	r30, 0
    12da:	ff ff       	.word	0xffff	; ????
    12dc:	ff 00       	.word	0x00ff	; ????
    12de:	00 00       	nop
    12e0:	00 0f       	add	r16, r16
    12e2:	ff ff       	.word	0xffff	; ????
    12e4:	ff e0       	ldi	r31, 0x0F	; 15
    12e6:	ff ff       	.word	0xffff	; ????
    12e8:	ff ff       	.word	0xffff	; ????
    12ea:	01 00       	.word	0x0001	; ????
    12ec:	00 00       	nop
    12ee:	38 38       	cpi	r19, 0x88	; 136
    12f0:	39 3f       	cpi	r19, 0xF9	; 249
    12f2:	3f 3f       	cpi	r19, 0xFF	; 255
    12f4:	3f 1f       	adc	r19, r31
    12f6:	0f 01       	movw	r0, r30
    12f8:	00 00       	nop
    12fa:	00 c0       	rjmp	.+0      	; 0x12fc <__stack+0xa9d>
    12fc:	c0 c0       	rjmp	.+384    	; 0x147e <errorWriteCircular+0x1a>
    12fe:	c0 c0       	rjmp	.+384    	; 0x1480 <errorWriteCircular+0x1c>
    1300:	c0 c0       	rjmp	.+384    	; 0x1482 <errorWriteCircular+0x1e>
    1302:	c0 c0       	rjmp	.+384    	; 0x1484 <errorWriteCircular+0x20>
    1304:	c0 00       	.word	0x00c0	; ????
    1306:	03 03       	mulsu	r16, r19
    1308:	c3 fb       	bst	r28, 3
    130a:	ff ff       	.word	0xffff	; ????
    130c:	ff ff       	.word	0xffff	; ????
    130e:	3f 0f       	add	r19, r31
    1310:	e0 f8       	bld	r14, 0
    1312:	ff ff       	.word	0xffff	; ????
    1314:	ff ff       	.word	0xffff	; ????
    1316:	bf 8f       	std	Y+31, r27	; 0x1f
    1318:	81 80       	ldd	r8, Z+1	; 0x01
    131a:	80 07       	cpc	r24, r16
    131c:	07 07       	cpc	r16, r23
    131e:	07 07       	cpc	r16, r23
    1320:	07 07       	cpc	r16, r23
    1322:	07 07       	cpc	r16, r23
    1324:	07 07       	cpc	r16, r23
    1326:	00 00       	nop
    1328:	00 e0       	ldi	r16, 0x00	; 0
    132a:	f8 f8       	.word	0xf8f8	; ????
    132c:	fc 3c       	cpi	r31, 0xCC	; 204
    132e:	3c 3c       	cpi	r19, 0xCC	; 204
    1330:	80 80       	ld	r8, Z
    1332:	c0 ff       	sbrs	r28, 0
    1334:	ff ff       	.word	0xffff	; ????
    1336:	3f 00       	.word	0x003f	; ????
    1338:	00 00       	nop
    133a:	07 07       	cpc	r16, r23
    133c:	1f ff       	.word	0xff1f	; ????
    133e:	ff fc       	.word	0xfcff	; ????
    1340:	f0 00       	.word	0x00f0	; ????
    1342:	00 00       	nop
    1344:	00 00       	nop
    1346:	00 1f       	adc	r16, r16
    1348:	7f 7f       	andi	r23, 0xFF	; 255
    134a:	ff f0       	brie	.+62     	; 0x138a <__stack+0xb2b>
    134c:	f0 f0       	brcs	.+60     	; 0x138a <__stack+0xb2b>
    134e:	fc fc       	.word	0xfcfc	; ????
    1350:	fc ff       	.word	0xfffc	; ????
    1352:	ff ff       	.word	0xffff	; ????
    1354:	ff ff       	.word	0xffff	; ????
    1356:	ff 7f       	andi	r31, 0xFF	; 255
    1358:	7f 7f       	andi	r23, 0xFF	; 255
    135a:	3c 3c       	cpi	r19, 0xCC	; 204
    135c:	3c fc       	.word	0xfc3c	; ????
    135e:	f8 f8       	.word	0xf8f8	; ????
    1360:	e0 00       	.word	0x00e0	; ????
    1362:	00 00       	nop
    1364:	00 00       	nop
    1366:	00 3f       	cpi	r16, 0xF0	; 240
    1368:	ff ff       	.word	0xffff	; ????
    136a:	ff e0       	ldi	r31, 0x0F	; 15
    136c:	80 80       	ld	r8, Z
    136e:	00 00       	nop
    1370:	00 f0       	brcs	.+0      	; 0x1372 <__stack+0xb13>
    1372:	fc ff       	.word	0xfffc	; ????
    1374:	ff 0f       	add	r31, r31
    1376:	07 07       	cpc	r16, r23
    1378:	f0 f0       	brcs	.+60     	; 0x13b6 <__stack+0xb57>
    137a:	f0 ff       	sbrs	r31, 0
    137c:	7f 7f       	andi	r23, 0xFF	; 255
    137e:	1f 00       	.word	0x001f	; ????
	...
    1390:	00 f0       	brcs	.+0      	; 0x1392 <__stack+0xb33>
    1392:	78 7c       	andi	r23, 0xC8	; 200
    1394:	3c 3c       	cpi	r19, 0xCC	; 204
    1396:	3c 7c       	andi	r19, 0xCC	; 204
    1398:	78 f8       	.word	0xf878	; ????
    139a:	f0 f0       	brcs	.+60     	; 0x13d8 <__stack+0xb79>
    139c:	f0 f8       	bld	r15, 0
    139e:	78 3c       	cpi	r23, 0xC8	; 200
	...
    13bc:	00 00       	nop
    13be:	80 80       	ld	r8, Z
    13c0:	80 80       	ld	r8, Z
    13c2:	80 80       	ld	r8, Z
    13c4:	80 80       	ld	r8, Z
    13c6:	80 80       	ld	r8, Z
    13c8:	80 80       	ld	r8, Z
    13ca:	80 80       	ld	r8, Z
    13cc:	80 80       	ld	r8, Z
    13ce:	ff 00       	.word	0x00ff	; ????
	...
    13dc:	00 ff       	sbrs	r16, 0
    13de:	ff 00       	.word	0x00ff	; ????
	...
    13ec:	00 ff       	sbrs	r16, 0
    13ee:	07 04       	cpc	r0, r7
    13f0:	04 04       	cpc	r0, r4
    13f2:	04 04       	cpc	r0, r4
    13f4:	04 04       	cpc	r0, r4
    13f6:	04 04       	cpc	r0, r4
    13f8:	04 04       	cpc	r0, r4
    13fa:	04 04       	cpc	r0, r4
    13fc:	04 07       	cpc	r16, r20

000013fe <__ctors_end>:
    13fe:	11 24       	eor	r1, r1
    1400:	1f be       	out	0x3f, r1	; 63
    1402:	cf e5       	ldi	r28, 0x5F	; 95
    1404:	d8 e0       	ldi	r29, 0x08	; 8
    1406:	de bf       	out	0x3e, r29	; 62
    1408:	cd bf       	out	0x3d, r28	; 61

0000140a <__do_copy_data>:
    140a:	14 e0       	ldi	r17, 0x04	; 4
    140c:	a0 e6       	ldi	r26, 0x60	; 96
    140e:	b0 e0       	ldi	r27, 0x00	; 0
    1410:	e0 eb       	ldi	r30, 0xB0	; 176
    1412:	f2 e2       	ldi	r31, 0x22	; 34
    1414:	02 c0       	rjmp	.+4      	; 0x141a <__do_copy_data+0x10>
    1416:	05 90       	lpm	r0, Z+
    1418:	0d 92       	st	X+, r0
    141a:	ae 38       	cpi	r26, 0x8E	; 142
    141c:	b1 07       	cpc	r27, r17
    141e:	d9 f7       	brne	.-10     	; 0x1416 <__do_copy_data+0xc>

00001420 <__do_clear_bss>:
    1420:	25 e0       	ldi	r18, 0x05	; 5
    1422:	ae e8       	ldi	r26, 0x8E	; 142
    1424:	b4 e0       	ldi	r27, 0x04	; 4
    1426:	01 c0       	rjmp	.+2      	; 0x142a <.do_clear_bss_start>

00001428 <.do_clear_bss_loop>:
    1428:	1d 92       	st	X+, r1

0000142a <.do_clear_bss_start>:
    142a:	ad 33       	cpi	r26, 0x3D	; 61
    142c:	b2 07       	cpc	r27, r18
    142e:	e1 f7       	brne	.-8      	; 0x1428 <.do_clear_bss_loop>
    1430:	0e 94 b5 0f 	call	0x1f6a	; 0x1f6a <main>
    1434:	0c 94 56 11 	jmp	0x22ac	; 0x22ac <_exit>

00001438 <__bad_interrupt>:
    1438:	0c 94 00 00 	jmp	0	; 0x0 <__vectors>

0000143c <errorInit>:
		strc->len++;
		strc->buff[id][ERROR_BEGIN + strc->err[id][0]++] = err;
	}
	
	return 0;
}
    143c:	fc 01       	movw	r30, r24
    143e:	dc 01       	movw	r26, r24
    1440:	5c 96       	adiw	r26, 0x1c	; 28
    1442:	9c 01       	movw	r18, r24
    1444:	28 5e       	subi	r18, 0xE8	; 232
    1446:	3f 4f       	sbci	r19, 0xFF	; 255
    1448:	8f ef       	ldi	r24, 0xFF	; 255
    144a:	80 83       	st	Z, r24
    144c:	1d 92       	st	X+, r1
    144e:	11 82       	std	Z+1, r1	; 0x01
    1450:	12 82       	std	Z+2, r1	; 0x02
    1452:	13 82       	std	Z+3, r1	; 0x03
    1454:	14 82       	std	Z+4, r1	; 0x04
    1456:	15 82       	std	Z+5, r1	; 0x05
    1458:	36 96       	adiw	r30, 0x06	; 6
    145a:	e2 17       	cp	r30, r18
    145c:	f3 07       	cpc	r31, r19
    145e:	a9 f7       	brne	.-22     	; 0x144a <errorInit+0xe>
    1460:	80 e0       	ldi	r24, 0x00	; 0
    1462:	08 95       	ret

00001464 <errorWriteCircular>:

uint8_t errorWriteCircular( error_t *strc , uint8_t id , uint8_t err )
{
    1464:	fc 01       	movw	r30, r24
	strc->id = id;
    1466:	62 8f       	std	Z+26, r22	; 0x1a
	strc->lastErr = err;
    1468:	43 8f       	std	Z+27, r20	; 0x1b

static uint8_t checkBuff( error_t *strc )
{	
	uint8_t index = 0;
	
	if( strc->len >= ERROR_BUFFER_ID_SIZE * ERROR_BUFFER_NUM_SIZE )
    146a:	80 8d       	ldd	r24, Z+24	; 0x18
    146c:	91 8d       	ldd	r25, Z+25	; 0x19
    146e:	84 31       	cpi	r24, 0x14	; 20
    1470:	91 05       	cpc	r25, r1
    1472:	b8 f4       	brcc	.+46     	; 0x14a2 <errorWriteCircular+0x3e>
	{
		return 1; // Kompletter Fehlerspeicher ist voll	
	}
	
	if( strc->id >= ERROR_BUFFER_ID_SIZE )
    1474:	64 30       	cpi	r22, 0x04	; 4
    1476:	88 f4       	brcc	.+34     	; 0x149a <errorWriteCircular+0x36>
	{
		return 2; // ID nicht vorgesehen!
	}

	if( strc->err[strc->id][0] >= ERROR_BUFFER_NUM_SIZE )
    1478:	df 01       	movw	r26, r30
    147a:	a6 0f       	add	r26, r22
    147c:	b1 1d       	adc	r27, r1
    147e:	5c 96       	adiw	r26, 0x1c	; 28
    1480:	2c 91       	ld	r18, X
    1482:	25 30       	cpi	r18, 0x05	; 5
    1484:	08 f0       	brcs	.+2      	; 0x1488 <errorWriteCircular+0x24>
    1486:	48 c0       	rjmp	.+144    	; 0x1518 <errorWriteCircular+0xb4>
		*	zurckgegeben
		*/
		return ( (3 * 10) + index );
	}

	if( strc->lastErr == 0 )
    1488:	44 23       	and	r20, r20
    148a:	49 f0       	breq	.+18     	; 0x149e <errorWriteCircular+0x3a>
    148c:	38 c0       	rjmp	.+112    	; 0x14fe <errorWriteCircular+0x9a>
	
	strc->buff[id][ERROR_ID] = id;
	
	if( strc->err[id][0] >= ERROR_BUFFER_NUM_SIZE )
	{
		strc->err[id][0] = 0;
    148e:	df 01       	movw	r26, r30
    1490:	a2 0f       	add	r26, r18
    1492:	b3 1f       	adc	r27, r19
    1494:	5c 96       	adiw	r26, 0x1c	; 28
    1496:	1c 92       	st	X, r1
    1498:	17 c0       	rjmp	.+46     	; 0x14c8 <errorWriteCircular+0x64>
	
	uint8_t retCode = checkBuff( strc );
	
	if( retCode == 2 || retCode == 4 )
	{
		return retCode;
    149a:	82 e0       	ldi	r24, 0x02	; 2
    149c:	08 95       	ret
    149e:	84 e0       	ldi	r24, 0x04	; 4
    14a0:	08 95       	ret
	}
	
	strc->buff[id][ERROR_ID] = id;
    14a2:	26 2f       	mov	r18, r22
    14a4:	30 e0       	ldi	r19, 0x00	; 0
    14a6:	d9 01       	movw	r26, r18
    14a8:	aa 0f       	add	r26, r26
    14aa:	bb 1f       	adc	r27, r27
    14ac:	a2 0f       	add	r26, r18
    14ae:	b3 1f       	adc	r27, r19
    14b0:	aa 0f       	add	r26, r26
    14b2:	bb 1f       	adc	r27, r27
    14b4:	ae 0f       	add	r26, r30
    14b6:	bf 1f       	adc	r27, r31
    14b8:	6c 93       	st	X, r22
	
	if( strc->err[id][0] >= ERROR_BUFFER_NUM_SIZE )
    14ba:	df 01       	movw	r26, r30
    14bc:	a2 0f       	add	r26, r18
    14be:	b3 1f       	adc	r27, r19
    14c0:	5c 96       	adiw	r26, 0x1c	; 28
    14c2:	5c 91       	ld	r21, X
    14c4:	55 30       	cpi	r21, 0x05	; 5
    14c6:	18 f7       	brcc	.-58     	; 0x148e <errorWriteCircular+0x2a>
	{
		strc->err[id][0] = 0;
	}
	
	if( strc->err[id][0] < ERROR_BUFFER_NUM_SIZE )
    14c8:	df 01       	movw	r26, r30
    14ca:	a2 0f       	add	r26, r18
    14cc:	b3 1f       	adc	r27, r19
    14ce:	5c 96       	adiw	r26, 0x1c	; 28
    14d0:	5c 91       	ld	r21, X
    14d2:	5c 97       	sbiw	r26, 0x1c	; 28
	{
		strc->len++;
    14d4:	01 96       	adiw	r24, 0x01	; 1
    14d6:	91 8f       	std	Z+25, r25	; 0x19
    14d8:	80 8f       	std	Z+24, r24	; 0x18
		strc->buff[id][ERROR_BEGIN + strc->err[id][0]++] = err;
    14da:	81 e0       	ldi	r24, 0x01	; 1
    14dc:	85 0f       	add	r24, r21
    14de:	5c 96       	adiw	r26, 0x1c	; 28
    14e0:	8c 93       	st	X, r24
    14e2:	c9 01       	movw	r24, r18
    14e4:	88 0f       	add	r24, r24
    14e6:	99 1f       	adc	r25, r25
    14e8:	82 0f       	add	r24, r18
    14ea:	93 1f       	adc	r25, r19
    14ec:	88 0f       	add	r24, r24
    14ee:	99 1f       	adc	r25, r25
    14f0:	e8 0f       	add	r30, r24
    14f2:	f9 1f       	adc	r31, r25
    14f4:	e5 0f       	add	r30, r21
    14f6:	f1 1d       	adc	r31, r1
    14f8:	41 83       	std	Z+1, r20	; 0x01
	}
	
	return 0;
    14fa:	80 e0       	ldi	r24, 0x00	; 0
    14fc:	08 95       	ret
	if( retCode == 2 || retCode == 4 )
	{
		return retCode;
	}
	
	strc->buff[id][ERROR_ID] = id;
    14fe:	26 2f       	mov	r18, r22
    1500:	30 e0       	ldi	r19, 0x00	; 0
    1502:	d9 01       	movw	r26, r18
    1504:	aa 0f       	add	r26, r26
    1506:	bb 1f       	adc	r27, r27
    1508:	a2 0f       	add	r26, r18
    150a:	b3 1f       	adc	r27, r19
    150c:	aa 0f       	add	r26, r26
    150e:	bb 1f       	adc	r27, r27
    1510:	ae 0f       	add	r26, r30
    1512:	bf 1f       	adc	r27, r31
    1514:	6c 93       	st	X, r22
    1516:	d8 cf       	rjmp	.-80     	; 0x14c8 <errorWriteCircular+0x64>
    1518:	26 2f       	mov	r18, r22
    151a:	30 e0       	ldi	r19, 0x00	; 0
    151c:	d9 01       	movw	r26, r18
    151e:	aa 0f       	add	r26, r26
    1520:	bb 1f       	adc	r27, r27
    1522:	a2 0f       	add	r26, r18
    1524:	b3 1f       	adc	r27, r19
    1526:	aa 0f       	add	r26, r26
    1528:	bb 1f       	adc	r27, r27
    152a:	ae 0f       	add	r26, r30
    152c:	bf 1f       	adc	r27, r31
    152e:	6c 93       	st	X, r22
    1530:	ae cf       	rjmp	.-164    	; 0x148e <errorWriteCircular+0x2a>

00001532 <BMP180_I2C_bus_write>:

static struct bmp180_t *p_bmp180;
struct bmp180_t bmp180;

s8 BMP180_I2C_bus_write(u8 dev_addr, u8 reg_addr, u8 *reg_data, u8 cnt)
{
    1532:	ef 92       	push	r14
    1534:	ff 92       	push	r15
    1536:	0f 93       	push	r16
    1538:	1f 93       	push	r17
    153a:	cf 93       	push	r28
    153c:	df 93       	push	r29
    153e:	c6 2f       	mov	r28, r22
    1540:	7a 01       	movw	r14, r20
    1542:	12 2f       	mov	r17, r18
	i2c_start_wait( dev_addr + I2C_WRITE );
    1544:	0e 94 83 0c 	call	0x1906	; 0x1906 <i2c_start_wait>
	
	if ( i2c_write( reg_addr ) ) // Register Adresse
    1548:	8c 2f       	mov	r24, r28
    154a:	0e 94 8c 0c 	call	0x1918	; 0x1918 <i2c_write>
    154e:	88 23       	and	r24, r24
    1550:	31 f0       	breq	.+12     	; 0x155e <BMP180_I2C_bus_write+0x2c>
	{
		errorWriteCircular( &err , _ERROR_BMP180_I2C_ , ERROR_I2C_ADDRESS_TX );
    1552:	42 e0       	ldi	r20, 0x02	; 2
    1554:	63 e0       	ldi	r22, 0x03	; 3
    1556:	8e ea       	ldi	r24, 0xAE	; 174
    1558:	94 e0       	ldi	r25, 0x04	; 4
    155a:	0e 94 32 0a 	call	0x1464	; 0x1464 <errorWriteCircular>
	}
	
	for ( u8 i = 0 ; i < cnt ; i++ )
    155e:	11 23       	and	r17, r17
    1560:	b1 f0       	breq	.+44     	; 0x158e <BMP180_I2C_bus_write+0x5c>
    1562:	e7 01       	movw	r28, r14
    1564:	11 50       	subi	r17, 0x01	; 1
    1566:	01 2f       	mov	r16, r17
    1568:	10 e0       	ldi	r17, 0x00	; 0
    156a:	0f 5f       	subi	r16, 0xFF	; 255
    156c:	1f 4f       	sbci	r17, 0xFF	; 255
    156e:	0e 0d       	add	r16, r14
    1570:	1f 1d       	adc	r17, r15
	{
		if ( i2c_write( reg_data[i] ) )
    1572:	89 91       	ld	r24, Y+
    1574:	0e 94 8c 0c 	call	0x1918	; 0x1918 <i2c_write>
    1578:	88 23       	and	r24, r24
    157a:	31 f0       	breq	.+12     	; 0x1588 <BMP180_I2C_bus_write+0x56>
		{
			errorWriteCircular( &err , _ERROR_BMP180_I2C_ , ERROR_I2C_BYTE_TX );	
    157c:	43 e0       	ldi	r20, 0x03	; 3
    157e:	63 e0       	ldi	r22, 0x03	; 3
    1580:	8e ea       	ldi	r24, 0xAE	; 174
    1582:	94 e0       	ldi	r25, 0x04	; 4
    1584:	0e 94 32 0a 	call	0x1464	; 0x1464 <errorWriteCircular>
	if ( i2c_write( reg_addr ) ) // Register Adresse
	{
		errorWriteCircular( &err , _ERROR_BMP180_I2C_ , ERROR_I2C_ADDRESS_TX );
	}
	
	for ( u8 i = 0 ; i < cnt ; i++ )
    1588:	c0 17       	cp	r28, r16
    158a:	d1 07       	cpc	r29, r17
    158c:	91 f7       	brne	.-28     	; 0x1572 <BMP180_I2C_bus_write+0x40>
		if ( i2c_write( reg_data[i] ) )
		{
			errorWriteCircular( &err , _ERROR_BMP180_I2C_ , ERROR_I2C_BYTE_TX );	
		}
	}
	i2c_stop();
    158e:	0e 94 a7 0c 	call	0x194e	; 0x194e <i2c_stop>
	
	return (s8)0;
}
    1592:	80 e0       	ldi	r24, 0x00	; 0
    1594:	df 91       	pop	r29
    1596:	cf 91       	pop	r28
    1598:	1f 91       	pop	r17
    159a:	0f 91       	pop	r16
    159c:	ff 90       	pop	r15
    159e:	ef 90       	pop	r14
    15a0:	08 95       	ret

000015a2 <BMP180_I2C_bus_read>:

s8 BMP180_I2C_bus_read(u8 dev_addr, u8 reg_addr, u8 *reg_data, u8 cnt)
{
    15a2:	df 92       	push	r13
    15a4:	ef 92       	push	r14
    15a6:	ff 92       	push	r15
    15a8:	0f 93       	push	r16
    15aa:	1f 93       	push	r17
    15ac:	cf 93       	push	r28
    15ae:	df 93       	push	r29
    15b0:	c8 2f       	mov	r28, r24
    15b2:	d6 2f       	mov	r29, r22
    15b4:	7a 01       	movw	r14, r20
    15b6:	d2 2e       	mov	r13, r18
	u8 i;
	
	i2c_start_wait( dev_addr + I2C_WRITE );
    15b8:	0e 94 83 0c 	call	0x1906	; 0x1906 <i2c_start_wait>
	
	if ( i2c_write( reg_addr ) ) // Register Adresse
    15bc:	8d 2f       	mov	r24, r29
    15be:	0e 94 8c 0c 	call	0x1918	; 0x1918 <i2c_write>
    15c2:	88 23       	and	r24, r24
    15c4:	31 f0       	breq	.+12     	; 0x15d2 <BMP180_I2C_bus_read+0x30>
	{
		errorWriteCircular( &err , _ERROR_BMP180_I2C_ , ERROR_I2C_ADDRESS_TX );		
    15c6:	42 e0       	ldi	r20, 0x02	; 2
    15c8:	63 e0       	ldi	r22, 0x03	; 3
    15ca:	8e ea       	ldi	r24, 0xAE	; 174
    15cc:	94 e0       	ldi	r25, 0x04	; 4
    15ce:	0e 94 32 0a 	call	0x1464	; 0x1464 <errorWriteCircular>
	}
	
	i2c_stop();
    15d2:	0e 94 a7 0c 	call	0x194e	; 0x194e <i2c_stop>
	
	if ( cnt == 1 )
    15d6:	81 e0       	ldi	r24, 0x01	; 1
    15d8:	d8 12       	cpse	r13, r24
    15da:	08 c0       	rjmp	.+16     	; 0x15ec <BMP180_I2C_bus_read+0x4a>
	{
		i2c_start_wait( dev_addr + I2C_READ );
    15dc:	8c 0f       	add	r24, r28
    15de:	0e 94 83 0c 	call	0x1906	; 0x1906 <i2c_start_wait>
		reg_data[0] = i2c_readNak();	
    15e2:	0e 94 a0 0c 	call	0x1940	; 0x1940 <i2c_readNak>
    15e6:	f7 01       	movw	r30, r14
    15e8:	80 83       	st	Z, r24
    15ea:	1b c0       	rjmp	.+54     	; 0x1622 <BMP180_I2C_bus_read+0x80>
	}
	else
	{
		i2c_start_wait( dev_addr + I2C_READ );
    15ec:	81 e0       	ldi	r24, 0x01	; 1
    15ee:	8c 0f       	add	r24, r28
    15f0:	0e 94 83 0c 	call	0x1906	; 0x1906 <i2c_start_wait>
		for ( i = 0 ; i < cnt ; i++ )
    15f4:	dd 20       	and	r13, r13
    15f6:	71 f0       	breq	.+28     	; 0x1614 <BMP180_I2C_bus_read+0x72>
    15f8:	e7 01       	movw	r28, r14
    15fa:	0f ef       	ldi	r16, 0xFF	; 255
    15fc:	0d 0d       	add	r16, r13
    15fe:	10 e0       	ldi	r17, 0x00	; 0
    1600:	0f 5f       	subi	r16, 0xFF	; 255
    1602:	1f 4f       	sbci	r17, 0xFF	; 255
    1604:	0e 0d       	add	r16, r14
    1606:	1f 1d       	adc	r17, r15
		{
			reg_data[i] = i2c_readAck();
    1608:	0e 94 99 0c 	call	0x1932	; 0x1932 <i2c_readAck>
    160c:	89 93       	st	Y+, r24
		reg_data[0] = i2c_readNak();	
	}
	else
	{
		i2c_start_wait( dev_addr + I2C_READ );
		for ( i = 0 ; i < cnt ; i++ )
    160e:	c0 17       	cp	r28, r16
    1610:	d1 07       	cpc	r29, r17
    1612:	d1 f7       	brne	.-12     	; 0x1608 <BMP180_I2C_bus_read+0x66>
		{
			reg_data[i] = i2c_readAck();
		}
		reg_data[++i] = i2c_readNak();			
    1614:	d3 94       	inc	r13
    1616:	e7 01       	movw	r28, r14
    1618:	cd 0d       	add	r28, r13
    161a:	d1 1d       	adc	r29, r1
    161c:	0e 94 a0 0c 	call	0x1940	; 0x1940 <i2c_readNak>
    1620:	88 83       	st	Y, r24
	}
	i2c_stop();
    1622:	0e 94 a7 0c 	call	0x194e	; 0x194e <i2c_stop>
			
	return (s8)0;
}
    1626:	80 e0       	ldi	r24, 0x00	; 0
    1628:	df 91       	pop	r29
    162a:	cf 91       	pop	r28
    162c:	1f 91       	pop	r17
    162e:	0f 91       	pop	r16
    1630:	ff 90       	pop	r15
    1632:	ef 90       	pop	r14
    1634:	df 90       	pop	r13
    1636:	08 95       	ret

00001638 <BMP180_delay_msek>:

void BMP180_delay_msek(u32 msek)
{
    1638:	ab 01       	movw	r20, r22
    163a:	bc 01       	movw	r22, r24
	for ( uint32_t i = 0 ; i < msek ; i++ )
    163c:	41 15       	cp	r20, r1
    163e:	51 05       	cpc	r21, r1
    1640:	61 05       	cpc	r22, r1
    1642:	71 05       	cpc	r23, r1
    1644:	89 f0       	breq	.+34     	; 0x1668 <BMP180_delay_msek+0x30>
    1646:	80 e0       	ldi	r24, 0x00	; 0
    1648:	90 e0       	ldi	r25, 0x00	; 0
    164a:	dc 01       	movw	r26, r24
	#else
		//round up by default
		__ticks_dc = (uint32_t)(ceil(fabs(__tmp)));
	#endif

	__builtin_avr_delay_cycles(__ticks_dc);
    164c:	ef ec       	ldi	r30, 0xCF	; 207
    164e:	f7 e0       	ldi	r31, 0x07	; 7
    1650:	31 97       	sbiw	r30, 0x01	; 1
    1652:	f1 f7       	brne	.-4      	; 0x1650 <BMP180_delay_msek+0x18>
    1654:	00 c0       	rjmp	.+0      	; 0x1656 <BMP180_delay_msek+0x1e>
    1656:	00 00       	nop
    1658:	01 96       	adiw	r24, 0x01	; 1
    165a:	a1 1d       	adc	r26, r1
    165c:	b1 1d       	adc	r27, r1
    165e:	48 17       	cp	r20, r24
    1660:	59 07       	cpc	r21, r25
    1662:	6a 07       	cpc	r22, r26
    1664:	7b 07       	cpc	r23, r27
    1666:	91 f7       	brne	.-28     	; 0x164c <BMP180_delay_msek+0x14>
    1668:	08 95       	ret

0000166a <I2C_routine>:
	}
}

s8 I2C_routine(void)
{
	bmp180.bus_write	= BMP180_I2C_bus_write;
    166a:	ee ec       	ldi	r30, 0xCE	; 206
    166c:	f4 e0       	ldi	r31, 0x04	; 4
    166e:	89 e9       	ldi	r24, 0x99	; 153
    1670:	9a e0       	ldi	r25, 0x0A	; 10
    1672:	91 a7       	std	Z+41, r25	; 0x29
    1674:	80 a7       	std	Z+40, r24	; 0x28
	bmp180.bus_read		= BMP180_I2C_bus_read;
    1676:	81 ed       	ldi	r24, 0xD1	; 209
    1678:	9a e0       	ldi	r25, 0x0A	; 10
    167a:	93 a7       	std	Z+43, r25	; 0x2b
    167c:	82 a7       	std	Z+42, r24	; 0x2a
	bmp180.dev_addr		= 0xEE;
    167e:	8e ee       	ldi	r24, 0xEE	; 238
    1680:	82 8f       	std	Z+26, r24	; 0x1a
	bmp180.delay_msec	= BMP180_delay_msek;
    1682:	8c e1       	ldi	r24, 0x1C	; 28
    1684:	9b e0       	ldi	r25, 0x0B	; 11
    1686:	95 a7       	std	Z+45, r25	; 0x2d
    1688:	84 a7       	std	Z+44, r24	; 0x2c

	return BMP180_INIT_VALUE;
}
    168a:	80 e0       	ldi	r24, 0x00	; 0
    168c:	08 95       	ret

0000168e <bmp180_get_calib_param>:
 *	@retval -1 -> Error
 *
 *
*/
BMP180_RETURN_FUNCTION_TYPE bmp180_get_calib_param(void)
{
    168e:	cf 93       	push	r28
    1690:	df 93       	push	r29
    1692:	cd b7       	in	r28, 0x3d	; 61
    1694:	de b7       	in	r29, 0x3e	; 62
    1696:	66 97       	sbiw	r28, 0x16	; 22
    1698:	0f b6       	in	r0, 0x3f	; 63
    169a:	f8 94       	cli
    169c:	de bf       	out	0x3e, r29	; 62
    169e:	0f be       	out	0x3f, r0	; 63
    16a0:	cd bf       	out	0x3d, r28	; 61
	/* used to return the bus communication results*/
	BMP180_RETURN_FUNCTION_TYPE v_com_rslt_s8 = E_BMP_COMM_RES;
	/* Array holding the calibration informations*/
	u8 a_data_u8r[BMP180_CALIB_DATA_SIZE] = {
    16a2:	ae 01       	movw	r20, r28
    16a4:	4f 5f       	subi	r20, 0xFF	; 255
    16a6:	5f 4f       	sbci	r21, 0xFF	; 255
    16a8:	86 e1       	ldi	r24, 0x16	; 22
    16aa:	fa 01       	movw	r30, r20
    16ac:	11 92       	st	Z+, r1
    16ae:	8a 95       	dec	r24
    16b0:	e9 f7       	brne	.-6      	; 0x16ac <bmp180_get_calib_param+0x1e>
	BMP180_INIT_VALUE, BMP180_INIT_VALUE,
	BMP180_INIT_VALUE, BMP180_INIT_VALUE,
	BMP180_INIT_VALUE, BMP180_INIT_VALUE,
	BMP180_INIT_VALUE, BMP180_INIT_VALUE};
	/* read calibration data*/
	v_com_rslt_s8 = p_bmp180->BMP180_BUS_READ_FUNC(
    16b2:	a0 91 8e 04 	lds	r26, 0x048E	; 0x80048e <__data_end>
    16b6:	b0 91 8f 04 	lds	r27, 0x048F	; 0x80048f <__data_end+0x1>
    16ba:	9a 96       	adiw	r26, 0x2a	; 42
    16bc:	ed 91       	ld	r30, X+
    16be:	fc 91       	ld	r31, X
    16c0:	9b 97       	sbiw	r26, 0x2b	; 43
    16c2:	26 e1       	ldi	r18, 0x16	; 22
    16c4:	6a ea       	ldi	r22, 0xAA	; 170
    16c6:	5a 96       	adiw	r26, 0x1a	; 26
    16c8:	8c 91       	ld	r24, X
    16ca:	09 95       	icall
	p_bmp180->dev_addr, BMP180_PROM_START__ADDR,
	a_data_u8r, BMP180_PROM_DATA__LEN);

	/*parameters AC1-AC6*/
	p_bmp180->calib_param.ac1 =
    16cc:	e0 91 8e 04 	lds	r30, 0x048E	; 0x80048e <__data_end>
    16d0:	f0 91 8f 04 	lds	r31, 0x048F	; 0x80048f <__data_end+0x1>
    16d4:	49 81       	ldd	r20, Y+1	; 0x01
    16d6:	04 2e       	mov	r0, r20
    16d8:	00 0c       	add	r0, r0
    16da:	55 0b       	sbc	r21, r21
    16dc:	66 0b       	sbc	r22, r22
    16de:	77 0b       	sbc	r23, r23
    16e0:	76 2f       	mov	r23, r22
    16e2:	65 2f       	mov	r22, r21
    16e4:	54 2f       	mov	r21, r20
    16e6:	44 27       	eor	r20, r20
    16e8:	2a 81       	ldd	r18, Y+2	; 0x02
    16ea:	30 e0       	ldi	r19, 0x00	; 0
    16ec:	42 2b       	or	r20, r18
    16ee:	53 2b       	or	r21, r19
    16f0:	51 83       	std	Z+1, r21	; 0x01
    16f2:	40 83       	st	Z, r20
	(s16)((((s32)((s8)a_data_u8r[BMP180_CALIB_PARAM_AC1_MSB]))
	<< BMP180_SHIFT_BIT_POSITION_BY_08_BITS)
	| a_data_u8r[BMP180_CALIB_PARAM_AC1_LSB]);
	p_bmp180->calib_param.ac2 =
    16f4:	4b 81       	ldd	r20, Y+3	; 0x03
    16f6:	04 2e       	mov	r0, r20
    16f8:	00 0c       	add	r0, r0
    16fa:	55 0b       	sbc	r21, r21
    16fc:	66 0b       	sbc	r22, r22
    16fe:	77 0b       	sbc	r23, r23
    1700:	76 2f       	mov	r23, r22
    1702:	65 2f       	mov	r22, r21
    1704:	54 2f       	mov	r21, r20
    1706:	44 27       	eor	r20, r20
    1708:	2c 81       	ldd	r18, Y+4	; 0x04
    170a:	30 e0       	ldi	r19, 0x00	; 0
    170c:	42 2b       	or	r20, r18
    170e:	53 2b       	or	r21, r19
    1710:	53 83       	std	Z+3, r21	; 0x03
    1712:	42 83       	std	Z+2, r20	; 0x02
	(s16)((((s32)((s8)a_data_u8r[BMP180_CALIB_PARAM_AC2_MSB]))
	<< BMP180_SHIFT_BIT_POSITION_BY_08_BITS)
	| a_data_u8r[BMP180_CALIB_PARAM_AC2_LSB]);
	p_bmp180->calib_param.ac3 =
    1714:	4d 81       	ldd	r20, Y+5	; 0x05
    1716:	04 2e       	mov	r0, r20
    1718:	00 0c       	add	r0, r0
    171a:	55 0b       	sbc	r21, r21
    171c:	66 0b       	sbc	r22, r22
    171e:	77 0b       	sbc	r23, r23
    1720:	76 2f       	mov	r23, r22
    1722:	65 2f       	mov	r22, r21
    1724:	54 2f       	mov	r21, r20
    1726:	44 27       	eor	r20, r20
    1728:	2e 81       	ldd	r18, Y+6	; 0x06
    172a:	30 e0       	ldi	r19, 0x00	; 0
    172c:	42 2b       	or	r20, r18
    172e:	53 2b       	or	r21, r19
    1730:	55 83       	std	Z+5, r21	; 0x05
    1732:	44 83       	std	Z+4, r20	; 0x04
	(s16)((((s32)((s8)a_data_u8r[BMP180_CALIB_PARAM_AC3_MSB]))
	<< BMP180_SHIFT_BIT_POSITION_BY_08_BITS)
	| a_data_u8r[BMP180_CALIB_PARAM_AC3_LSB]);
	p_bmp180->calib_param.ac4 =
    1734:	2f 81       	ldd	r18, Y+7	; 0x07
    1736:	30 e0       	ldi	r19, 0x00	; 0
    1738:	32 2f       	mov	r19, r18
    173a:	22 27       	eor	r18, r18
    173c:	98 85       	ldd	r25, Y+8	; 0x08
    173e:	29 2b       	or	r18, r25
    1740:	37 83       	std	Z+7, r19	; 0x07
    1742:	26 83       	std	Z+6, r18	; 0x06
	(u16)((((u32)((u8)a_data_u8r[BMP180_CALIB_PARAM_AC4_MSB]))
	<< BMP180_SHIFT_BIT_POSITION_BY_08_BITS)
	| a_data_u8r[BMP180_CALIB_PARAM_AC4_LSB]);
	p_bmp180->calib_param.ac5 =
    1744:	29 85       	ldd	r18, Y+9	; 0x09
    1746:	30 e0       	ldi	r19, 0x00	; 0
    1748:	32 2f       	mov	r19, r18
    174a:	22 27       	eor	r18, r18
    174c:	9a 85       	ldd	r25, Y+10	; 0x0a
    174e:	29 2b       	or	r18, r25
    1750:	31 87       	std	Z+9, r19	; 0x09
    1752:	20 87       	std	Z+8, r18	; 0x08
	(u16)((((u32)((u8)a_data_u8r[BMP180_CALIB_PARAM_AC5_MSB]))
	<< BMP180_SHIFT_BIT_POSITION_BY_08_BITS)
	| a_data_u8r[BMP180_CALIB_PARAM_AC5_LSB]);
	p_bmp180->calib_param.ac6 =
    1754:	2b 85       	ldd	r18, Y+11	; 0x0b
    1756:	30 e0       	ldi	r19, 0x00	; 0
    1758:	32 2f       	mov	r19, r18
    175a:	22 27       	eor	r18, r18
    175c:	9c 85       	ldd	r25, Y+12	; 0x0c
    175e:	29 2b       	or	r18, r25
    1760:	33 87       	std	Z+11, r19	; 0x0b
    1762:	22 87       	std	Z+10, r18	; 0x0a
	(u16)((((u32)((u8)a_data_u8r[BMP180_CALIB_PARAM_AC6_MSB]))
	<< BMP180_SHIFT_BIT_POSITION_BY_08_BITS)
	| a_data_u8r[BMP180_CALIB_PARAM_AC6_LSB]);

	/*parameters B1,B2*/
	p_bmp180->calib_param.b1 =
    1764:	4d 85       	ldd	r20, Y+13	; 0x0d
    1766:	04 2e       	mov	r0, r20
    1768:	00 0c       	add	r0, r0
    176a:	55 0b       	sbc	r21, r21
    176c:	66 0b       	sbc	r22, r22
    176e:	77 0b       	sbc	r23, r23
    1770:	76 2f       	mov	r23, r22
    1772:	65 2f       	mov	r22, r21
    1774:	54 2f       	mov	r21, r20
    1776:	44 27       	eor	r20, r20
    1778:	2e 85       	ldd	r18, Y+14	; 0x0e
    177a:	30 e0       	ldi	r19, 0x00	; 0
    177c:	42 2b       	or	r20, r18
    177e:	53 2b       	or	r21, r19
    1780:	55 87       	std	Z+13, r21	; 0x0d
    1782:	44 87       	std	Z+12, r20	; 0x0c
	(s16)((((s32)((s8)a_data_u8r[BMP180_CALIB_PARAM_B1_MSB]))
	<< BMP180_SHIFT_BIT_POSITION_BY_08_BITS) |
	a_data_u8r[BMP180_CALIB_PARAM_B1_LSB]);
	p_bmp180->calib_param.b2 =
    1784:	4f 85       	ldd	r20, Y+15	; 0x0f
    1786:	04 2e       	mov	r0, r20
    1788:	00 0c       	add	r0, r0
    178a:	55 0b       	sbc	r21, r21
    178c:	66 0b       	sbc	r22, r22
    178e:	77 0b       	sbc	r23, r23
    1790:	76 2f       	mov	r23, r22
    1792:	65 2f       	mov	r22, r21
    1794:	54 2f       	mov	r21, r20
    1796:	44 27       	eor	r20, r20
    1798:	28 89       	ldd	r18, Y+16	; 0x10
    179a:	30 e0       	ldi	r19, 0x00	; 0
    179c:	42 2b       	or	r20, r18
    179e:	53 2b       	or	r21, r19
    17a0:	57 87       	std	Z+15, r21	; 0x0f
    17a2:	46 87       	std	Z+14, r20	; 0x0e
	(s16)((((s32)((s8)a_data_u8r[BMP180_CALIB_PARAM_B2_MSB]))
	<< BMP180_SHIFT_BIT_POSITION_BY_08_BITS)
	| a_data_u8r[BMP180_CALIB_PARAM_B2_LSB]);

	/*parameters MB,MC,MD*/
	p_bmp180->calib_param.mb =
    17a4:	49 89       	ldd	r20, Y+17	; 0x11
    17a6:	04 2e       	mov	r0, r20
    17a8:	00 0c       	add	r0, r0
    17aa:	55 0b       	sbc	r21, r21
    17ac:	66 0b       	sbc	r22, r22
    17ae:	77 0b       	sbc	r23, r23
    17b0:	76 2f       	mov	r23, r22
    17b2:	65 2f       	mov	r22, r21
    17b4:	54 2f       	mov	r21, r20
    17b6:	44 27       	eor	r20, r20
    17b8:	2a 89       	ldd	r18, Y+18	; 0x12
    17ba:	30 e0       	ldi	r19, 0x00	; 0
    17bc:	42 2b       	or	r20, r18
    17be:	53 2b       	or	r21, r19
    17c0:	51 8b       	std	Z+17, r21	; 0x11
    17c2:	40 8b       	std	Z+16, r20	; 0x10
	(s16)((((s32)((s8)a_data_u8r[BMP180_CALIB_PARAM_MB_MSB]))
	<< BMP180_SHIFT_BIT_POSITION_BY_08_BITS)
	| a_data_u8r[BMP180_CALIB_PARAM_MB_LSB]);
	p_bmp180->calib_param.mc =
    17c4:	4b 89       	ldd	r20, Y+19	; 0x13
    17c6:	04 2e       	mov	r0, r20
    17c8:	00 0c       	add	r0, r0
    17ca:	55 0b       	sbc	r21, r21
    17cc:	66 0b       	sbc	r22, r22
    17ce:	77 0b       	sbc	r23, r23
    17d0:	76 2f       	mov	r23, r22
    17d2:	65 2f       	mov	r22, r21
    17d4:	54 2f       	mov	r21, r20
    17d6:	44 27       	eor	r20, r20
    17d8:	2c 89       	ldd	r18, Y+20	; 0x14
    17da:	30 e0       	ldi	r19, 0x00	; 0
    17dc:	42 2b       	or	r20, r18
    17de:	53 2b       	or	r21, r19
    17e0:	53 8b       	std	Z+19, r21	; 0x13
    17e2:	42 8b       	std	Z+18, r20	; 0x12
	(s16)((((s32)((s8)a_data_u8r[BMP180_CALIB_PARAM_MC_MSB]))
	<< BMP180_SHIFT_BIT_POSITION_BY_08_BITS)
	| a_data_u8r[BMP180_CALIB_PARAM_MC_LSB]);
	p_bmp180->calib_param.md =
    17e4:	4d 89       	ldd	r20, Y+21	; 0x15
    17e6:	04 2e       	mov	r0, r20
    17e8:	00 0c       	add	r0, r0
    17ea:	55 0b       	sbc	r21, r21
    17ec:	66 0b       	sbc	r22, r22
    17ee:	77 0b       	sbc	r23, r23
    17f0:	76 2f       	mov	r23, r22
    17f2:	65 2f       	mov	r22, r21
    17f4:	54 2f       	mov	r21, r20
    17f6:	44 27       	eor	r20, r20
    17f8:	2e 89       	ldd	r18, Y+22	; 0x16
    17fa:	30 e0       	ldi	r19, 0x00	; 0
    17fc:	42 2b       	or	r20, r18
    17fe:	53 2b       	or	r21, r19
    1800:	55 8b       	std	Z+21, r21	; 0x15
    1802:	44 8b       	std	Z+20, r20	; 0x14
	(s16)((((s32)((s8)a_data_u8r[BMP180_CALIB_PARAM_MD_MSB]))
	<< BMP180_SHIFT_BIT_POSITION_BY_08_BITS)
	| a_data_u8r[BMP180_CALIB_PARAM_MD_LSB]);
	return v_com_rslt_s8;
}
    1804:	66 96       	adiw	r28, 0x16	; 22
    1806:	0f b6       	in	r0, 0x3f	; 63
    1808:	f8 94       	cli
    180a:	de bf       	out	0x3e, r29	; 62
    180c:	0f be       	out	0x3f, r0	; 63
    180e:	cd bf       	out	0x3d, r28	; 61
    1810:	df 91       	pop	r29
    1812:	cf 91       	pop	r28
    1814:	08 95       	ret

00001816 <bmp180_init>:
 *	@retval -1 -> Error
 *
 *
*/
BMP180_RETURN_FUNCTION_TYPE bmp180_init(struct bmp180_t *bmp180)
{
    1816:	0f 93       	push	r16
    1818:	1f 93       	push	r17
    181a:	cf 93       	push	r28
    181c:	df 93       	push	r29
    181e:	1f 92       	push	r1
    1820:	cd b7       	in	r28, 0x3d	; 61
    1822:	de b7       	in	r29, 0x3e	; 62
    1824:	8c 01       	movw	r16, r24
	I2C_routine();
    1826:	0e 94 35 0b 	call	0x166a	; 0x166a <I2C_routine>
	
	/* used to return the bus communication results*/
	BMP180_RETURN_FUNCTION_TYPE v_com_rslt_s8 = E_BMP_COMM_RES;
	u8 v_data_u8 = BMP180_INIT_VALUE;
    182a:	19 82       	std	Y+1, r1	; 0x01
	/* assign BMP180 ptr */
	p_bmp180 = bmp180;
    182c:	10 93 8f 04 	sts	0x048F, r17	; 0x80048f <__data_end+0x1>
    1830:	00 93 8e 04 	sts	0x048E, r16	; 0x80048e <__data_end>
	/* read Chip Id */
	v_com_rslt_s8 = p_bmp180->BMP180_BUS_READ_FUNC(
    1834:	d8 01       	movw	r26, r16
    1836:	9a 96       	adiw	r26, 0x2a	; 42
    1838:	ed 91       	ld	r30, X+
    183a:	fc 91       	ld	r31, X
    183c:	9b 97       	sbiw	r26, 0x2b	; 43
    183e:	21 e0       	ldi	r18, 0x01	; 1
    1840:	ae 01       	movw	r20, r28
    1842:	4f 5f       	subi	r20, 0xFF	; 255
    1844:	5f 4f       	sbci	r21, 0xFF	; 255
    1846:	60 ed       	ldi	r22, 0xD0	; 208
    1848:	5a 96       	adiw	r26, 0x1a	; 26
    184a:	8c 91       	ld	r24, X
    184c:	09 95       	icall
    184e:	18 2f       	mov	r17, r24
	p_bmp180->dev_addr, BMP180_CHIP_ID__REG,
	&v_data_u8, BMP180_GEN_READ_WRITE_DATA_LENGTH);
	
	p_bmp180->chip_id = BMP180_GET_BITSLICE(v_data_u8, BMP180_CHIP_ID);
    1850:	a0 91 8e 04 	lds	r26, 0x048E	; 0x80048e <__data_end>
    1854:	b0 91 8f 04 	lds	r27, 0x048F	; 0x80048f <__data_end+0x1>
    1858:	89 81       	ldd	r24, Y+1	; 0x01
    185a:	57 96       	adiw	r26, 0x17	; 23
    185c:	8c 93       	st	X, r24
    185e:	57 97       	sbiw	r26, 0x17	; 23
	p_bmp180->number_of_samples = BMP180_INITIALIZE_NUMBER_OF_SAMPLES_U8X;
    1860:	41 e0       	ldi	r20, 0x01	; 1
    1862:	50 e0       	ldi	r21, 0x00	; 0
    1864:	60 e0       	ldi	r22, 0x00	; 0
    1866:	70 e0       	ldi	r23, 0x00	; 0
    1868:	90 96       	adiw	r26, 0x20	; 32
    186a:	4d 93       	st	X+, r20
    186c:	5d 93       	st	X+, r21
    186e:	6d 93       	st	X+, r22
    1870:	7c 93       	st	X, r23
    1872:	93 97       	sbiw	r26, 0x23	; 35
	p_bmp180->oversamp_setting = BMP180_INITIALIZE_OVERSAMP_SETTING_U8X;
    1874:	95 96       	adiw	r26, 0x25	; 37
    1876:	1c 92       	st	X, r1
    1878:	1e 92       	st	-X, r1
    187a:	94 97       	sbiw	r26, 0x24	; 36
	p_bmp180->sw_oversamp = BMP180_INITIALIZE_SW_OVERSAMP_U8X;
    187c:	97 96       	adiw	r26, 0x27	; 39
    187e:	1c 92       	st	X, r1
    1880:	1e 92       	st	-X, r1
    1882:	96 97       	sbiw	r26, 0x26	; 38
	v_com_rslt_s8 += p_bmp180->BMP180_BUS_READ_FUNC(
    1884:	9a 96       	adiw	r26, 0x2a	; 42
    1886:	ed 91       	ld	r30, X+
    1888:	fc 91       	ld	r31, X
    188a:	9b 97       	sbiw	r26, 0x2b	; 43
    188c:	21 e0       	ldi	r18, 0x01	; 1
    188e:	ae 01       	movw	r20, r28
    1890:	4f 5f       	subi	r20, 0xFF	; 255
    1892:	5f 4f       	sbci	r21, 0xFF	; 255
    1894:	61 ed       	ldi	r22, 0xD1	; 209
    1896:	5a 96       	adiw	r26, 0x1a	; 26
    1898:	8c 91       	ld	r24, X
    189a:	09 95       	icall
    189c:	18 0f       	add	r17, r24
	p_bmp180->dev_addr, BMP180_VERSION_REG,
	&v_data_u8, BMP180_GEN_READ_WRITE_DATA_LENGTH);
	/* read Version reg */

	p_bmp180->ml_version = BMP180_GET_BITSLICE(
    189e:	e0 91 8e 04 	lds	r30, 0x048E	; 0x80048e <__data_end>
    18a2:	f0 91 8f 04 	lds	r31, 0x048F	; 0x80048f <__data_end+0x1>
    18a6:	99 81       	ldd	r25, Y+1	; 0x01
    18a8:	89 2f       	mov	r24, r25
    18aa:	8f 70       	andi	r24, 0x0F	; 15
    18ac:	80 8f       	std	Z+24, r24	; 0x18
	v_data_u8, BMP180_ML_VERSION);/* get ML Version */
	p_bmp180->al_version = BMP180_GET_BITSLICE(
    18ae:	92 95       	swap	r25
    18b0:	9f 70       	andi	r25, 0x0F	; 15
    18b2:	91 8f       	std	Z+25, r25	; 0x19
	v_data_u8, BMP180_AL_VERSION); /* get AL Version */
	v_com_rslt_s8 += bmp180_get_calib_param();
    18b4:	0e 94 47 0b 	call	0x168e	; 0x168e <bmp180_get_calib_param>

	return v_com_rslt_s8;
}
    18b8:	81 0f       	add	r24, r17
    18ba:	0f 90       	pop	r0
    18bc:	df 91       	pop	r29
    18be:	cf 91       	pop	r28
    18c0:	1f 91       	pop	r17
    18c2:	0f 91       	pop	r16
    18c4:	08 95       	ret

000018c6 <i2c_init>:
}

uint8_t i2c_rep_start(uint8_t address)
{
	return ( i2c_start( address ) );
}
    18c6:	82 e0       	ldi	r24, 0x02	; 2
    18c8:	80 b9       	out	0x00, r24	; 0
    18ca:	08 95       	ret

000018cc <i2c_start>:
    18cc:	16 be       	out	0x36, r1	; 54
    18ce:	94 ea       	ldi	r25, 0xA4	; 164
    18d0:	96 bf       	out	0x36, r25	; 54
    18d2:	06 b6       	in	r0, 0x36	; 54
    18d4:	07 fe       	sbrs	r0, 7
    18d6:	fd cf       	rjmp	.-6      	; 0x18d2 <i2c_start+0x6>
    18d8:	91 b1       	in	r25, 0x01	; 1
    18da:	98 7f       	andi	r25, 0xF8	; 248
    18dc:	98 30       	cpi	r25, 0x08	; 8
    18de:	79 f4       	brne	.+30     	; 0x18fe <i2c_start+0x32>
    18e0:	83 b9       	out	0x03, r24	; 3
    18e2:	84 e8       	ldi	r24, 0x84	; 132
    18e4:	86 bf       	out	0x36, r24	; 54
    18e6:	06 b6       	in	r0, 0x36	; 54
    18e8:	07 fe       	sbrs	r0, 7
    18ea:	fd cf       	rjmp	.-6      	; 0x18e6 <i2c_start+0x1a>
    18ec:	91 b1       	in	r25, 0x01	; 1
    18ee:	98 7f       	andi	r25, 0xF8	; 248
    18f0:	98 31       	cpi	r25, 0x18	; 24
    18f2:	39 f0       	breq	.+14     	; 0x1902 <i2c_start+0x36>
    18f4:	81 e0       	ldi	r24, 0x01	; 1
    18f6:	90 34       	cpi	r25, 0x40	; 64
    18f8:	29 f4       	brne	.+10     	; 0x1904 <i2c_start+0x38>
    18fa:	80 e0       	ldi	r24, 0x00	; 0
    18fc:	08 95       	ret
    18fe:	81 e0       	ldi	r24, 0x01	; 1
    1900:	08 95       	ret
    1902:	80 e0       	ldi	r24, 0x00	; 0
    1904:	08 95       	ret

00001906 <i2c_start_wait>:
    1906:	cf 93       	push	r28
    1908:	c8 2f       	mov	r28, r24
    190a:	8c 2f       	mov	r24, r28
    190c:	0e 94 66 0c 	call	0x18cc	; 0x18cc <i2c_start>
    1910:	81 11       	cpse	r24, r1
    1912:	fb cf       	rjmp	.-10     	; 0x190a <i2c_start_wait+0x4>
    1914:	cf 91       	pop	r28
    1916:	08 95       	ret

00001918 <i2c_write>:

uint8_t i2c_write(uint8_t data)
{
 	// load data into data register
 	TWDR = data;
    1918:	83 b9       	out	0x03, r24	; 3
 	// start transmission of data
 	TWCR = (1<<TWINT) | (1<<TWEN);
    191a:	84 e8       	ldi	r24, 0x84	; 132
    191c:	86 bf       	out	0x36, r24	; 54
 	// wait for end of transmission
 	while( !(TWCR & (1<<TWINT)) );
    191e:	06 b6       	in	r0, 0x36	; 54
    1920:	07 fe       	sbrs	r0, 7
    1922:	fd cf       	rjmp	.-6      	; 0x191e <i2c_write+0x6>

 	if( (TWSR & 0xF8) != TW_MT_DATA_ACK ){ return 1; }
    1924:	91 b1       	in	r25, 0x01	; 1
    1926:	98 7f       	andi	r25, 0xF8	; 248
    1928:	81 e0       	ldi	r24, 0x01	; 1
    192a:	98 32       	cpi	r25, 0x28	; 40
    192c:	09 f4       	brne	.+2      	; 0x1930 <i2c_write+0x18>
    192e:	80 e0       	ldi	r24, 0x00	; 0

 	return 0;
}
    1930:	08 95       	ret

00001932 <i2c_readAck>:

uint8_t i2c_readAck(void)
{

 	// start TWI module and acknowledge data after reception
 	TWCR = (1<<TWINT) | (1<<TWEN) | (1<<TWEA);
    1932:	84 ec       	ldi	r24, 0xC4	; 196
    1934:	86 bf       	out	0x36, r24	; 54
 	// wait for end of transmission
 	while( !(TWCR & (1<<TWINT)) );
    1936:	06 b6       	in	r0, 0x36	; 54
    1938:	07 fe       	sbrs	r0, 7
    193a:	fd cf       	rjmp	.-6      	; 0x1936 <i2c_readAck+0x4>
 	// return received data from TWDR
 	return TWDR;
    193c:	83 b1       	in	r24, 0x03	; 3
}
    193e:	08 95       	ret

00001940 <i2c_readNak>:

uint8_t i2c_readNak(void)
{
	// start receiving without acknowledging reception
	TWCR = (1<<TWINT) | (1<<TWEN);
    1940:	84 e8       	ldi	r24, 0x84	; 132
    1942:	86 bf       	out	0x36, r24	; 54
	// wait for end of transmission
	while( !(TWCR & (1<<TWINT)) );
    1944:	06 b6       	in	r0, 0x36	; 54
    1946:	07 fe       	sbrs	r0, 7
    1948:	fd cf       	rjmp	.-6      	; 0x1944 <i2c_readNak+0x4>
	// return received data from TWDR
	return TWDR;
    194a:	83 b1       	in	r24, 0x03	; 3
}
    194c:	08 95       	ret

0000194e <i2c_stop>:

void i2c_stop(void)
{
	// transmit STOP condition
	TWCR = (1<<TWINT) | (1<<TWEN) | (1<<TWSTO);
    194e:	84 e9       	ldi	r24, 0x94	; 148
    1950:	86 bf       	out	0x36, r24	; 54
    1952:	08 95       	ret

00001954 <Ssd1306Write>:
void _ClearFont( Font_t *ptrFnt )
{
	ptrFnt->uiHeight = 0;
	ptrFnt->uiHeightInBytes = 0;
	ptrFnt->uiIndex = 0;
	ptrFnt->uiWidht = 0;
    1954:	bf 92       	push	r11
    1956:	cf 92       	push	r12
    1958:	df 92       	push	r13
    195a:	ef 92       	push	r14
    195c:	ff 92       	push	r15
    195e:	0f 93       	push	r16
    1960:	1f 93       	push	r17
    1962:	cf 93       	push	r28
    1964:	df 93       	push	r29
    1966:	ec 01       	movw	r28, r24
    1968:	7b 01       	movw	r14, r22
    196a:	f8 94       	cli
    196c:	88 e7       	ldi	r24, 0x78	; 120
    196e:	0e 94 66 0c 	call	0x18cc	; 0x18cc <i2c_start>
    1972:	b8 2e       	mov	r11, r24
    1974:	81 11       	cpse	r24, r1
    1976:	09 c0       	rjmp	.+18     	; 0x198a <Ssd1306Write+0x36>
    1978:	e1 14       	cp	r14, r1
    197a:	f1 04       	cpc	r15, r1
    197c:	09 f4       	brne	.+2      	; 0x1980 <Ssd1306Write+0x2c>
    197e:	4e c0       	rjmp	.+156    	; 0x1a1c <Ssd1306Write+0xc8>
    1980:	81 e0       	ldi	r24, 0x01	; 1
    1982:	e8 16       	cp	r14, r24
    1984:	f1 04       	cpc	r15, r1
    1986:	49 f5       	brne	.+82     	; 0x19da <Ssd1306Write+0x86>
    1988:	10 c0       	rjmp	.+32     	; 0x19aa <Ssd1306Write+0x56>
    198a:	80 91 9a 04 	lds	r24, 0x049A	; 0x80049a <ssd1306Error>
    198e:	81 60       	ori	r24, 0x01	; 1
    1990:	80 93 9a 04 	sts	0x049A, r24	; 0x80049a <ssd1306Error>
    1994:	ec ef       	ldi	r30, 0xFC	; 252
    1996:	f4 e0       	ldi	r31, 0x04	; 4
    1998:	80 81       	ld	r24, Z
    199a:	8f 5f       	subi	r24, 0xFF	; 255
    199c:	80 83       	st	Z, r24
    199e:	0e 94 a7 0c 	call	0x194e	; 0x194e <i2c_stop>
    19a2:	78 94       	sei
    19a4:	bb 24       	eor	r11, r11
    19a6:	b3 94       	inc	r11
    19a8:	41 c0       	rjmp	.+130    	; 0x1a2c <Ssd1306Write+0xd8>
    19aa:	88 81       	ld	r24, Y
    19ac:	0e 94 8c 0c 	call	0x1918	; 0x1918 <i2c_write>
    19b0:	81 11       	cpse	r24, r1
    19b2:	03 c0       	rjmp	.+6      	; 0x19ba <Ssd1306Write+0x66>
    19b4:	10 92 99 04 	sts	0x0499, r1	; 0x800499 <errTmp>
    19b8:	0c c0       	rjmp	.+24     	; 0x19d2 <Ssd1306Write+0x7e>
    19ba:	10 92 99 04 	sts	0x0499, r1	; 0x800499 <errTmp>
    19be:	80 91 9a 04 	lds	r24, 0x049A	; 0x80049a <ssd1306Error>
    19c2:	88 60       	ori	r24, 0x08	; 8
    19c4:	80 93 9a 04 	sts	0x049A, r24	; 0x80049a <ssd1306Error>
    19c8:	ec ef       	ldi	r30, 0xFC	; 252
    19ca:	f4 e0       	ldi	r31, 0x04	; 4
    19cc:	83 81       	ldd	r24, Z+3	; 0x03
    19ce:	8f 5f       	subi	r24, 0xFF	; 255
    19d0:	83 83       	std	Z+3, r24	; 0x03
    19d2:	0e 94 a7 0c 	call	0x194e	; 0x194e <i2c_stop>
    19d6:	78 94       	sei
    19d8:	29 c0       	rjmp	.+82     	; 0x1a2c <Ssd1306Write+0xd8>
    19da:	8e 01       	movw	r16, r28
    19dc:	c0 e0       	ldi	r28, 0x00	; 0
    19de:	d0 e0       	ldi	r29, 0x00	; 0
    19e0:	0f 2e       	mov	r0, r31
    19e2:	fc ef       	ldi	r31, 0xFC	; 252
    19e4:	cf 2e       	mov	r12, r31
    19e6:	f4 e0       	ldi	r31, 0x04	; 4
    19e8:	df 2e       	mov	r13, r31
    19ea:	f0 2d       	mov	r31, r0
    19ec:	21 96       	adiw	r28, 0x01	; 1
    19ee:	f8 01       	movw	r30, r16
    19f0:	81 91       	ld	r24, Z+
    19f2:	8f 01       	movw	r16, r30
    19f4:	0e 94 8c 0c 	call	0x1918	; 0x1918 <i2c_write>
    19f8:	80 93 99 04 	sts	0x0499, r24	; 0x800499 <errTmp>
    19fc:	88 23       	and	r24, r24
    19fe:	91 f0       	breq	.+36     	; 0x1a24 <Ssd1306Write+0xd0>
    1a00:	10 92 99 04 	sts	0x0499, r1	; 0x800499 <errTmp>
    1a04:	80 91 9a 04 	lds	r24, 0x049A	; 0x80049a <ssd1306Error>
    1a08:	88 60       	ori	r24, 0x08	; 8
    1a0a:	80 93 9a 04 	sts	0x049A, r24	; 0x80049a <ssd1306Error>
    1a0e:	f6 01       	movw	r30, r12
    1a10:	83 81       	ldd	r24, Z+3	; 0x03
    1a12:	8f 5f       	subi	r24, 0xFF	; 255
    1a14:	83 83       	std	Z+3, r24	; 0x03
    1a16:	ce 15       	cp	r28, r14
    1a18:	df 05       	cpc	r29, r15
    1a1a:	40 f3       	brcs	.-48     	; 0x19ec <Ssd1306Write+0x98>
    1a1c:	0e 94 a7 0c 	call	0x194e	; 0x194e <i2c_stop>
    1a20:	78 94       	sei
    1a22:	04 c0       	rjmp	.+8      	; 0x1a2c <Ssd1306Write+0xd8>
    1a24:	ce 15       	cp	r28, r14
    1a26:	df 05       	cpc	r29, r15
    1a28:	08 f3       	brcs	.-62     	; 0x19ec <Ssd1306Write+0x98>
    1a2a:	f8 cf       	rjmp	.-16     	; 0x1a1c <Ssd1306Write+0xc8>
    1a2c:	8b 2d       	mov	r24, r11
    1a2e:	df 91       	pop	r29
    1a30:	cf 91       	pop	r28
    1a32:	1f 91       	pop	r17
    1a34:	0f 91       	pop	r16
    1a36:	ff 90       	pop	r15
    1a38:	ef 90       	pop	r14
    1a3a:	df 90       	pop	r13
    1a3c:	cf 90       	pop	r12
    1a3e:	bf 90       	pop	r11
    1a40:	08 95       	ret

00001a42 <Ssd1306SendCmd>:
    1a42:	eb e9       	ldi	r30, 0x9B	; 155
    1a44:	f4 e0       	ldi	r31, 0x04	; 4
    1a46:	10 82       	st	Z, r1
    1a48:	81 83       	std	Z+1, r24	; 0x01
    1a4a:	62 e0       	ldi	r22, 0x02	; 2
    1a4c:	70 e0       	ldi	r23, 0x00	; 0
    1a4e:	cf 01       	movw	r24, r30
    1a50:	0e 94 aa 0c 	call	0x1954	; 0x1954 <Ssd1306Write>
    1a54:	08 95       	ret

00001a56 <Ssd1306SetFont>:
    1a56:	90 93 91 04 	sts	0x0491, r25	; 0x800491 <_ptrFont+0x1>
    1a5a:	80 93 90 04 	sts	0x0490, r24	; 0x800490 <_ptrFont>
    1a5e:	08 95       	ret

00001a60 <GetFont>:
    1a60:	1f 93       	push	r17
    1a62:	cf 93       	push	r28
    1a64:	df 93       	push	r29
    1a66:	db 01       	movw	r26, r22
    1a68:	13 96       	adiw	r26, 0x03	; 3
    1a6a:	1c 92       	st	X, r1
    1a6c:	1e 92       	st	-X, r1
    1a6e:	12 97       	sbiw	r26, 0x02	; 2
    1a70:	40 91 90 04 	lds	r20, 0x0490	; 0x800490 <_ptrFont>
    1a74:	50 91 91 04 	lds	r21, 0x0491	; 0x800491 <_ptrFont+0x1>
    1a78:	9a 01       	movw	r18, r20
    1a7a:	2d 5f       	subi	r18, 0xFD	; 253
    1a7c:	3f 4f       	sbci	r19, 0xFF	; 255
    1a7e:	f9 01       	movw	r30, r18
    1a80:	24 91       	lpm	r18, Z
    1a82:	30 e0       	ldi	r19, 0x00	; 0
    1a84:	15 96       	adiw	r26, 0x05	; 5
    1a86:	3c 93       	st	X, r19
    1a88:	2e 93       	st	-X, r18
    1a8a:	14 97       	sbiw	r26, 0x04	; 4
    1a8c:	c0 91 96 04 	lds	r28, 0x0496	; 0x800496 <Font+0x4>
    1a90:	d0 91 97 04 	lds	r29, 0x0497	; 0x800497 <Font+0x5>
    1a94:	27 96       	adiw	r28, 0x07	; 7
    1a96:	d6 95       	lsr	r29
    1a98:	c7 95       	ror	r28
    1a9a:	d6 95       	lsr	r29
    1a9c:	c7 95       	ror	r28
    1a9e:	d6 95       	lsr	r29
    1aa0:	c7 95       	ror	r28
    1aa2:	16 96       	adiw	r26, 0x06	; 6
    1aa4:	cc 93       	st	X, r28
    1aa6:	16 97       	sbiw	r26, 0x06	; 6
    1aa8:	9a 01       	movw	r18, r20
    1aaa:	2c 5f       	subi	r18, 0xFC	; 252
    1aac:	3f 4f       	sbci	r19, 0xFF	; 255
    1aae:	f9 01       	movw	r30, r18
    1ab0:	94 91       	lpm	r25, Z
    1ab2:	89 1b       	sub	r24, r25
    1ab4:	fa 01       	movw	r30, r20
    1ab6:	94 91       	lpm	r25, Z
    1ab8:	99 23       	and	r25, r25
    1aba:	31 f0       	breq	.+12     	; 0x1ac8 <GetFont+0x68>
    1abc:	fa 01       	movw	r30, r20
    1abe:	35 96       	adiw	r30, 0x05	; 5
    1ac0:	14 91       	lpm	r17, Z
    1ac2:	81 11       	cpse	r24, r1
    1ac4:	1d c0       	rjmp	.+58     	; 0x1b00 <GetFont+0xa0>
    1ac6:	37 c0       	rjmp	.+110    	; 0x1b36 <GetFont+0xd6>
    1ac8:	9a 01       	movw	r18, r20
    1aca:	2f 5f       	subi	r18, 0xFF	; 255
    1acc:	3f 4f       	sbci	r19, 0xFF	; 255
    1ace:	f9 01       	movw	r30, r18
    1ad0:	94 91       	lpm	r25, Z
    1ad2:	91 11       	cpse	r25, r1
    1ad4:	f3 cf       	rjmp	.-26     	; 0x1abc <GetFont+0x5c>
    1ad6:	31 96       	adiw	r30, 0x01	; 1
    1ad8:	24 91       	lpm	r18, Z
    1ada:	30 e0       	ldi	r19, 0x00	; 0
    1adc:	13 96       	adiw	r26, 0x03	; 3
    1ade:	3c 93       	st	X, r19
    1ae0:	2e 93       	st	-X, r18
    1ae2:	12 97       	sbiw	r26, 0x02	; 2
    1ae4:	c8 9f       	mul	r28, r24
    1ae6:	e0 01       	movw	r28, r0
    1ae8:	11 24       	eor	r1, r1
    1aea:	c2 9f       	mul	r28, r18
    1aec:	c0 01       	movw	r24, r0
    1aee:	c3 9f       	mul	r28, r19
    1af0:	90 0d       	add	r25, r0
    1af2:	d2 9f       	mul	r29, r18
    1af4:	90 0d       	add	r25, r0
    1af6:	11 24       	eor	r1, r1
    1af8:	06 96       	adiw	r24, 0x06	; 6
    1afa:	8d 93       	st	X+, r24
    1afc:	9c 93       	st	X, r25
    1afe:	39 c0       	rjmp	.+114    	; 0x1b72 <GetFont+0x112>
    1b00:	6f ef       	ldi	r22, 0xFF	; 255
    1b02:	68 0f       	add	r22, r24
    1b04:	70 e0       	ldi	r23, 0x00	; 0
    1b06:	69 5f       	subi	r22, 0xF9	; 249
    1b08:	7f 4f       	sbci	r23, 0xFF	; 255
    1b0a:	26 e0       	ldi	r18, 0x06	; 6
    1b0c:	30 e0       	ldi	r19, 0x00	; 0
    1b0e:	e0 91 90 04 	lds	r30, 0x0490	; 0x800490 <_ptrFont>
    1b12:	f0 91 91 04 	lds	r31, 0x0491	; 0x800491 <_ptrFont+0x1>
    1b16:	e2 0f       	add	r30, r18
    1b18:	f3 1f       	adc	r31, r19
    1b1a:	94 91       	lpm	r25, Z
    1b1c:	4d 91       	ld	r20, X+
    1b1e:	5c 91       	ld	r21, X
    1b20:	11 97       	sbiw	r26, 0x01	; 1
    1b22:	49 0f       	add	r20, r25
    1b24:	51 1d       	adc	r21, r1
    1b26:	11 96       	adiw	r26, 0x01	; 1
    1b28:	5c 93       	st	X, r21
    1b2a:	4e 93       	st	-X, r20
    1b2c:	2f 5f       	subi	r18, 0xFF	; 255
    1b2e:	3f 4f       	sbci	r19, 0xFF	; 255
    1b30:	62 17       	cp	r22, r18
    1b32:	73 07       	cpc	r23, r19
    1b34:	61 f7       	brne	.-40     	; 0x1b0e <GetFont+0xae>
    1b36:	2d 91       	ld	r18, X+
    1b38:	3c 91       	ld	r19, X
    1b3a:	11 97       	sbiw	r26, 0x01	; 1
    1b3c:	c2 9f       	mul	r28, r18
    1b3e:	a0 01       	movw	r20, r0
    1b40:	c3 9f       	mul	r28, r19
    1b42:	50 0d       	add	r21, r0
    1b44:	11 24       	eor	r1, r1
    1b46:	21 2f       	mov	r18, r17
    1b48:	30 e0       	ldi	r19, 0x00	; 0
    1b4a:	2a 5f       	subi	r18, 0xFA	; 250
    1b4c:	3f 4f       	sbci	r19, 0xFF	; 255
    1b4e:	24 0f       	add	r18, r20
    1b50:	35 1f       	adc	r19, r21
    1b52:	11 96       	adiw	r26, 0x01	; 1
    1b54:	3c 93       	st	X, r19
    1b56:	2e 93       	st	-X, r18
    1b58:	e0 91 90 04 	lds	r30, 0x0490	; 0x800490 <_ptrFont>
    1b5c:	f0 91 91 04 	lds	r31, 0x0491	; 0x800491 <_ptrFont+0x1>
    1b60:	e8 0f       	add	r30, r24
    1b62:	f1 1d       	adc	r31, r1
    1b64:	36 96       	adiw	r30, 0x06	; 6
    1b66:	84 91       	lpm	r24, Z
    1b68:	90 e0       	ldi	r25, 0x00	; 0
    1b6a:	13 96       	adiw	r26, 0x03	; 3
    1b6c:	9c 93       	st	X, r25
    1b6e:	8e 93       	st	-X, r24
    1b70:	12 97       	sbiw	r26, 0x02	; 2
    1b72:	df 91       	pop	r29
    1b74:	cf 91       	pop	r28
    1b76:	1f 91       	pop	r17
    1b78:	08 95       	ret

00001b7a <Ssd1306ClearScreen>:
    1b7a:	80 e0       	ldi	r24, 0x00	; 0
    1b7c:	94 e0       	ldi	r25, 0x04	; 4
    1b7e:	e0 e6       	ldi	r30, 0x60	; 96
    1b80:	f0 e0       	ldi	r31, 0x00	; 0
    1b82:	df 01       	movw	r26, r30
    1b84:	9c 01       	movw	r18, r24
    1b86:	1d 92       	st	X+, r1
    1b88:	21 50       	subi	r18, 0x01	; 1
    1b8a:	30 40       	sbci	r19, 0x00	; 0
    1b8c:	e1 f7       	brne	.-8      	; 0x1b86 <Ssd1306ClearScreen+0xc>
    1b8e:	08 95       	ret

00001b90 <Ssd1306Init>:
    1b90:	0f 93       	push	r16
    1b92:	1f 93       	push	r17
    1b94:	cf 93       	push	r28
    1b96:	df 93       	push	r29
    1b98:	c2 e7       	ldi	r28, 0x72	; 114
    1b9a:	d4 e0       	ldi	r29, 0x04	; 4
    1b9c:	0e e8       	ldi	r16, 0x8E	; 142
    1b9e:	14 e0       	ldi	r17, 0x04	; 4
    1ba0:	89 91       	ld	r24, Y+
    1ba2:	0e 94 21 0d 	call	0x1a42	; 0x1a42 <Ssd1306SendCmd>
    1ba6:	c0 17       	cp	r28, r16
    1ba8:	d1 07       	cpc	r29, r17
    1baa:	d1 f7       	brne	.-12     	; 0x1ba0 <Ssd1306Init+0x10>
    1bac:	0e 94 bd 0d 	call	0x1b7a	; 0x1b7a <Ssd1306ClearScreen>
    1bb0:	df 91       	pop	r29
    1bb2:	cf 91       	pop	r28
    1bb4:	1f 91       	pop	r17
    1bb6:	0f 91       	pop	r16
    1bb8:	08 95       	ret

00001bba <Ssd1306DrawPixel>:
    1bba:	fc 01       	movw	r30, r24
    1bbc:	f6 95       	lsr	r31
    1bbe:	e7 95       	ror	r30
    1bc0:	f6 95       	lsr	r31
    1bc2:	e7 95       	ror	r30
    1bc4:	f6 95       	lsr	r31
    1bc6:	e7 95       	ror	r30
    1bc8:	f6 95       	lsr	r31
    1bca:	fe 2f       	mov	r31, r30
    1bcc:	ee 27       	eor	r30, r30
    1bce:	f7 95       	ror	r31
    1bd0:	e7 95       	ror	r30
    1bd2:	e6 0f       	add	r30, r22
    1bd4:	f7 1f       	adc	r31, r23
    1bd6:	e0 5a       	subi	r30, 0xA0	; 160
    1bd8:	ff 4f       	sbci	r31, 0xFF	; 255
    1bda:	9c 01       	movw	r18, r24
    1bdc:	27 70       	andi	r18, 0x07	; 7
    1bde:	33 27       	eor	r19, r19
    1be0:	81 e0       	ldi	r24, 0x01	; 1
    1be2:	90 e0       	ldi	r25, 0x00	; 0
    1be4:	02 c0       	rjmp	.+4      	; 0x1bea <Ssd1306DrawPixel+0x30>
    1be6:	88 0f       	add	r24, r24
    1be8:	99 1f       	adc	r25, r25
    1bea:	2a 95       	dec	r18
    1bec:	e2 f7       	brpl	.-8      	; 0x1be6 <Ssd1306DrawPixel+0x2c>
    1bee:	90 81       	ld	r25, Z
    1bf0:	89 2b       	or	r24, r25
    1bf2:	80 83       	st	Z, r24
    1bf4:	08 95       	ret

00001bf6 <Ssd1306ClearByte>:
    1bf6:	96 95       	lsr	r25
    1bf8:	87 95       	ror	r24
    1bfa:	96 95       	lsr	r25
    1bfc:	87 95       	ror	r24
    1bfe:	96 95       	lsr	r25
    1c00:	87 95       	ror	r24
    1c02:	96 95       	lsr	r25
    1c04:	98 2f       	mov	r25, r24
    1c06:	88 27       	eor	r24, r24
    1c08:	97 95       	ror	r25
    1c0a:	87 95       	ror	r24
    1c0c:	80 5a       	subi	r24, 0xA0	; 160
    1c0e:	9f 4f       	sbci	r25, 0xFF	; 255
    1c10:	fc 01       	movw	r30, r24
    1c12:	e6 0f       	add	r30, r22
    1c14:	f7 1f       	adc	r31, r23
    1c16:	10 82       	st	Z, r1
    1c18:	08 95       	ret

00001c1a <Ssd1306ClearPixel>:
    1c1a:	fc 01       	movw	r30, r24
    1c1c:	f6 95       	lsr	r31
    1c1e:	e7 95       	ror	r30
    1c20:	f6 95       	lsr	r31
    1c22:	e7 95       	ror	r30
    1c24:	f6 95       	lsr	r31
    1c26:	e7 95       	ror	r30
    1c28:	f6 95       	lsr	r31
    1c2a:	fe 2f       	mov	r31, r30
    1c2c:	ee 27       	eor	r30, r30
    1c2e:	f7 95       	ror	r31
    1c30:	e7 95       	ror	r30
    1c32:	e6 0f       	add	r30, r22
    1c34:	f7 1f       	adc	r31, r23
    1c36:	e0 5a       	subi	r30, 0xA0	; 160
    1c38:	ff 4f       	sbci	r31, 0xFF	; 255
    1c3a:	9c 01       	movw	r18, r24
    1c3c:	27 70       	andi	r18, 0x07	; 7
    1c3e:	33 27       	eor	r19, r19
    1c40:	81 e0       	ldi	r24, 0x01	; 1
    1c42:	90 e0       	ldi	r25, 0x00	; 0
    1c44:	02 c0       	rjmp	.+4      	; 0x1c4a <Ssd1306ClearPixel+0x30>
    1c46:	88 0f       	add	r24, r24
    1c48:	99 1f       	adc	r25, r25
    1c4a:	2a 95       	dec	r18
    1c4c:	e2 f7       	brpl	.-8      	; 0x1c46 <Ssd1306ClearPixel+0x2c>
    1c4e:	80 95       	com	r24
    1c50:	90 81       	ld	r25, Z
    1c52:	89 23       	and	r24, r25
    1c54:	80 83       	st	Z, r24
    1c56:	08 95       	ret

00001c58 <Ssd1306SendRam>:
    1c58:	0f 93       	push	r16
    1c5a:	1f 93       	push	r17
    1c5c:	cf 93       	push	r28
    1c5e:	df 93       	push	r29
    1c60:	80 e0       	ldi	r24, 0x00	; 0
    1c62:	0e 94 21 0d 	call	0x1a42	; 0x1a42 <Ssd1306SendCmd>
    1c66:	80 e1       	ldi	r24, 0x10	; 16
    1c68:	0e 94 21 0d 	call	0x1a42	; 0x1a42 <Ssd1306SendCmd>
    1c6c:	80 e4       	ldi	r24, 0x40	; 64
    1c6e:	0e 94 21 0d 	call	0x1a42	; 0x1a42 <Ssd1306SendCmd>
    1c72:	f8 94       	cli
    1c74:	88 e7       	ldi	r24, 0x78	; 120
    1c76:	0e 94 66 0c 	call	0x18cc	; 0x18cc <i2c_start>
    1c7a:	80 e4       	ldi	r24, 0x40	; 64
    1c7c:	0e 94 8c 0c 	call	0x1918	; 0x1918 <i2c_write>
    1c80:	c0 e6       	ldi	r28, 0x60	; 96
    1c82:	d0 e0       	ldi	r29, 0x00	; 0
    1c84:	00 e6       	ldi	r16, 0x60	; 96
    1c86:	14 e0       	ldi	r17, 0x04	; 4
    1c88:	89 91       	ld	r24, Y+
    1c8a:	0e 94 8c 0c 	call	0x1918	; 0x1918 <i2c_write>
    1c8e:	c0 17       	cp	r28, r16
    1c90:	d1 07       	cpc	r29, r17
    1c92:	d1 f7       	brne	.-12     	; 0x1c88 <Ssd1306SendRam+0x30>
    1c94:	0e 94 a7 0c 	call	0x194e	; 0x194e <i2c_stop>
    1c98:	78 94       	sei
    1c9a:	df 91       	pop	r29
    1c9c:	cf 91       	pop	r28
    1c9e:	1f 91       	pop	r17
    1ca0:	0f 91       	pop	r16
    1ca2:	08 95       	ret

00001ca4 <Ssd1306PutChar>:
}

void Ssd1306PutChar ( uint8_t c , uint8_t y , uint8_t x )
{
    1ca4:	2f 92       	push	r2
    1ca6:	3f 92       	push	r3
    1ca8:	4f 92       	push	r4
    1caa:	5f 92       	push	r5
    1cac:	6f 92       	push	r6
    1cae:	7f 92       	push	r7
    1cb0:	8f 92       	push	r8
    1cb2:	9f 92       	push	r9
    1cb4:	af 92       	push	r10
    1cb6:	bf 92       	push	r11
    1cb8:	cf 92       	push	r12
    1cba:	df 92       	push	r13
    1cbc:	ef 92       	push	r14
    1cbe:	ff 92       	push	r15
    1cc0:	0f 93       	push	r16
    1cc2:	1f 93       	push	r17
    1cc4:	cf 93       	push	r28
    1cc6:	df 93       	push	r29
    1cc8:	00 d0       	rcall	.+0      	; 0x1cca <Ssd1306PutChar+0x26>
    1cca:	00 d0       	rcall	.+0      	; 0x1ccc <Ssd1306PutChar+0x28>
    1ccc:	1f 92       	push	r1
    1cce:	cd b7       	in	r28, 0x3d	; 61
    1cd0:	de b7       	in	r29, 0x3e	; 62
    1cd2:	69 83       	std	Y+1, r22	; 0x01
    1cd4:	4a 83       	std	Y+2, r20	; 0x02
	sei();
}

void _ClearFont( Font_t *ptrFnt )
{
	ptrFnt->uiHeight = 0;
    1cd6:	10 92 97 04 	sts	0x0497, r1	; 0x800497 <Font+0x5>
    1cda:	10 92 96 04 	sts	0x0496, r1	; 0x800496 <Font+0x4>
	ptrFnt->uiHeightInBytes = 0;
    1cde:	10 92 98 04 	sts	0x0498, r1	; 0x800498 <Font+0x6>
	ptrFnt->uiIndex = 0;
    1ce2:	a2 e9       	ldi	r26, 0x92	; 146
    1ce4:	b4 e0       	ldi	r27, 0x04	; 4
    1ce6:	11 96       	adiw	r26, 0x01	; 1
    1ce8:	1c 92       	st	X, r1
    1cea:	1e 92       	st	-X, r1
	ptrFnt->uiWidht = 0;
    1cec:	10 92 95 04 	sts	0x0495, r1	; 0x800495 <Font+0x3>
    1cf0:	10 92 94 04 	sts	0x0494, r1	; 0x800494 <Font+0x2>
void Ssd1306PutChar ( uint8_t c , uint8_t y , uint8_t x )
{
	uint8_t i , j , k , by , mask , tmpmask , pixels;
	
	_ClearFont( &Font );
	GetFont( c , &Font );
    1cf4:	bd 01       	movw	r22, r26
    1cf6:	0e 94 30 0d 	call	0x1a60	; 0x1a60 <GetFont>

	for( k = 0 ; k < Font.uiHeightInBytes ; k++)
    1cfa:	80 91 98 04 	lds	r24, 0x0498	; 0x800498 <Font+0x6>
    1cfe:	88 23       	and	r24, r24
    1d00:	09 f4       	brne	.+2      	; 0x1d04 <Ssd1306PutChar+0x60>
    1d02:	c1 c0       	rjmp	.+386    	; 0x1e86 <Ssd1306PutChar+0x1e2>
    1d04:	21 2c       	mov	r2, r1
	{
		pixels = 8; // erstmal

		if( k == Font.uiHeightInBytes - 1 ) // Im unteren Zeichenteil evtl. nur Restpixel zeichnen
		{
			by = Font.uiHeight % 8;
    1d06:	0f 2e       	mov	r0, r31
    1d08:	f2 e9       	ldi	r31, 0x92	; 146
    1d0a:	ef 2e       	mov	r14, r31
    1d0c:	f4 e0       	ldi	r31, 0x04	; 4
    1d0e:	ff 2e       	mov	r15, r31
    1d10:	f0 2d       	mov	r31, r0

	for( k = 0 ; k < Font.uiHeightInBytes ; k++)
	{
		pixels = 8; // erstmal

		if( k == Font.uiHeightInBytes - 1 ) // Im unteren Zeichenteil evtl. nur Restpixel zeichnen
    1d12:	22 2d       	mov	r18, r2
    1d14:	30 e0       	ldi	r19, 0x00	; 0
    1d16:	90 e0       	ldi	r25, 0x00	; 0
    1d18:	01 97       	sbiw	r24, 0x01	; 1
    1d1a:	28 17       	cp	r18, r24
    1d1c:	39 07       	cpc	r19, r25
    1d1e:	81 f4       	brne	.+32     	; 0x1d40 <Ssd1306PutChar+0x9c>
		{
			by = Font.uiHeight % 8;
    1d20:	f7 01       	movw	r30, r14
    1d22:	84 81       	ldd	r24, Z+4	; 0x04
    1d24:	87 70       	andi	r24, 0x07	; 7
    1d26:	78 2e       	mov	r7, r24
			if( by != 0 ) 
    1d28:	89 f0       	breq	.+34     	; 0x1d4c <Ssd1306PutChar+0xa8>
		}

		tmpmask = 0x01;//Bei D0 anfangen
		if( pixels != 8 ) 
		{
			tmpmask <<= ( 8 - pixels ); // Restpixel sind verschoben !
    1d2a:	88 e0       	ldi	r24, 0x08	; 8
    1d2c:	90 e0       	ldi	r25, 0x00	; 0
    1d2e:	87 19       	sub	r24, r7
    1d30:	91 09       	sbc	r25, r1
    1d32:	44 24       	eor	r4, r4
    1d34:	43 94       	inc	r4
    1d36:	01 c0       	rjmp	.+2      	; 0x1d3a <Ssd1306PutChar+0x96>
    1d38:	44 0c       	add	r4, r4
    1d3a:	8a 95       	dec	r24
    1d3c:	ea f7       	brpl	.-6      	; 0x1d38 <Ssd1306PutChar+0x94>
    1d3e:	0b c0       	rjmp	.+22     	; 0x1d56 <Ssd1306PutChar+0xb2>
    1d40:	68 94       	set
    1d42:	77 24       	eor	r7, r7
    1d44:	73 f8       	bld	r7, 3
			{
				pixels = by;
			}
		}

		tmpmask = 0x01;//Bei D0 anfangen
    1d46:	44 24       	eor	r4, r4
    1d48:	43 94       	inc	r4
    1d4a:	05 c0       	rjmp	.+10     	; 0x1d56 <Ssd1306PutChar+0xb2>
    1d4c:	68 94       	set
    1d4e:	77 24       	eor	r7, r7
    1d50:	73 f8       	bld	r7, 3
    1d52:	44 24       	eor	r4, r4
    1d54:	43 94       	inc	r4
		if( pixels != 8 ) 
		{
			tmpmask <<= ( 8 - pixels ); // Restpixel sind verschoben !
		}
		 
		uint16_t PosX = x;
    1d56:	fa 81       	ldd	r31, Y+2	; 0x02
    1d58:	0f 2f       	mov	r16, r31
    1d5a:	10 e0       	ldi	r17, 0x00	; 0

		for( i = 0 ; i < Font.uiWidht ; i++ ) //ber die Breite des Zeichens
    1d5c:	d7 01       	movw	r26, r14
    1d5e:	12 96       	adiw	r26, 0x02	; 2
    1d60:	8d 91       	ld	r24, X+
    1d62:	9c 91       	ld	r25, X
    1d64:	13 97       	sbiw	r26, 0x03	; 3
    1d66:	89 2b       	or	r24, r25
    1d68:	09 f4       	brne	.+2      	; 0x1d6c <Ssd1306PutChar+0xc8>
    1d6a:	59 c0       	rjmp	.+178    	; 0x1e1e <Ssd1306PutChar+0x17a>
					mask<<=1; //Nchstes Bit
				}//for j
			}
			else
			{
				Ssd1306DrawByte( y , PosX , by );
    1d6c:	b9 81       	ldd	r27, Y+1	; 0x01
    1d6e:	ab 2e       	mov	r10, r27
    1d70:	b1 2c       	mov	r11, r1
    1d72:	65 01       	movw	r12, r10
    1d74:	d6 94       	lsr	r13
    1d76:	c7 94       	ror	r12
    1d78:	d6 94       	lsr	r13
    1d7a:	c7 94       	ror	r12
    1d7c:	d6 94       	lsr	r13
    1d7e:	c7 94       	ror	r12
    1d80:	d6 94       	lsr	r13
    1d82:	dc 2c       	mov	r13, r12
    1d84:	cc 24       	eor	r12, r12
    1d86:	d7 94       	ror	r13
    1d88:	c7 94       	ror	r12
    1d8a:	c6 01       	movw	r24, r12
    1d8c:	80 0f       	add	r24, r16
    1d8e:	91 1f       	adc	r25, r17
    1d90:	fc 01       	movw	r30, r24
    1d92:	e0 5a       	subi	r30, 0xA0	; 160
    1d94:	ff 4f       	sbci	r31, 0xFF	; 255
    1d96:	6f 01       	movw	r12, r30
	 DisplayRam[ x + ( y / 8 ) * SSD1306_LCD_Width ] |=  ( 1 << ( y & 7 ) );
}

void Ssd1306DrawByte( uint16_t y , uint16_t x , uint8_t Byte )
{
	DisplayRam[ x + ( y / 8 ) * SSD1306_LCD_Width ] = Byte;
    1d98:	51 2c       	mov	r5, r1

		for( i = 0 ; i < Font.uiWidht ; i++ ) //ber die Breite des Zeichens
		{
			by= _ptrFont[ Font.uiIndex++ ]; //Ein Byte des Zeichens holen

			if( ( y % 8 ) !=0 || pixels != 8 )
    1d9a:	b7 70       	andi	r27, 0x07	; 7
    1d9c:	3b 2e       	mov	r3, r27
		 
		uint16_t PosX = x;

		for( i = 0 ; i < Font.uiWidht ; i++ ) //ber die Breite des Zeichens
		{
			by= _ptrFont[ Font.uiIndex++ ]; //Ein Byte des Zeichens holen
    1d9e:	e0 91 90 04 	lds	r30, 0x0490	; 0x800490 <_ptrFont>
    1da2:	f0 91 91 04 	lds	r31, 0x0491	; 0x800491 <_ptrFont+0x1>
    1da6:	d7 01       	movw	r26, r14
    1da8:	8d 91       	ld	r24, X+
    1daa:	9c 91       	ld	r25, X
    1dac:	11 97       	sbiw	r26, 0x01	; 1
    1dae:	9c 01       	movw	r18, r24
    1db0:	2f 5f       	subi	r18, 0xFF	; 255
    1db2:	3f 4f       	sbci	r19, 0xFF	; 255
    1db4:	2d 93       	st	X+, r18
    1db6:	3c 93       	st	X, r19
    1db8:	e8 0f       	add	r30, r24
    1dba:	f9 1f       	adc	r31, r25
    1dbc:	64 90       	lpm	r6, Z

			if( ( y % 8 ) !=0 || pixels != 8 )
    1dbe:	33 20       	and	r3, r3
    1dc0:	19 f0       	breq	.+6      	; 0x1dc8 <Ssd1306PutChar+0x124>
			{
				mask = tmpmask;

				for( j = 0 ; j < pixels ; j++ )
    1dc2:	71 10       	cpse	r7, r1
    1dc4:	05 c0       	rjmp	.+10     	; 0x1dd0 <Ssd1306PutChar+0x12c>
    1dc6:	1c c0       	rjmp	.+56     	; 0x1e00 <Ssd1306PutChar+0x15c>

		for( i = 0 ; i < Font.uiWidht ; i++ ) //ber die Breite des Zeichens
		{
			by= _ptrFont[ Font.uiIndex++ ]; //Ein Byte des Zeichens holen

			if( ( y % 8 ) !=0 || pixels != 8 )
    1dc8:	b8 e0       	ldi	r27, 0x08	; 8
    1dca:	7b 12       	cpse	r7, r27
    1dcc:	fa cf       	rjmp	.-12     	; 0x1dc2 <Ssd1306PutChar+0x11e>
    1dce:	16 c0       	rjmp	.+44     	; 0x1dfc <Ssd1306PutChar+0x158>
			{
				mask = tmpmask;

				for( j = 0 ; j < pixels ; j++ )
    1dd0:	45 01       	movw	r8, r10
    1dd2:	4d 82       	std	Y+5, r4	; 0x05
    1dd4:	1b 82       	std	Y+3, r1	; 0x03
				{
					if ( by & mask )
    1dd6:	8d 81       	ldd	r24, Y+5	; 0x05
    1dd8:	86 21       	and	r24, r6
    1dda:	21 f0       	breq	.+8      	; 0x1de4 <Ssd1306PutChar+0x140>
					{
						Ssd1306DrawPixel( y + j, PosX );
    1ddc:	b8 01       	movw	r22, r16
    1dde:	c4 01       	movw	r24, r8
    1de0:	0e 94 dd 0d 	call	0x1bba	; 0x1bba <Ssd1306DrawPixel>
					}
					mask<<=1; //Nchstes Bit
    1de4:	ed 81       	ldd	r30, Y+5	; 0x05
    1de6:	ee 0f       	add	r30, r30
    1de8:	ed 83       	std	Y+5, r30	; 0x05

			if( ( y % 8 ) !=0 || pixels != 8 )
			{
				mask = tmpmask;

				for( j = 0 ; j < pixels ; j++ )
    1dea:	fb 81       	ldd	r31, Y+3	; 0x03
    1dec:	ff 5f       	subi	r31, 0xFF	; 255
    1dee:	fb 83       	std	Y+3, r31	; 0x03
    1df0:	2f ef       	ldi	r18, 0xFF	; 255
    1df2:	82 1a       	sub	r8, r18
    1df4:	92 0a       	sbc	r9, r18
    1df6:	7f 12       	cpse	r7, r31
    1df8:	ee cf       	rjmp	.-36     	; 0x1dd6 <Ssd1306PutChar+0x132>
    1dfa:	02 c0       	rjmp	.+4      	; 0x1e00 <Ssd1306PutChar+0x15c>
	 DisplayRam[ x + ( y / 8 ) * SSD1306_LCD_Width ] |=  ( 1 << ( y & 7 ) );
}

void Ssd1306DrawByte( uint16_t y , uint16_t x , uint8_t Byte )
{
	DisplayRam[ x + ( y / 8 ) * SSD1306_LCD_Width ] = Byte;
    1dfc:	d6 01       	movw	r26, r12
    1dfe:	6c 92       	st	X, r6
			else
			{
				Ssd1306DrawByte( y , PosX , by );
			}

			PosX++;
    1e00:	0f 5f       	subi	r16, 0xFF	; 255
    1e02:	1f 4f       	sbci	r17, 0xFF	; 255
			tmpmask <<= ( 8 - pixels ); // Restpixel sind verschoben !
		}
		 
		uint16_t PosX = x;

		for( i = 0 ; i < Font.uiWidht ; i++ ) //ber die Breite des Zeichens
    1e04:	53 94       	inc	r5
    1e06:	bf ef       	ldi	r27, 0xFF	; 255
    1e08:	cb 1a       	sub	r12, r27
    1e0a:	db 0a       	sbc	r13, r27
    1e0c:	25 2d       	mov	r18, r5
    1e0e:	30 e0       	ldi	r19, 0x00	; 0
    1e10:	f7 01       	movw	r30, r14
    1e12:	82 81       	ldd	r24, Z+2	; 0x02
    1e14:	93 81       	ldd	r25, Z+3	; 0x03
    1e16:	28 17       	cp	r18, r24
    1e18:	39 07       	cpc	r19, r25
    1e1a:	08 f4       	brcc	.+2      	; 0x1e1e <Ssd1306PutChar+0x17a>
    1e1c:	c0 cf       	rjmp	.-128    	; 0x1d9e <Ssd1306PutChar+0xfa>
			}

			PosX++;
		}//for i

		if( ( y % 8 ) != 0 || pixels != 8 )
    1e1e:	89 81       	ldd	r24, Y+1	; 0x01
    1e20:	87 70       	andi	r24, 0x07	; 7
    1e22:	19 f0       	breq	.+6      	; 0x1e2a <Ssd1306PutChar+0x186>
		{
			for( j = 0 ; j < pixels ; j++ ) // virtual spacing Spalte, 1 Leerpixel zeichnen
    1e24:	71 10       	cpse	r7, r1
    1e26:	05 c0       	rjmp	.+10     	; 0x1e32 <Ssd1306PutChar+0x18e>
    1e28:	24 c0       	rjmp	.+72     	; 0x1e72 <Ssd1306PutChar+0x1ce>
			}

			PosX++;
		}//for i

		if( ( y % 8 ) != 0 || pixels != 8 )
    1e2a:	f8 e0       	ldi	r31, 0x08	; 8
    1e2c:	7f 12       	cpse	r7, r31
    1e2e:	fa cf       	rjmp	.-12     	; 0x1e24 <Ssd1306PutChar+0x180>
    1e30:	1a c0       	rjmp	.+52     	; 0x1e66 <Ssd1306PutChar+0x1c2>
    1e32:	39 81       	ldd	r19, Y+1	; 0x01
    1e34:	23 2f       	mov	r18, r19
    1e36:	30 e0       	ldi	r19, 0x00	; 0
    1e38:	3c 83       	std	Y+4, r19	; 0x04
    1e3a:	2b 83       	std	Y+3, r18	; 0x03
    1e3c:	7a 94       	dec	r7
    1e3e:	69 01       	movw	r12, r18
    1e40:	8f ef       	ldi	r24, 0xFF	; 255
    1e42:	c8 1a       	sub	r12, r24
    1e44:	d8 0a       	sbc	r13, r24
    1e46:	c7 0c       	add	r12, r7
    1e48:	d1 1c       	adc	r13, r1
		{
			for( j = 0 ; j < pixels ; j++ ) // virtual spacing Spalte, 1 Leerpixel zeichnen
			{
				Ssd1306ClearPixel( y + j , PosX );
    1e4a:	b8 01       	movw	r22, r16
    1e4c:	8b 81       	ldd	r24, Y+3	; 0x03
    1e4e:	9c 81       	ldd	r25, Y+4	; 0x04
    1e50:	0e 94 0d 0e 	call	0x1c1a	; 0x1c1a <Ssd1306ClearPixel>
    1e54:	ab 81       	ldd	r26, Y+3	; 0x03
    1e56:	bc 81       	ldd	r27, Y+4	; 0x04
    1e58:	11 96       	adiw	r26, 0x01	; 1
    1e5a:	bc 83       	std	Y+4, r27	; 0x04
    1e5c:	ab 83       	std	Y+3, r26	; 0x03
			PosX++;
		}//for i

		if( ( y % 8 ) != 0 || pixels != 8 )
		{
			for( j = 0 ; j < pixels ; j++ ) // virtual spacing Spalte, 1 Leerpixel zeichnen
    1e5e:	ca 16       	cp	r12, r26
    1e60:	db 06       	cpc	r13, r27
    1e62:	99 f7       	brne	.-26     	; 0x1e4a <Ssd1306PutChar+0x1a6>
    1e64:	06 c0       	rjmp	.+12     	; 0x1e72 <Ssd1306PutChar+0x1ce>
				Ssd1306ClearPixel( y + j , PosX );
			}//for j
		}
		else
		{
			Ssd1306ClearByte( y , PosX );
    1e66:	b8 01       	movw	r22, r16
    1e68:	b9 81       	ldd	r27, Y+1	; 0x01
    1e6a:	8b 2f       	mov	r24, r27
    1e6c:	90 e0       	ldi	r25, 0x00	; 0
    1e6e:	0e 94 fb 0d 	call	0x1bf6	; 0x1bf6 <Ssd1306ClearByte>
		}

		y += 8 ;
    1e72:	e9 81       	ldd	r30, Y+1	; 0x01
    1e74:	e8 5f       	subi	r30, 0xF8	; 248
    1e76:	e9 83       	std	Y+1, r30	; 0x01
	uint8_t i , j , k , by , mask , tmpmask , pixels;
	
	_ClearFont( &Font );
	GetFont( c , &Font );

	for( k = 0 ; k < Font.uiHeightInBytes ; k++)
    1e78:	23 94       	inc	r2
    1e7a:	d7 01       	movw	r26, r14
    1e7c:	16 96       	adiw	r26, 0x06	; 6
    1e7e:	8c 91       	ld	r24, X
    1e80:	28 16       	cp	r2, r24
    1e82:	08 f4       	brcc	.+2      	; 0x1e86 <Ssd1306PutChar+0x1e2>
    1e84:	46 cf       	rjmp	.-372    	; 0x1d12 <Ssd1306PutChar+0x6e>
			Ssd1306ClearByte( y , PosX );
		}

		y += 8 ;
	}//for k
}
    1e86:	0f 90       	pop	r0
    1e88:	0f 90       	pop	r0
    1e8a:	0f 90       	pop	r0
    1e8c:	0f 90       	pop	r0
    1e8e:	0f 90       	pop	r0
    1e90:	df 91       	pop	r29
    1e92:	cf 91       	pop	r28
    1e94:	1f 91       	pop	r17
    1e96:	0f 91       	pop	r16
    1e98:	ff 90       	pop	r15
    1e9a:	ef 90       	pop	r14
    1e9c:	df 90       	pop	r13
    1e9e:	cf 90       	pop	r12
    1ea0:	bf 90       	pop	r11
    1ea2:	af 90       	pop	r10
    1ea4:	9f 90       	pop	r9
    1ea6:	8f 90       	pop	r8
    1ea8:	7f 90       	pop	r7
    1eaa:	6f 90       	pop	r6
    1eac:	5f 90       	pop	r5
    1eae:	4f 90       	pop	r4
    1eb0:	3f 90       	pop	r3
    1eb2:	2f 90       	pop	r2
    1eb4:	08 95       	ret

00001eb6 <get_key_press>:
		}	
	}
//	Ssd1306Clear();
	
	return 0;
}
    1eb6:	f8 94       	cli
    1eb8:	e9 e3       	ldi	r30, 0x39	; 57
    1eba:	f5 e0       	ldi	r31, 0x05	; 5
    1ebc:	90 81       	ld	r25, Z
    1ebe:	89 23       	and	r24, r25
    1ec0:	90 81       	ld	r25, Z
    1ec2:	98 27       	eor	r25, r24
    1ec4:	90 83       	st	Z, r25
    1ec6:	78 94       	sei
    1ec8:	08 95       	ret

00001eca <get_key_rpt>:
    1eca:	f8 94       	cli
    1ecc:	e9 e3       	ldi	r30, 0x39	; 57
    1ece:	f5 e0       	ldi	r31, 0x05	; 5
    1ed0:	92 81       	ldd	r25, Z+2	; 0x02
    1ed2:	89 23       	and	r24, r25
    1ed4:	92 81       	ldd	r25, Z+2	; 0x02
    1ed6:	98 27       	eor	r25, r24
    1ed8:	92 83       	std	Z+2, r25	; 0x02
    1eda:	78 94       	sei
    1edc:	08 95       	ret

00001ede <eepIsInit>:
	return 0;
}

uint8_t eepIsInit				( void )
{
	if ( eeprom_read_byte( &eepInit) == 0xAA )
    1ede:	80 e0       	ldi	r24, 0x00	; 0
    1ee0:	90 e0       	ldi	r25, 0x00	; 0
    1ee2:	0e 94 0f 11 	call	0x221e	; 0x221e <eeprom_read_byte>
    1ee6:	91 e0       	ldi	r25, 0x01	; 1
    1ee8:	8a 3a       	cpi	r24, 0xAA	; 170
    1eea:	09 f4       	brne	.+2      	; 0x1eee <eepIsInit+0x10>
    1eec:	90 e0       	ldi	r25, 0x00	; 0
	{
		return 0;
	}
	
	return 1;
}
    1eee:	89 2f       	mov	r24, r25
    1ef0:	08 95       	ret

00001ef2 <eepReload>:

void eepReload					( void )
{
	if ( eepIsInit() )
    1ef2:	0e 94 6f 0f 	call	0x1ede	; 0x1ede <eepIsInit>
    1ef6:	88 23       	and	r24, r24
    1ef8:	59 f0       	breq	.+22     	; 0x1f10 <eepReload+0x1e>
	{
		eeprom_write_word( &operatingEEP.hours , 0 );
    1efa:	60 e0       	ldi	r22, 0x00	; 0
    1efc:	70 e0       	ldi	r23, 0x00	; 0
    1efe:	82 e0       	ldi	r24, 0x02	; 2
    1f00:	90 e0       	ldi	r25, 0x00	; 0
    1f02:	0e 94 41 11 	call	0x2282	; 0x2282 <eeprom_write_word>
		eeprom_write_byte( &eepInit , 0xAA );
    1f06:	6a ea       	ldi	r22, 0xAA	; 170
    1f08:	80 e0       	ldi	r24, 0x00	; 0
    1f0a:	90 e0       	ldi	r25, 0x00	; 0
    1f0c:	0e 94 34 11 	call	0x2268	; 0x2268 <eeprom_write_byte>
	}
	
	operating.hours = eeprom_read_word( &operatingEEP.hours );
    1f10:	82 e0       	ldi	r24, 0x02	; 2
    1f12:	90 e0       	ldi	r25, 0x00	; 0
    1f14:	0e 94 17 11 	call	0x222e	; 0x222e <eeprom_read_word>
    1f18:	90 93 26 05 	sts	0x0526, r25	; 0x800526 <operating+0x1>
    1f1c:	80 93 25 05 	sts	0x0525, r24	; 0x800525 <operating>
	ram.brightness = eeprom_read_byte( &eep.brightness );
    1f20:	81 e0       	ldi	r24, 0x01	; 1
    1f22:	90 e0       	ldi	r25, 0x00	; 0
    1f24:	0e 94 0f 11 	call	0x221e	; 0x221e <eeprom_read_byte>
    1f28:	80 93 3c 05 	sts	0x053C, r24	; 0x80053c <ram>
    1f2c:	08 95       	ret

00001f2e <updateLiveLed>:
}
void updateLiveLed				( uint16_t *mil )
{
	#define CALC_LIVE(x) (x*1)
	
	if ( *mil < CALC_LIVE(2) )
    1f2e:	fc 01       	movw	r30, r24
    1f30:	20 81       	ld	r18, Z
    1f32:	31 81       	ldd	r19, Z+1	; 0x01
    1f34:	22 30       	cpi	r18, 0x02	; 2
    1f36:	31 05       	cpc	r19, r1
    1f38:	10 f4       	brcc	.+4      	; 0x1f3e <updateLiveLed+0x10>
	{
		STATE_LED_ON;
    1f3a:	d9 98       	cbi	0x1b, 1	; 27
    1f3c:	08 95       	ret
	}
	else if ( *mil > CALC_LIVE(2) && *mil < CALC_LIVE(4) )
    1f3e:	23 30       	cpi	r18, 0x03	; 3
    1f40:	31 05       	cpc	r19, r1
    1f42:	11 f4       	brne	.+4      	; 0x1f48 <updateLiveLed+0x1a>
	{
		STATE_LED_OFF;
    1f44:	d9 9a       	sbi	0x1b, 1	; 27
    1f46:	08 95       	ret
	}
	else if ( *mil > CALC_LIVE(8) && *mil < CALC_LIVE(10) )
    1f48:	29 30       	cpi	r18, 0x09	; 9
    1f4a:	31 05       	cpc	r19, r1
    1f4c:	11 f4       	brne	.+4      	; 0x1f52 <updateLiveLed+0x24>
	{
		STATE_LED_ON;
    1f4e:	d9 98       	cbi	0x1b, 1	; 27
    1f50:	08 95       	ret
	}
	else if ( *mil > CALC_LIVE(10) && *mil < CALC_LIVE(12) )
    1f52:	2b 30       	cpi	r18, 0x0B	; 11
    1f54:	31 05       	cpc	r19, r1
    1f56:	11 f4       	brne	.+4      	; 0x1f5c <updateLiveLed+0x2e>
	{
		STATE_LED_OFF;
    1f58:	d9 9a       	sbi	0x1b, 1	; 27
    1f5a:	08 95       	ret
	}
	else if ( *mil > 500 )
    1f5c:	25 3f       	cpi	r18, 0xF5	; 245
    1f5e:	31 40       	sbci	r19, 0x01	; 1
    1f60:	18 f0       	brcs	.+6      	; 0x1f68 <updateLiveLed+0x3a>
	{
		*mil = 0;
    1f62:	fc 01       	movw	r30, r24
    1f64:	11 82       	std	Z+1, r1	; 0x01
    1f66:	10 82       	st	Z, r1
    1f68:	08 95       	ret

00001f6a <main>:
	return 0;
}

int main(void)
{
    DDRx( STATE_LED_PORT )	|= 1<<STATE_LED_bp;
    1f6a:	d1 9a       	sbi	0x1a, 1	; 26
	STATE_LED_PORT			|= (1<<STATE_LED_bp);
    1f6c:	d9 9a       	sbi	0x1b, 1	; 27
	
	eepReload();
    1f6e:	0e 94 79 0f 	call	0x1ef2	; 0x1ef2 <eepReload>
	i2c_init();
    1f72:	0e 94 63 0c 	call	0x18c6	; 0x18c6 <i2c_init>
	Ssd1306Init();
    1f76:	0e 94 c8 0d 	call	0x1b90	; 0x1b90 <Ssd1306Init>
	bmp180_init( &bmp180 );	
    1f7a:	8e ec       	ldi	r24, 0xCE	; 206
    1f7c:	94 e0       	ldi	r25, 0x04	; 4
    1f7e:	0e 94 0b 0c 	call	0x1816	; 0x1816 <bmp180_init>
	errorInit( &err );
    1f82:	8e ea       	ldi	r24, 0xAE	; 174
    1f84:	94 e0       	ldi	r25, 0x04	; 4
    1f86:	0e 94 1e 0a 	call	0x143c	; 0x143c <errorInit>
	
	/*	Timer 1 ( 16 Bit ) 
	*	Wird auf CompareMatch eingestellt
	*	Auslseintervall.: 10ms
	*/
	TCCR1B	= ( ( 1<<CS11 ) | ( 1<<CS10 ) | ( 1<<WGM12 ) ); // Prescaler : 64 
    1f8a:	8b e0       	ldi	r24, 0x0B	; 11
    1f8c:	8e bd       	out	0x2e, r24	; 46
	TIMSK   = ( ( 1<<OCIE1A ) | ( 1<<OCIE2 ) );
    1f8e:	80 e9       	ldi	r24, 0x90	; 144
    1f90:	89 bf       	out	0x39, r24	; 57
	OCR1A	= 0x04E1;
    1f92:	81 ee       	ldi	r24, 0xE1	; 225
    1f94:	94 e0       	ldi	r25, 0x04	; 4
    1f96:	9b bd       	out	0x2b, r25	; 43
    1f98:	8a bd       	out	0x2a, r24	; 42
	
	/*	Timer 2 
	*	Wird auf CompareMatch eingestellt
	*	Auslseintervall.: 1ms
	*/
	TCCR2  |= ((1<<CS22) | (1<<WGM21)); // Prescaler : 64
    1f9a:	85 b5       	in	r24, 0x25	; 37
    1f9c:	8c 60       	ori	r24, 0x0C	; 12
    1f9e:	85 bd       	out	0x25, r24	; 37
	OCR2   = ((F_CPU / 64 / 1000 ) - 1 ); 
    1fa0:	8c e7       	ldi	r24, 0x7C	; 124
    1fa2:	83 bd       	out	0x23, r24	; 35
	
	/*	Interrupts
	*	Interrupts global freigeben
	*/
	sei();
    1fa4:	78 94       	sei
	
	Ssd1306ClearScreen();
    1fa6:	0e 94 bd 0d 	call	0x1b7a	; 0x1b7a <Ssd1306ClearScreen>
	Ssd1306SendRam();
    1faa:	0e 94 2c 0e 	call	0x1c58	; 0x1c58 <Ssd1306SendRam>
	
	button.enterRpt = 0;	
    1fae:	eb e2       	ldi	r30, 0x2B	; 43
    1fb0:	f5 e0       	ldi	r31, 0x05	; 5
    1fb2:	11 82       	std	Z+1, r1	; 0x01
	button.enter	= 0;
    1fb4:	10 82       	st	Z, r1
	
	Ssd1306SetFont( impact32 );
    1fb6:	84 e5       	ldi	r24, 0x54	; 84
    1fb8:	90 e0       	ldi	r25, 0x00	; 0
    1fba:	0e 94 2b 0d 	call	0x1a56	; 0x1a56 <Ssd1306SetFont>
	
	Ssd1306PutChar('1',10,0);
    1fbe:	40 e0       	ldi	r20, 0x00	; 0
    1fc0:	6a e0       	ldi	r22, 0x0A	; 10
    1fc2:	81 e3       	ldi	r24, 0x31	; 49
    1fc4:	0e 94 52 0e 	call	0x1ca4	; 0x1ca4 <Ssd1306PutChar>
	Ssd1306PutChar('2',0,20);
    1fc8:	44 e1       	ldi	r20, 0x14	; 20
    1fca:	60 e0       	ldi	r22, 0x00	; 0
    1fcc:	82 e3       	ldi	r24, 0x32	; 50
    1fce:	0e 94 52 0e 	call	0x1ca4	; 0x1ca4 <Ssd1306PutChar>
	Ssd1306PutChar('3',10,40);
    1fd2:	48 e2       	ldi	r20, 0x28	; 40
    1fd4:	6a e0       	ldi	r22, 0x0A	; 10
    1fd6:	83 e3       	ldi	r24, 0x33	; 51
    1fd8:	0e 94 52 0e 	call	0x1ca4	; 0x1ca4 <Ssd1306PutChar>
	Ssd1306PutChar('4',0,60);
    1fdc:	4c e3       	ldi	r20, 0x3C	; 60
    1fde:	60 e0       	ldi	r22, 0x00	; 0
    1fe0:	84 e3       	ldi	r24, 0x34	; 52
    1fe2:	0e 94 52 0e 	call	0x1ca4	; 0x1ca4 <Ssd1306PutChar>
	Ssd1306PutChar('5',10,80);
    1fe6:	40 e5       	ldi	r20, 0x50	; 80
    1fe8:	6a e0       	ldi	r22, 0x0A	; 10
    1fea:	85 e3       	ldi	r24, 0x35	; 53
    1fec:	0e 94 52 0e 	call	0x1ca4	; 0x1ca4 <Ssd1306PutChar>
	Ssd1306SendRam();	
    1ff0:	0e 94 2c 0e 	call	0x1c58	; 0x1c58 <Ssd1306SendRam>
    1ff4:	ff cf       	rjmp	.-2      	; 0x1ff4 <main+0x8a>

00001ff6 <__vector_7>:

/* Timer[1] -> Compare Match A
*	Wird ca. jede 10ms aufgerufen
*/
ISR( TIMER1_COMPA_vect )
{
    1ff6:	1f 92       	push	r1
    1ff8:	0f 92       	push	r0
    1ffa:	0f b6       	in	r0, 0x3f	; 63
    1ffc:	0f 92       	push	r0
    1ffe:	11 24       	eor	r1, r1
    2000:	2f 93       	push	r18
    2002:	3f 93       	push	r19
    2004:	4f 93       	push	r20
    2006:	5f 93       	push	r21
    2008:	6f 93       	push	r22
    200a:	7f 93       	push	r23
    200c:	8f 93       	push	r24
    200e:	9f 93       	push	r25
    2010:	af 93       	push	r26
    2012:	bf 93       	push	r27
    2014:	ef 93       	push	r30
    2016:	ff 93       	push	r31
	static uint16_t liveLed = 0;
	static uint8_t rtcRead = 0;
	static uint8_t sensorsRead = 0;
	
	liveLed++;
    2018:	80 91 ab 04 	lds	r24, 0x04AB	; 0x8004ab <liveLed.2947>
    201c:	90 91 ac 04 	lds	r25, 0x04AC	; 0x8004ac <liveLed.2947+0x1>
    2020:	01 96       	adiw	r24, 0x01	; 1
    2022:	90 93 ac 04 	sts	0x04AC, r25	; 0x8004ac <liveLed.2947+0x1>
    2026:	80 93 ab 04 	sts	0x04AB, r24	; 0x8004ab <liveLed.2947>
 	updateLiveLed( &liveLed );
    202a:	8b ea       	ldi	r24, 0xAB	; 171
    202c:	94 e0       	ldi	r25, 0x04	; 4
    202e:	0e 94 97 0f 	call	0x1f2e	; 0x1f2e <updateLiveLed>

	if ( tim.mil++ >= 1000 )
    2032:	e0 e0       	ldi	r30, 0x00	; 0
    2034:	f5 e0       	ldi	r31, 0x05	; 5
    2036:	80 81       	ld	r24, Z
    2038:	91 81       	ldd	r25, Z+1	; 0x01
    203a:	9c 01       	movw	r18, r24
    203c:	2f 5f       	subi	r18, 0xFF	; 255
    203e:	3f 4f       	sbci	r19, 0xFF	; 255
    2040:	31 83       	std	Z+1, r19	; 0x01
    2042:	20 83       	st	Z, r18
    2044:	88 3e       	cpi	r24, 0xE8	; 232
    2046:	93 40       	sbci	r25, 0x03	; 3
    2048:	48 f0       	brcs	.+18     	; 0x205c <__vector_7+0x66>
	{
		tim.mil = 0;
    204a:	10 92 01 05 	sts	0x0501, r1	; 0x800501 <tim+0x1>
    204e:	10 92 00 05 	sts	0x0500, r1	; 0x800500 <tim>
		flag.menueTimeout = 1;
    2052:	80 91 24 05 	lds	r24, 0x0524	; 0x800524 <flag>
    2056:	81 60       	ori	r24, 0x01	; 1
    2058:	80 93 24 05 	sts	0x0524, r24	; 0x800524 <flag>
	}

	if ( rtcRead++ > 10 )
    205c:	80 91 aa 04 	lds	r24, 0x04AA	; 0x8004aa <rtcRead.2948>
    2060:	8b 30       	cpi	r24, 0x0B	; 11
    2062:	20 f4       	brcc	.+8      	; 0x206c <__vector_7+0x76>
    2064:	8f 5f       	subi	r24, 0xFF	; 255
    2066:	80 93 aa 04 	sts	0x04AA, r24	; 0x8004aa <rtcRead.2948>
    206a:	07 c0       	rjmp	.+14     	; 0x207a <__vector_7+0x84>
	{		
		rtcRead = 0;
    206c:	10 92 aa 04 	sts	0x04AA, r1	; 0x8004aa <rtcRead.2948>
		readSens.ready |= (1<<RTC_IS_RDY_TO_RD);
    2070:	e4 e0       	ldi	r30, 0x04	; 4
    2072:	f5 e0       	ldi	r31, 0x05	; 5
    2074:	87 8d       	ldd	r24, Z+31	; 0x1f
    2076:	81 60       	ori	r24, 0x01	; 1
    2078:	87 8f       	std	Z+31, r24	; 0x1f
	}
	 
	if ( secoundCmp != rtc.second )
    207a:	80 91 2d 05 	lds	r24, 0x052D	; 0x80052d <rtc>
    207e:	90 91 ad 04 	lds	r25, 0x04AD	; 0x8004ad <secoundCmp>
    2082:	89 17       	cp	r24, r25
    2084:	99 f1       	breq	.+102    	; 0x20ec <__vector_7+0xf6>
	{
		secoundCmp = rtc.second;
    2086:	80 93 ad 04 	sts	0x04AD, r24	; 0x8004ad <secoundCmp>
		operating.dispAutoOff++;
    208a:	e5 e2       	ldi	r30, 0x25	; 37
    208c:	f5 e0       	ldi	r31, 0x05	; 5
    208e:	84 81       	ldd	r24, Z+4	; 0x04
    2090:	95 81       	ldd	r25, Z+5	; 0x05
    2092:	01 96       	adiw	r24, 0x01	; 1
    2094:	95 83       	std	Z+5, r25	; 0x05
    2096:	84 83       	std	Z+4, r24	; 0x04
		
		if ( sensorsRead++ > 5 )
    2098:	80 91 a9 04 	lds	r24, 0x04A9	; 0x8004a9 <sensorsRead.2949>
    209c:	86 30       	cpi	r24, 0x06	; 6
    209e:	20 f4       	brcc	.+8      	; 0x20a8 <__vector_7+0xb2>
    20a0:	8f 5f       	subi	r24, 0xFF	; 255
    20a2:	80 93 a9 04 	sts	0x04A9, r24	; 0x8004a9 <sensorsRead.2949>
    20a6:	07 c0       	rjmp	.+14     	; 0x20b6 <__vector_7+0xc0>
		{
			sensorsRead = 0;
    20a8:	10 92 a9 04 	sts	0x04A9, r1	; 0x8004a9 <sensorsRead.2949>
			readSens.ready |= (1<<SENSORS_READY);
    20ac:	e4 e0       	ldi	r30, 0x04	; 4
    20ae:	f5 e0       	ldi	r31, 0x05	; 5
    20b0:	87 8d       	ldd	r24, Z+31	; 0x1f
    20b2:	84 60       	ori	r24, 0x04	; 4
    20b4:	87 8f       	std	Z+31, r24	; 0x1f
		}
		
		if ( operating.seconds++ > 59 )
    20b6:	e5 e2       	ldi	r30, 0x25	; 37
    20b8:	f5 e0       	ldi	r31, 0x05	; 5
    20ba:	83 81       	ldd	r24, Z+3	; 0x03
    20bc:	91 e0       	ldi	r25, 0x01	; 1
    20be:	98 0f       	add	r25, r24
    20c0:	93 83       	std	Z+3, r25	; 0x03
    20c2:	8c 33       	cpi	r24, 0x3C	; 60
    20c4:	98 f0       	brcs	.+38     	; 0x20ec <__vector_7+0xf6>
		{
			operating.seconds = 0;
    20c6:	13 82       	std	Z+3, r1	; 0x03
			if ( operating.minutes++ > 59 )
    20c8:	82 81       	ldd	r24, Z+2	; 0x02
    20ca:	91 e0       	ldi	r25, 0x01	; 1
    20cc:	98 0f       	add	r25, r24
    20ce:	92 83       	std	Z+2, r25	; 0x02
    20d0:	8c 33       	cpi	r24, 0x3C	; 60
    20d2:	60 f0       	brcs	.+24     	; 0x20ec <__vector_7+0xf6>
			{
				operating.minutes = 0;
    20d4:	12 82       	std	Z+2, r1	; 0x02
				operating.hours++;
    20d6:	80 81       	ld	r24, Z
    20d8:	91 81       	ldd	r25, Z+1	; 0x01
    20da:	01 96       	adiw	r24, 0x01	; 1
    20dc:	91 83       	std	Z+1, r25	; 0x01
    20de:	80 83       	st	Z, r24
				eeprom_update_word( &operatingEEP.hours , operating.hours );
    20e0:	60 81       	ld	r22, Z
    20e2:	71 81       	ldd	r23, Z+1	; 0x01
    20e4:	82 e0       	ldi	r24, 0x02	; 2
    20e6:	90 e0       	ldi	r25, 0x00	; 0
    20e8:	0e 94 2e 11 	call	0x225c	; 0x225c <eeprom_update_word>
	
    static uint8_t ct0, ct1;
    static uint16_t rpt;
    uint8_t i;
    
    i =  internalKey.keyState ^ ~ENC_PIN;
    20ec:	e9 e3       	ldi	r30, 0x39	; 57
    20ee:	f5 e0       	ldi	r31, 0x05	; 5
    20f0:	91 81       	ldd	r25, Z+1	; 0x01
    20f2:	89 b3       	in	r24, 0x19	; 25
    20f4:	80 95       	com	r24
    20f6:	28 2f       	mov	r18, r24
    20f8:	29 27       	eor	r18, r25
    ct0 = ~( ct0 & i );
    20fa:	90 91 a8 04 	lds	r25, 0x04A8	; 0x8004a8 <ct0.2950>
    20fe:	92 23       	and	r25, r18
    2100:	89 2f       	mov	r24, r25
    2102:	80 95       	com	r24
    2104:	80 93 a8 04 	sts	0x04A8, r24	; 0x8004a8 <ct0.2950>
    ct1 = ct0 ^ (ct1 & i);
    2108:	90 91 a7 04 	lds	r25, 0x04A7	; 0x8004a7 <ct1.2951>
    210c:	92 23       	and	r25, r18
    210e:	98 27       	eor	r25, r24
    2110:	90 93 a7 04 	sts	0x04A7, r25	; 0x8004a7 <ct1.2951>
    2114:	82 23       	and	r24, r18
    i &= ct0 & ct1;
    2116:	89 23       	and	r24, r25
    internalKey.keyState ^= i;
    2118:	91 81       	ldd	r25, Z+1	; 0x01
    211a:	98 27       	eor	r25, r24
    211c:	91 83       	std	Z+1, r25	; 0x01
    internalKey.keyPress |= internalKey.keyState & i;
    211e:	21 81       	ldd	r18, Z+1	; 0x01
    2120:	90 81       	ld	r25, Z
    2122:	82 23       	and	r24, r18
    2124:	89 2b       	or	r24, r25
    2126:	80 83       	st	Z, r24
    
    if( (internalKey.keyState & 1<<ENC_SWITCH_bp) == 0 )   // check repeat function
    2128:	81 81       	ldd	r24, Z+1	; 0x01
    212a:	88 23       	and	r24, r24
    212c:	3c f0       	brlt	.+14     	; 0x213c <__vector_7+0x146>
    rpt = 150;                               // start delay
    if(--rpt == 0 )
    212e:	85 e9       	ldi	r24, 0x95	; 149
    2130:	90 e0       	ldi	r25, 0x00	; 0
    2132:	90 93 a6 04 	sts	0x04A6, r25	; 0x8004a6 <rpt.2952+0x1>
    2136:	80 93 a5 04 	sts	0x04A5, r24	; 0x8004a5 <rpt.2952>
    213a:	12 c0       	rjmp	.+36     	; 0x2160 <__vector_7+0x16a>
    213c:	80 91 a5 04 	lds	r24, 0x04A5	; 0x8004a5 <rpt.2952>
    2140:	90 91 a6 04 	lds	r25, 0x04A6	; 0x8004a6 <rpt.2952+0x1>
    2144:	01 97       	sbiw	r24, 0x01	; 1
    2146:	90 93 a6 04 	sts	0x04A6, r25	; 0x8004a6 <rpt.2952+0x1>
    214a:	80 93 a5 04 	sts	0x04A5, r24	; 0x8004a5 <rpt.2952>
    214e:	89 2b       	or	r24, r25
    2150:	39 f4       	brne	.+14     	; 0x2160 <__vector_7+0x16a>
    {
		//rpt = 50;
	    internalKey.keyRpt |= internalKey.keyState & 1<<ENC_SWITCH_bp;
    2152:	e9 e3       	ldi	r30, 0x39	; 57
    2154:	f5 e0       	ldi	r31, 0x05	; 5
    2156:	81 81       	ldd	r24, Z+1	; 0x01
    2158:	92 81       	ldd	r25, Z+2	; 0x02
    215a:	80 78       	andi	r24, 0x80	; 128
    215c:	89 2b       	or	r24, r25
    215e:	82 83       	std	Z+2, r24	; 0x02
    }
    
    if ( get_key_rpt( 1<<ENC_SWITCH_bp ) )
    2160:	80 e8       	ldi	r24, 0x80	; 128
    2162:	0e 94 65 0f 	call	0x1eca	; 0x1eca <get_key_rpt>
    2166:	88 23       	and	r24, r24
    2168:	19 f0       	breq	.+6      	; 0x2170 <__vector_7+0x17a>
    {
	    button.enterRpt = 1;
    216a:	81 e0       	ldi	r24, 0x01	; 1
    216c:	80 93 2c 05 	sts	0x052C, r24	; 0x80052c <button+0x1>
    }
    
    if ( get_key_press( 1<<ENC_SWITCH_bp ) )
    2170:	80 e8       	ldi	r24, 0x80	; 128
    2172:	0e 94 5b 0f 	call	0x1eb6	; 0x1eb6 <get_key_press>
    2176:	88 23       	and	r24, r24
    2178:	19 f0       	breq	.+6      	; 0x2180 <__vector_7+0x18a>
    {
	    button.enter = 1;
    217a:	81 e0       	ldi	r24, 0x01	; 1
    217c:	80 93 2b 05 	sts	0x052B, r24	; 0x80052b <button>
    }	
}
    2180:	ff 91       	pop	r31
    2182:	ef 91       	pop	r30
    2184:	bf 91       	pop	r27
    2186:	af 91       	pop	r26
    2188:	9f 91       	pop	r25
    218a:	8f 91       	pop	r24
    218c:	7f 91       	pop	r23
    218e:	6f 91       	pop	r22
    2190:	5f 91       	pop	r21
    2192:	4f 91       	pop	r20
    2194:	3f 91       	pop	r19
    2196:	2f 91       	pop	r18
    2198:	0f 90       	pop	r0
    219a:	0f be       	out	0x3f, r0	; 63
    219c:	0f 90       	pop	r0
    219e:	1f 90       	pop	r1
    21a0:	18 95       	reti

000021a2 <__vector_4>:

/* Timer[2] -> Compare Match
*	Wird ca. jede 1ms aufgerufen
*/
ISR(TIMER2_COMP_vect)
{	
    21a2:	1f 92       	push	r1
    21a4:	0f 92       	push	r0
    21a6:	0f b6       	in	r0, 0x3f	; 63
    21a8:	0f 92       	push	r0
    21aa:	11 24       	eor	r1, r1
    21ac:	2f 93       	push	r18
    21ae:	8f 93       	push	r24
    21b0:	9f 93       	push	r25
    21b2:	af 93       	push	r26
    21b4:	bf 93       	push	r27
    21b6:	ef 93       	push	r30
    21b8:	ff 93       	push	r31
    /*
    *   Drehenc auswertung.
    */
    enc.last = ( ( enc.last << 2 ) & 0x0F );
    21ba:	e0 e6       	ldi	r30, 0x60	; 96
    21bc:	f4 e0       	ldi	r31, 0x04	; 4
    21be:	81 89       	ldd	r24, Z+17	; 0x11
    21c0:	24 e0       	ldi	r18, 0x04	; 4
    21c2:	82 02       	muls	r24, r18
    21c4:	c0 01       	movw	r24, r0
    21c6:	11 24       	eor	r1, r1
    21c8:	8f 70       	andi	r24, 0x0F	; 15
    21ca:	81 8b       	std	Z+17, r24	; 0x11
    if (ENC_PIN & 1<<ENC_PHASE_B_bp)
    21cc:	ce 9b       	sbis	0x19, 6	; 25
    21ce:	03 c0       	rjmp	.+6      	; 0x21d6 <__vector_4+0x34>
    {
        enc.last |= 2;
    21d0:	81 89       	ldd	r24, Z+17	; 0x11
    21d2:	82 60       	ori	r24, 0x02	; 2
    21d4:	81 8b       	std	Z+17, r24	; 0x11
    }
    if (ENC_PIN & 1<<ENC_PHASE_A_bp)
    21d6:	cd 9b       	sbis	0x19, 5	; 25
    21d8:	05 c0       	rjmp	.+10     	; 0x21e4 <__vector_4+0x42>
    {
        enc.last |= 1;
    21da:	e0 e6       	ldi	r30, 0x60	; 96
    21dc:	f4 e0       	ldi	r31, 0x04	; 4
    21de:	81 89       	ldd	r24, Z+17	; 0x11
    21e0:	81 60       	ori	r24, 0x01	; 1
    21e2:	81 8b       	std	Z+17, r24	; 0x11
    }   
    enc.result += enc.table[enc.last]; 	
    21e4:	a0 e6       	ldi	r26, 0x60	; 96
    21e6:	b4 e0       	ldi	r27, 0x04	; 4
    21e8:	51 96       	adiw	r26, 0x11	; 17
    21ea:	ec 91       	ld	r30, X
    21ec:	51 97       	sbiw	r26, 0x11	; 17
    21ee:	0e 2e       	mov	r0, r30
    21f0:	00 0c       	add	r0, r0
    21f2:	ff 0b       	sbc	r31, r31
    21f4:	e0 5a       	subi	r30, 0xA0	; 160
    21f6:	fb 4f       	sbci	r31, 0xFB	; 251
    21f8:	80 81       	ld	r24, Z
    21fa:	50 96       	adiw	r26, 0x10	; 16
    21fc:	9c 91       	ld	r25, X
    21fe:	50 97       	sbiw	r26, 0x10	; 16
    2200:	89 0f       	add	r24, r25
    2202:	50 96       	adiw	r26, 0x10	; 16
    2204:	8c 93       	st	X, r24
    2206:	ff 91       	pop	r31
    2208:	ef 91       	pop	r30
    220a:	bf 91       	pop	r27
    220c:	af 91       	pop	r26
    220e:	9f 91       	pop	r25
    2210:	8f 91       	pop	r24
    2212:	2f 91       	pop	r18
    2214:	0f 90       	pop	r0
    2216:	0f be       	out	0x3f, r0	; 63
    2218:	0f 90       	pop	r0
    221a:	1f 90       	pop	r1
    221c:	18 95       	reti

0000221e <eeprom_read_byte>:
    221e:	e1 99       	sbic	0x1c, 1	; 28
    2220:	fe cf       	rjmp	.-4      	; 0x221e <eeprom_read_byte>
    2222:	9f bb       	out	0x1f, r25	; 31
    2224:	8e bb       	out	0x1e, r24	; 30
    2226:	e0 9a       	sbi	0x1c, 0	; 28
    2228:	99 27       	eor	r25, r25
    222a:	8d b3       	in	r24, 0x1d	; 29
    222c:	08 95       	ret

0000222e <eeprom_read_word>:
    222e:	a8 e1       	ldi	r26, 0x18	; 24
    2230:	b0 e0       	ldi	r27, 0x00	; 0
    2232:	42 e0       	ldi	r20, 0x02	; 2
    2234:	50 e0       	ldi	r21, 0x00	; 0
    2236:	0c 94 48 11 	jmp	0x2290	; 0x2290 <eeprom_read_blraw>

0000223a <eeprom_update_byte>:
    223a:	26 2f       	mov	r18, r22

0000223c <eeprom_update_r18>:
    223c:	e1 99       	sbic	0x1c, 1	; 28
    223e:	fe cf       	rjmp	.-4      	; 0x223c <eeprom_update_r18>
    2240:	9f bb       	out	0x1f, r25	; 31
    2242:	8e bb       	out	0x1e, r24	; 30
    2244:	e0 9a       	sbi	0x1c, 0	; 28
    2246:	01 97       	sbiw	r24, 0x01	; 1
    2248:	0d b2       	in	r0, 0x1d	; 29
    224a:	02 16       	cp	r0, r18
    224c:	31 f0       	breq	.+12     	; 0x225a <eeprom_update_r18+0x1e>
    224e:	2d bb       	out	0x1d, r18	; 29
    2250:	0f b6       	in	r0, 0x3f	; 63
    2252:	f8 94       	cli
    2254:	e2 9a       	sbi	0x1c, 2	; 28
    2256:	e1 9a       	sbi	0x1c, 1	; 28
    2258:	0f be       	out	0x3f, r0	; 63
    225a:	08 95       	ret

0000225c <eeprom_update_word>:
    225c:	01 96       	adiw	r24, 0x01	; 1
    225e:	27 2f       	mov	r18, r23
    2260:	0e 94 1e 11 	call	0x223c	; 0x223c <eeprom_update_r18>
    2264:	0c 94 1d 11 	jmp	0x223a	; 0x223a <eeprom_update_byte>

00002268 <eeprom_write_byte>:
    2268:	26 2f       	mov	r18, r22

0000226a <eeprom_write_r18>:
    226a:	e1 99       	sbic	0x1c, 1	; 28
    226c:	fe cf       	rjmp	.-4      	; 0x226a <eeprom_write_r18>
    226e:	9f bb       	out	0x1f, r25	; 31
    2270:	8e bb       	out	0x1e, r24	; 30
    2272:	2d bb       	out	0x1d, r18	; 29
    2274:	0f b6       	in	r0, 0x3f	; 63
    2276:	f8 94       	cli
    2278:	e2 9a       	sbi	0x1c, 2	; 28
    227a:	e1 9a       	sbi	0x1c, 1	; 28
    227c:	0f be       	out	0x3f, r0	; 63
    227e:	01 96       	adiw	r24, 0x01	; 1
    2280:	08 95       	ret

00002282 <eeprom_write_word>:
    2282:	0e 94 34 11 	call	0x2268	; 0x2268 <eeprom_write_byte>
    2286:	27 2f       	mov	r18, r23
    2288:	0c 94 35 11 	jmp	0x226a	; 0x226a <eeprom_write_r18>

0000228c <eeprom_read_block>:
    228c:	dc 01       	movw	r26, r24
    228e:	cb 01       	movw	r24, r22

00002290 <eeprom_read_blraw>:
    2290:	fc 01       	movw	r30, r24
    2292:	e1 99       	sbic	0x1c, 1	; 28
    2294:	fe cf       	rjmp	.-4      	; 0x2292 <eeprom_read_blraw+0x2>
    2296:	06 c0       	rjmp	.+12     	; 0x22a4 <eeprom_read_blraw+0x14>
    2298:	ff bb       	out	0x1f, r31	; 31
    229a:	ee bb       	out	0x1e, r30	; 30
    229c:	e0 9a       	sbi	0x1c, 0	; 28
    229e:	31 96       	adiw	r30, 0x01	; 1
    22a0:	0d b2       	in	r0, 0x1d	; 29
    22a2:	0d 92       	st	X+, r0
    22a4:	41 50       	subi	r20, 0x01	; 1
    22a6:	50 40       	sbci	r21, 0x00	; 0
    22a8:	b8 f7       	brcc	.-18     	; 0x2298 <eeprom_read_blraw+0x8>
    22aa:	08 95       	ret

000022ac <_exit>:
    22ac:	f8 94       	cli

000022ae <__stop_program>:
    22ae:	ff cf       	rjmp	.-2      	; 0x22ae <__stop_program>
