
Tempy.elf:     file format elf32-avr

Sections:
Idx Name          Size      VMA       LMA       File off  Algn
  0 .text         00003a1e  00000000  00000000  000000b4  2**1
                  CONTENTS, ALLOC, LOAD, READONLY, CODE
  1 .data         0000053e  00800060  00003a1e  00003ad2  2**0
                  CONTENTS, ALLOC, LOAD, DATA
  2 .bss          000000cc  0080059e  0080059e  00004010  2**0
                  ALLOC
  3 .eeprom       00000008  00810000  00810000  00004010  2**0
                  CONTENTS, ALLOC, LOAD, DATA
  4 .comment      00000030  00000000  00000000  00004018  2**0
                  CONTENTS, READONLY
  5 .note.gnu.avr.deviceinfo 0000003c  00000000  00000000  00004048  2**2
                  CONTENTS, READONLY
  6 .debug_aranges 000003d8  00000000  00000000  00004088  2**3
                  CONTENTS, READONLY, DEBUGGING
  7 .debug_info   000050fa  00000000  00000000  00004460  2**0
                  CONTENTS, READONLY, DEBUGGING
  8 .debug_abbrev 0000165c  00000000  00000000  0000955a  2**0
                  CONTENTS, READONLY, DEBUGGING
  9 .debug_line   00002905  00000000  00000000  0000abb6  2**0
                  CONTENTS, READONLY, DEBUGGING
 10 .debug_frame  00000a5c  00000000  00000000  0000d4bc  2**2
                  CONTENTS, READONLY, DEBUGGING
 11 .debug_str    0000114c  00000000  00000000  0000df18  2**0
                  CONTENTS, READONLY, DEBUGGING
 12 .debug_loc    00003923  00000000  00000000  0000f064  2**0
                  CONTENTS, READONLY, DEBUGGING
 13 .debug_ranges 00000320  00000000  00000000  00012987  2**0
                  CONTENTS, READONLY, DEBUGGING

Disassembly of section .text:

00000000 <__vectors>:
       0:	0c 94 53 06 	jmp	0xca6	; 0xca6 <__ctors_end>
       4:	0c 94 70 06 	jmp	0xce0	; 0xce0 <__bad_interrupt>
       8:	0c 94 70 06 	jmp	0xce0	; 0xce0 <__bad_interrupt>
       c:	0c 94 70 06 	jmp	0xce0	; 0xce0 <__bad_interrupt>
      10:	0c 94 11 19 	jmp	0x3222	; 0x3222 <__vector_4>
      14:	0c 94 70 06 	jmp	0xce0	; 0xce0 <__bad_interrupt>
      18:	0c 94 70 06 	jmp	0xce0	; 0xce0 <__bad_interrupt>
      1c:	0c 94 3b 18 	jmp	0x3076	; 0x3076 <__vector_7>
      20:	0c 94 70 06 	jmp	0xce0	; 0xce0 <__bad_interrupt>
      24:	0c 94 70 06 	jmp	0xce0	; 0xce0 <__bad_interrupt>
      28:	0c 94 70 06 	jmp	0xce0	; 0xce0 <__bad_interrupt>
      2c:	0c 94 70 06 	jmp	0xce0	; 0xce0 <__bad_interrupt>
      30:	0c 94 70 06 	jmp	0xce0	; 0xce0 <__bad_interrupt>
      34:	0c 94 70 06 	jmp	0xce0	; 0xce0 <__bad_interrupt>
      38:	0c 94 70 06 	jmp	0xce0	; 0xce0 <__bad_interrupt>
      3c:	0c 94 70 06 	jmp	0xce0	; 0xce0 <__bad_interrupt>
      40:	0c 94 70 06 	jmp	0xce0	; 0xce0 <__bad_interrupt>
      44:	0c 94 70 06 	jmp	0xce0	; 0xce0 <__bad_interrupt>
      48:	0c 94 70 06 	jmp	0xce0	; 0xce0 <__bad_interrupt>
      4c:	0c 94 70 06 	jmp	0xce0	; 0xce0 <__bad_interrupt>
      50:	0c 94 70 06 	jmp	0xce0	; 0xce0 <__bad_interrupt>

00000054 <System5x7>:
      54:	00 00 05 07 20 7f 00 00 00 00 00 00 00 5f 00 00     .... ........_..
      64:	00 07 00 07 00 14 7f 14 7f 14 24 2a 7f 2a 12 23     ..........$*.*.#
      74:	13 08 64 62 36 49 55 22 50 00 05 03 00 00 00 1c     ..db6IU"P.......
      84:	22 41 00 00 41 22 1c 00 08 2a 1c 2a 08 08 08 3e     "A..A"...*.*...>
      94:	08 08 00 50 30 00 00 08 08 08 08 08 00 60 60 00     ...P0........``.
      a4:	00 20 10 08 04 02 3e 51 49 45 3e 00 42 7f 40 00     . ....>QIE>.B.@.
      b4:	42 61 51 49 46 21 41 45 4b 31 18 14 12 7f 10 27     BaQIF!AEK1.....'
      c4:	45 45 45 39 3c 4a 49 49 30 01 71 09 05 03 36 49     EEE9<JII0.q...6I
      d4:	49 49 36 06 49 49 29 1e 00 36 36 00 00 00 56 36     II6.II)..66...V6
      e4:	00 00 00 08 14 22 41 14 14 14 14 14 41 22 14 08     ....."A.....A"..
      f4:	00 02 01 51 09 06 32 49 79 41 3e 7e 11 11 11 7e     ...Q..2IyA>~...~
     104:	7f 49 49 49 36 3e 41 41 41 22 7f 41 41 22 1c 7f     .III6>AAA".AA"..
     114:	49 49 49 41 7f 09 09 01 01 3e 41 41 51 32 7f 08     IIIA.....>AAQ2..
     124:	08 08 7f 00 41 7f 41 00 20 40 41 3f 01 7f 08 14     ....A.A. @A?....
     134:	22 41 7f 40 40 40 40 7f 02 04 02 7f 7f 04 08 10     "A.@@@@.........
     144:	7f 3e 41 41 41 3e 7f 09 09 09 06 3e 41 51 21 5e     .>AAA>.....>AQ!^
     154:	7f 09 19 29 46 46 49 49 49 31 01 01 7f 01 01 3f     ...)FFIII1.....?
     164:	40 40 40 3f 1f 20 40 20 1f 7f 20 18 20 7f 63 14     @@@?. @ .. . .c.
     174:	08 14 63 03 04 78 04 03 61 51 49 45 43 00 00 7f     ..c..x..aQIEC...
     184:	41 41 02 04 08 10 20 41 41 7f 00 00 04 02 01 02     AA.... AA.......
     194:	04 40 40 40 40 40 00 01 02 04 00 20 54 54 54 78     .@@@@@..... TTTx
     1a4:	7f 48 44 44 38 38 44 44 44 20 38 44 44 48 7f 38     .HDD88DDD 8DDH.8
     1b4:	54 54 54 18 08 7e 09 01 02 08 14 54 54 3c 7f 08     TTT..~.....TT<..
     1c4:	04 04 78 00 44 7d 40 00 20 40 44 3d 00 00 7f 10     ..x.D}@. @D=....
     1d4:	28 44 00 41 7f 40 00 7c 04 18 04 78 7c 08 04 04     (D.A.@.|...x|...
     1e4:	78 38 44 44 44 38 7c 14 14 14 08 08 14 14 18 7c     x8DDD8|........|
     1f4:	7c 08 04 04 08 48 54 54 54 20 04 3f 44 40 20 3c     |....HTTT .?D@ <
     204:	40 40 20 7c 1c 20 40 20 1c 3c 40 30 40 3c 44 28     @@ |. @ .<@0@<D(
     214:	10 28 44 0c 50 50 50 3c 44 64 54 4c 44 00 08 36     .(D.PPP<DdTLD..6
     224:	41 00 00 00 7f 00 00 00 41 36 08 00 08 08 2a 1c     A.......A6....*.
     234:	08 08 1c 2a 08 08                                   ...*..

0000023a <fixednums15x31>:
     23a:	00 00 0f 1f 2a 11 00 00 00 00 00 00 00 00 00 00     ....*...........
	...
     28a:	00 c0 c0 c0 c0 c0 c0 fc fc fc fc c0 c0 c0 c0 c0     ................
     29a:	00 00 00 00 00 00 0f 0f 0f 0f 00 00 00 00 00 00     ................
	...
     2ea:	00 cf cf 3f 3f 00 00 00 00 00 00 00 00 00 00 00     ...??...........
	...
     302:	00 c0 c0 c0 c0 c0 c0 c0 c0 c0 c0 c0 c0 c0 c0 c0     ................
	...
     362:	00 0f 0f 0f 0f 00 00 00 00 00 00 00 00 00 00 00     ................
     372:	00 00 00 00 f0 f0 ff ff 0f 00 00 00 00 00 00 f0     ................
     382:	f0 ff ff 0f 0f 00 00 00 00 00 f0 f0 ff ff 0f 0f     ................
	...
     39a:	0f 0f 0f 00 00 00 00 00 00 00 00 00 00 00 f0 f0     ................
     3aa:	fc fc 0f 0f 03 03 03 cf cf fc fc f0 f0 ff ff ff     ................
     3ba:	ff 00 00 c0 c0 3c 3f 03 ff ff ff ff ff ff ff ff     .....<?.........
     3ca:	3c 3c 03 03 00 00 00 ff ff ff ff 00 00 03 03 0f     <<..............
     3da:	0f 0c 0c 0c 0f 0f 03 03 00 00 30 30 30 30 3c 3c     ..........0000<<
     3ea:	ff ff ff ff 00 00 00 00 00 00 00 00 00 00 00 ff     ................
     3fa:	ff ff ff 00 00 00 00 00 00 00 00 00 00 00 ff ff     ................
     40a:	ff ff 00 00 00 00 00 0c 0c 0c 0c 0c 0c 0f 0f 0f     ................
     41a:	0f 0c 0c 0c 0c 0c f0 f0 fc fc 0f 0f 03 03 03 03     ................
     42a:	0f ff fc fc f0 00 00 00 00 00 00 00 00 c0 c0 f0     ................
     43a:	ff 3f 3f 0f c0 c0 f0 f0 3c 3c 0f 0f 03 03 00 00     .??.....<<......
     44a:	00 00 00 0f 0f 0f 0f 0c 0c 0c 0c 0c 0c 0c 0c 0c     ................
     45a:	0c 0c f0 f0 fc fc 0f 0f 03 03 03 03 0f 1f fc fc     ................
     46a:	f0 00 00 00 00 30 30 30 30 30 30 30 30 ff df 8f     .....00000000...
     47a:	f0 f0 f0 f0 00 00 00 00 00 00 00 80 ff ff ff 00     ................
     48a:	00 03 03 0f 0f 0c 0c 0c 0c 0f 0f 03 03 00 00 00     ................
     49a:	00 00 f0 f0 ff ff 0f 0f 00 00 00 00 00 00 00 fc     ................
     4aa:	fc ff ff 03 03 c0 c0 c0 c0 00 00 00 ff ff ff ff     ................
     4ba:	c0 c0 c0 c0 ff ff ff ff c0 c0 c0 00 00 00 00 00     ................
     4ca:	00 00 00 0f 0f 0f 0f 00 00 00 ff ff ff ff 03 03     ................
     4da:	03 03 03 03 03 03 03 03 03 0f 0f 0f 0f 0c 0c 0c     ................
     4ea:	0c 0c 0c 3c fc f0 f0 c0 f0 f0 f0 f0 00 00 00 00     ...<............
     4fa:	00 00 00 ff ff ff ff 00 00 03 03 0f 0f 0c 0c 0c     ................
     50a:	0c 0f 0f 03 03 00 00 00 c0 c0 f0 f0 3c 3c 0f 0f     ............<<..
     51a:	03 03 03 03 03 fc fc ff ff 33 33 30 30 30 30 f0     .........330000.
     52a:	f0 c0 c0 00 ff ff ff ff 00 00 00 00 00 00 00 ff     ................
     53a:	ff ff ff 00 00 03 03 0f 0f 0c 0c 0c 0c 0f 0f 03     ................
     54a:	03 00 03 03 03 03 03 03 03 03 03 03 03 ff ff ff     ................
     55a:	ff 00 00 00 00 00 00 00 c0 c0 ff ff 3f 3f 00 00     ............??..
     56a:	00 00 00 00 00 f0 f0 ff ff 0f 0f 00 00 00 00 00     ................
     57a:	00 00 00 00 0f 0f 0f 0f 00 00 00 00 00 00 f0 f0     ................
     58a:	fc fc 0f 0f 03 03 03 0f 0f fc fc f0 f0 03 03 cf     ................
     59a:	cf fc fc 30 30 30 fc fc cf cf 03 03 ff ff ff ff     ...000..........
     5aa:	00 00 00 00 00 00 00 ff ff ff ff 00 00 03 03 0f     ................
     5ba:	0f 0c 0c 0c 0f 0f 03 03 00 00 e0 f0 fc fc 0f 0f     ................
     5ca:	03 03 03 0f 0f fc fc f0 e0 07 0f 3f 3f f0 f0 c0     ...........??...
     5da:	c0 c0 c0 c0 ff ff ff ff 00 00 00 00 00 00 00 00     ................
     5ea:	c0 c0 fc fc 3f 3f 03 0c 0c 0c 0c 0c 0c 0f 0f 03     ....??..........
     5fa:	03 00 00 00 00 00 00 00 00 00 00 00 00 00 00 00     ................
	...
     612:	00 00 00 3c 3c 3c 3c 00 00 00 00 00 00 00 00 00     ...<<<<.........
	...
     632:	00 0f 0f 0f 0f 00 00 00 00 00                       ..........

0000063c <Arial_Black_16>:
     63c:	30 86 0a 0f 20 60 00 03 07 0b 09 0e 0b 03 05 05     0... `..........
     64c:	06 09 03 05 03 04 08 06 08 08 09 08 08 08 08 08     ................
     65c:	03 03 09 08 09 08 0c 0c 09 09 09 09 08 0a 0a 03     ................
     66c:	09 0c 08 0c 0a 0a 09 0a 0a 09 0b 0a 0c 10 0c 0b     ................
     67c:	09 05 04 05 08 08 03 09 09 09 09 09 06 09 09 03     ................
     68c:	04 0a 03 0d 09 09 09 09 06 08 06 09 09 0f 0b 09     ................
     69c:	07 06 02 06 09 08 fe fe fe 1d 1d 1d 1e 1e 1e 00     ................
     6ac:	1e 1e 1e 00 00 00 00 00 00 00 30 30 f0 fe 3e 30     ..........00..>0
     6bc:	30 f0 fe 3e 30 06 1e 1f 07 06 06 1e 1f 07 06 06     0..>0...........
     6cc:	38 7c fe e6 ff c6 ce 8c 0c 04 0c 1c 18 3f 19 1f     8|...........?..
     6dc:	0f 07 3c 7e 42 42 7e 3c 80 60 10 8c 82 80 80 00     ..<~BB~<.`......
     6ec:	00 00 00 10 0c 02 01 00 0f 1f 10 10 1f 0f 00 80     ................
     6fc:	9c fe fe e6 be 3e 9c 80 80 07 0f 1f 19 18 19 1f     .....>..........
     70c:	0f 0f 1f 1d 1e 1e 1e 00 00 00 e0 f8 fc 1e 02 0f     ................
     71c:	3f 7f f0 80 02 1e fc f8 e0 80 f0 7f 3f 0f 08 68     ?...........?..h
     72c:	3e 3e 68 08 00 00 00 00 00 00 c0 c0 c0 f8 f8 f8     >>h.............
     73c:	c0 c0 c0 01 01 01 0f 0f 0f 01 01 01 00 00 00 dc     ................
     74c:	7c 3c 80 80 80 80 80 03 03 03 03 03 00 00 00 1c     |<..............
     75c:	1c 1c 00 80 78 06 18 07 00 00 f8 fc fe 06 06 fe     ....x...........
     76c:	fc f8 07 0f 1f 18 18 1f 0f 07 60 70 38 fe fe fe     ..........`p8...
     77c:	00 00 00 1f 1f 1f 18 1c 1e 06 86 fe fc 78 18 1c     .............x..
     78c:	1e 1f 1b 19 18 18 08 1c 1e c6 c6 fe fc 38 06 0e     .............8..
     79c:	1e 18 18 1f 0f 07 80 c0 f0 38 1c fe fe fe 00 03     .........8......
     7ac:	03 03 03 03 1f 1f 1f 03 f0 fe fe 66 66 e6 c6 86     ...........ff...
     7bc:	06 0e 1e 18 18 1f 0f 07 f0 fc fe 46 66 ee ce 8c     ...........Ff...
     7cc:	03 0f 1f 18 18 1f 0f 07 06 06 06 86 e6 f6 1e 06     ................
     7dc:	00 00 1c 1f 1f 01 00 00 38 fc fe c6 c6 fe fc 38     ........8......8
     7ec:	07 0f 1f 18 18 1f 0f 07 78 fc fe 86 86 fe fc f0     ........x.......
     7fc:	04 0c 1d 19 18 1f 0f 03 70 70 70 1c 1c 1c 70 70     ........ppp...pp
     80c:	70 dc 7c 3c e0 e0 e0 f0 70 70 70 38 38 03 03 03     p.|<....ppp88...
     81c:	07 07 07 07 0e 0e 70 70 70 70 70 70 70 70 07 07     ......pppppppp..
     82c:	07 07 07 07 07 07 38 38 70 70 70 f0 e0 e0 e0 0e     ......88ppp.....
     83c:	0e 07 07 07 07 03 03 03 18 1c 9e c6 e6 fe 7c 38     ..............|8
     84c:	00 00 1d 1d 1d 00 00 00 e0 18 c4 f4 3a 0a 0a f2     ............:...
     85c:	fa 7c 08 f0 07 18 27 2f 48 48 4c 4f 4f 28 36 11     .|....'/HHLOO(6.
     86c:	00 80 e0 f8 fe 1e fe f8 e0 80 00 00 1c 1f 0f 07     ................
     87c:	06 06 06 07 0f 1f 1c 10 fe fe fe c6 c6 fe bc 98     ................
     88c:	00 1f 1f 1f 18 18 18 1f 0f 07 f0 fc fc 0e 06 0e     ................
     89c:	1e 1c 08 03 0f 1f 1c 18 1c 1f 0e 06 fe fe fe 06     ................
     8ac:	06 0e fe fc f0 1f 1f 1f 18 18 1c 1f 0f 03 fe fe     ................
     8bc:	fe c6 c6 c6 c6 c6 06 1f 1f 1f 18 18 18 18 18 18     ................
     8cc:	fe fe fe c6 c6 c6 c6 06 1f 1f 1f 00 00 00 00 00     ................
     8dc:	f0 fc fc 0e 06 c6 ce de dc c8 03 0f 0f 1c 18 18     ................
     8ec:	1c 1f 0f 0f fe fe fe c0 c0 c0 c0 fe fe fe 1f 1f     ................
     8fc:	1f 00 00 00 00 1f 1f 1f fe fe fe 1f 1f 1f 00 00     ................
     90c:	00 00 00 00 fe fe fe 06 0f 1f 1c 18 18 1f 0f 07     ................
     91c:	fe fe fe c0 e0 f0 f8 dc 0e 06 02 00 1f 1f 1f 00     ................
     92c:	00 00 01 07 1f 1e 18 10 fe fe fe 00 00 00 00 00     ................
     93c:	1f 1f 1f 18 18 18 18 18 fe fe fe 3e f8 80 80 f8     ...........>....
     94c:	3e fe fe fe 1f 1f 1f 00 03 1f 1f 03 00 1f 1f 1f     >...............
     95c:	fe fe fe 7c f0 e0 80 fe fe fe 1f 1f 1f 00 01 03     ...|............
     96c:	0f 1f 1f 1f f0 fc fc 0e 06 06 0e fc fc f0 03 0f     ................
     97c:	0f 1c 18 18 1c 0f 0f 03 fe fe fe c6 c6 c6 fe 7e     ...............~
     98c:	3c 1f 1f 1f 00 00 00 00 00 00 f0 fc fc 0e 06 06     <...............
     99c:	0e fc fc f0 03 0f 0f 1c 18 1e 1c 1f 1f 33 fe fe     .............3..
     9ac:	fe c6 c6 c6 fe 7e 3c 00 1f 1f 1f 00 00 03 0f 1f     .....~<.........
     9bc:	1c 10 38 7c fe e6 e6 ee de dc 98 06 0e 1e 1c 18     ..8|............
     9cc:	19 1f 0f 07 06 06 06 06 fe fe fe 06 06 06 06 00     ................
     9dc:	00 00 00 1f 1f 1f 00 00 00 00 fe fe fe 00 00 00     ................
     9ec:	00 fe fe fe 07 0f 1f 1c 18 18 1c 1f 0f 07 1e fe     ................
     9fc:	fc f0 80 00 80 f0 fc fe 1e 02 00 00 03 1f 1f 1c     ................
     a0c:	1f 1f 03 00 00 00 fe fe f8 00 80 f8 fe 3e fe f8     .............>..
     a1c:	80 00 f8 fe fe 06 00 0f 1f 1f 1f 07 01 00 01 07     ................
     a2c:	1f 1f 1f 0f 00 00 06 1e 3c f8 f0 e0 f0 f8 3c 1e     ........<.....<.
     a3c:	06 02 18 1e 0f 07 03 01 03 07 0f 1e 18 10 02 0e     ................
     a4c:	1e 7e f8 e0 f8 7e 1e 0e 02 00 00 00 00 1f 1f 1f     .~...~..........
     a5c:	00 00 00 00 00 06 06 c6 e6 f6 3e 1e 0e 1c 1e 1f     ..........>.....
     a6c:	1b 19 18 18 18 18 fe fe fe 06 06 ff ff ff c0 c0     ................
     a7c:	06 78 80 00 00 00 07 18 06 06 fe fe fe c0 c0 ff     .x..............
     a8c:	ff ff 40 70 7c 1e 1e 7c 70 40 00 00 00 00 00 00     ..@p|..|p@......
	...
     aa4:	00 00 40 40 40 40 40 40 40 40 02 06 04 00 00 00     ..@@@@@@@@......
     ab4:	40 60 70 30 b0 b0 f0 f0 e0 0e 1f 1f 1b 19 09 1f     @`p0............
     ac4:	1f 1f fe fe fe 60 30 30 f0 e0 c0 1f 1f 1f 0c 18     .....`00........
     ad4:	18 1f 0f 07 c0 e0 f0 70 30 30 70 60 40 07 0f 1f     .......p00p`@...
     ae4:	1c 18 18 1c 0c 04 c0 e0 f0 30 30 60 fe fe fe 07     .........00`....
     af4:	0f 1f 18 18 0c 1f 1f 1f c0 e0 f0 b0 b0 b0 f0 e0     ................
     b04:	c0 07 0f 1f 1d 19 19 1d 0d 05 30 fc fe fe 36 36     ..........0...66
     b14:	00 1f 1f 1f 00 00 c0 e0 f0 30 30 60 f0 f0 f0 47     .........00`...G
     b24:	cf df d8 d8 cc ff 7f 3f fe fe fe 20 30 30 f0 f0     .......?... 00..
     b34:	e0 1f 1f 1f 00 00 00 1f 1f 1f f6 f6 f6 1f 1f 1f     ................
     b44:	00 f6 f6 f6 c0 ff ff 7f fe fe fe c0 e0 f0 f0 30     ...............0
     b54:	10 00 1f 1f 1f 03 01 07 1f 1e 1c 10 fe fe fe 1f     ................
     b64:	1f 1f f0 f0 f0 20 30 f0 f0 e0 20 30 f0 f0 e0 1f     ..... 0... 0....
     b74:	1f 1f 00 00 1f 1f 1f 00 00 1f 1f 1f f0 f0 f0 20     ............... 
     b84:	30 30 f0 f0 e0 1f 1f 1f 00 00 00 1f 1f 1f c0 e0     00..............
     b94:	f0 70 30 70 f0 e0 c0 07 0f 1f 1c 18 1c 1f 0f 07     .p0p............
     ba4:	f0 f0 f0 60 30 70 f0 e0 c0 ff ff ff 0c 18 18 1f     ...`0p..........
     bb4:	0f 07 c0 e0 f0 30 30 60 f0 f0 f0 07 0f 1f 18 18     .....00`........
     bc4:	0c ff ff ff f0 f0 f0 20 30 10 1f 1f 1f 00 00 00     ....... 0.......
     bd4:	e0 f0 f0 90 90 b0 30 20 08 19 1b 13 13 1f 1f 0e     ......0 ........
     be4:	30 fc fc fe 30 30 00 0f 1f 1f 18 18 f0 f0 f0 00     0...00..........
     bf4:	00 00 f0 f0 f0 0f 1f 1f 18 18 08 1f 1f 1f 10 f0     ................
     c04:	f0 c0 00 e0 f0 f0 10 00 00 07 1f 1c 1f 07 00 00     ................
     c14:	10 f0 f0 e0 00 00 f0 f0 f0 00 00 e0 f0 f0 10 00     ................
     c24:	00 07 1f 1e 0f 03 00 03 0f 1e 1f 07 00 00 10 30     ...............0
     c34:	70 e0 c0 80 c0 e0 70 30 10 10 18 1e 0f 07 03 07     p.....p0........
     c44:	0f 1e 18 10 10 f0 f0 c0 00 c0 f0 f0 30 c0 c0 c7     ............0...
     c54:	ff fc 3f 0f 01 00 30 30 30 f0 f0 f0 30 1c 1e 1f     ..?...000...0...
     c64:	1b 19 18 18 00 00 fc fe fe 06 03 03 7f ff fc c0     ................
     c74:	fe fe ff ff 06 fe fe fc 00 00 c0 fc ff 7f 03 03     ................
     c84:	c0 e0 e0 e0 e0 c0 c0 c0 e0 01 00 00 00 01 01 01     ................
     c94:	01 00 f8 08 08 08 08 08 08 f8 1f 10 10 10 10 10     ................
     ca4:	10 1f                                               ..

00000ca6 <__ctors_end>:
     ca6:	11 24       	eor	r1, r1
     ca8:	1f be       	out	0x3f, r1	; 63
     caa:	cf e5       	ldi	r28, 0x5F	; 95
     cac:	d8 e0       	ldi	r29, 0x08	; 8
     cae:	de bf       	out	0x3e, r29	; 62
     cb0:	cd bf       	out	0x3d, r28	; 61

00000cb2 <__do_copy_data>:
     cb2:	15 e0       	ldi	r17, 0x05	; 5
     cb4:	a0 e6       	ldi	r26, 0x60	; 96
     cb6:	b0 e0       	ldi	r27, 0x00	; 0
     cb8:	ee e1       	ldi	r30, 0x1E	; 30
     cba:	fa e3       	ldi	r31, 0x3A	; 58
     cbc:	02 c0       	rjmp	.+4      	; 0xcc2 <__do_copy_data+0x10>
     cbe:	05 90       	lpm	r0, Z+
     cc0:	0d 92       	st	X+, r0
     cc2:	ae 39       	cpi	r26, 0x9E	; 158
     cc4:	b1 07       	cpc	r27, r17
     cc6:	d9 f7       	brne	.-10     	; 0xcbe <__do_copy_data+0xc>

00000cc8 <__do_clear_bss>:
     cc8:	26 e0       	ldi	r18, 0x06	; 6
     cca:	ae e9       	ldi	r26, 0x9E	; 158
     ccc:	b5 e0       	ldi	r27, 0x05	; 5
     cce:	01 c0       	rjmp	.+2      	; 0xcd2 <.do_clear_bss_start>

00000cd0 <.do_clear_bss_loop>:
     cd0:	1d 92       	st	X+, r1

00000cd2 <.do_clear_bss_start>:
     cd2:	aa 36       	cpi	r26, 0x6A	; 106
     cd4:	b2 07       	cpc	r27, r18
     cd6:	e1 f7       	brne	.-8      	; 0xcd0 <.do_clear_bss_loop>
     cd8:	0e 94 b2 17 	call	0x2f64	; 0x2f64 <main>
     cdc:	0c 94 0d 1d 	jmp	0x3a1a	; 0x3a1a <_exit>

00000ce0 <__bad_interrupt>:
     ce0:	0c 94 00 00 	jmp	0	; 0x0 <__vectors>

00000ce4 <buildVer>:
	static char build[19] = "0000000000000000000";
	
	/*
	*	major and minor version
	*/
	build[0] = verMajor;
     ce4:	e0 e6       	ldi	r30, 0x60	; 96
     ce6:	f0 e0       	ldi	r31, 0x00	; 0
     ce8:	81 e3       	ldi	r24, 0x31	; 49
     cea:	80 83       	st	Z, r24
	build[1] = '.';
     cec:	9e e2       	ldi	r25, 0x2E	; 46
     cee:	91 83       	std	Z+1, r25	; 0x01
	build[2] = verMinor;
     cf0:	80 e3       	ldi	r24, 0x30	; 48
     cf2:	82 83       	std	Z+2, r24	; 0x02
	build[3] = '.';
     cf4:	93 83       	std	Z+3, r25	; 0x03
	
	/*
	*	Fehlerkorrekturen
	*/
	build[4] = ( ( FEHLERKORREKTUR / 10000 )	% 10 )	+ '0';
     cf6:	84 83       	std	Z+4, r24	; 0x04
	build[5] = ( ( FEHLERKORREKTUR / 1000 )		% 10 )	+ '0';
     cf8:	85 83       	std	Z+5, r24	; 0x05
	build[6] = ( ( FEHLERKORREKTUR / 100 )		% 10 )	+ '0';
     cfa:	86 83       	std	Z+6, r24	; 0x06
	build[7] = ( ( FEHLERKORREKTUR / 10 )		% 10 )	+ '0';
     cfc:	87 83       	std	Z+7, r24	; 0x07
	build[8] = (   FEHLERKORREKTUR % 10 )				+ '0';
     cfe:	80 87       	std	Z+8, r24	; 0x08
	build[9] = '.';
     d00:	91 87       	std	Z+9, r25	; 0x09
	
	/*
	*	time.: hour|min
	*/
	build[10] = __TIME__[0];
     d02:	82 87       	std	Z+10, r24	; 0x0a
	build[11] = __TIME__[1];
     d04:	25 e3       	ldi	r18, 0x35	; 53
     d06:	23 87       	std	Z+11, r18	; 0x0b
	build[12] = __TIME__[3];
     d08:	24 87       	std	Z+12, r18	; 0x0c
	build[13] = __TIME__[4];
     d0a:	38 e3       	ldi	r19, 0x38	; 56
     d0c:	35 87       	std	Z+13, r19	; 0x0d
	
	build[14] = '.';
     d0e:	96 87       	std	Z+14, r25	; 0x0e
	
	/*
	*	day
	*/
	build[15] = ((__DATE__[4] >= '0') ? (__DATE__[4]) : '0');
     d10:	92 e3       	ldi	r25, 0x32	; 50
     d12:	97 87       	std	Z+15, r25	; 0x0f
	build[16] = (__DATE__[ 5]);
     d14:	80 8b       	std	Z+16, r24	; 0x10
	
	if(__DATE__[0] == 'A' && __DATE__[1] == 'p')
	build[17] = '4'; // April
	
	if(__DATE__[0] == 'M' && __DATE__[1] == 'a' && __DATE__[2] == 'y')
	build[17] = '5'; // Mai
     d16:	21 8b       	std	Z+17, r18	; 0x11
	if(__DATE__[0] == 'D'){
		build[16] = '1';
		build[17] = '2'; // Dezember
	}

	build[18] = '\0';
     d18:	12 8a       	std	Z+18, r1	; 0x12
	
	return build;
}
     d1a:	cf 01       	movw	r24, r30
     d1c:	08 95       	ret

00000d1e <BMP180_I2C_bus_write>:

static struct bmp180_t *p_bmp180;
struct bmp180_t bmp180;

s8 BMP180_I2C_bus_write(u8 dev_addr, u8 reg_addr, u8 *reg_data, u8 cnt)
{
     d1e:	cf 93       	push	r28
     d20:	df 93       	push	r29
     d22:	cd b7       	in	r28, 0x3d	; 61
     d24:	de b7       	in	r29, 0x3e	; 62
     d26:	28 97       	sbiw	r28, 0x08	; 8
     d28:	0f b6       	in	r0, 0x3f	; 63
     d2a:	f8 94       	cli
     d2c:	de bf       	out	0x3e, r29	; 62
     d2e:	0f be       	out	0x3f, r0	; 63
     d30:	cd bf       	out	0x3d, r28	; 61
	I2cTransfer_t Tx;
	
	Tx.ptrData = reg_data;
     d32:	5a 83       	std	Y+2, r21	; 0x02
     d34:	49 83       	std	Y+1, r20	; 0x01
	Tx.uiLength = cnt;
     d36:	30 e0       	ldi	r19, 0x00	; 0
     d38:	3c 83       	std	Y+4, r19	; 0x04
     d3a:	2b 83       	std	Y+3, r18	; 0x03
	Tx.uiRegisterAddress = reg_addr;
     d3c:	6e 83       	std	Y+6, r22	; 0x06
	Tx.SpecialAddressHandling.uiHandlingAddress = I2C_TRANSFER_ADDR_NIDS;
     d3e:	9f ef       	ldi	r25, 0xFF	; 255
     d40:	98 87       	std	Y+8, r25	; 0x08
	Tx.uiSlaveAddress = dev_addr;
     d42:	8d 83       	std	Y+5, r24	; 0x05
	
	enum I2c_Return_Codes Exitcode = I2cWriteBytes( &Tx );
     d44:	ce 01       	movw	r24, r28
     d46:	01 96       	adiw	r24, 0x01	; 1
     d48:	0e 94 a5 0b 	call	0x174a	; 0x174a <I2cWriteBytes>
			
	return (s8)Exitcode;
}
     d4c:	28 96       	adiw	r28, 0x08	; 8
     d4e:	0f b6       	in	r0, 0x3f	; 63
     d50:	f8 94       	cli
     d52:	de bf       	out	0x3e, r29	; 62
     d54:	0f be       	out	0x3f, r0	; 63
     d56:	cd bf       	out	0x3d, r28	; 61
     d58:	df 91       	pop	r29
     d5a:	cf 91       	pop	r28
     d5c:	08 95       	ret

00000d5e <BMP180_I2C_bus_read>:

s8 BMP180_I2C_bus_read(u8 dev_addr, u8 reg_addr, u8 *reg_data, u8 cnt)
{
     d5e:	cf 93       	push	r28
     d60:	df 93       	push	r29
     d62:	cd b7       	in	r28, 0x3d	; 61
     d64:	de b7       	in	r29, 0x3e	; 62
     d66:	28 97       	sbiw	r28, 0x08	; 8
     d68:	0f b6       	in	r0, 0x3f	; 63
     d6a:	f8 94       	cli
     d6c:	de bf       	out	0x3e, r29	; 62
     d6e:	0f be       	out	0x3f, r0	; 63
     d70:	cd bf       	out	0x3d, r28	; 61
	I2cTransfer_t Rx;
	
	Rx.ptrData = reg_data;
     d72:	5a 83       	std	Y+2, r21	; 0x02
     d74:	49 83       	std	Y+1, r20	; 0x01
	Rx.uiLength = cnt;
     d76:	30 e0       	ldi	r19, 0x00	; 0
     d78:	3c 83       	std	Y+4, r19	; 0x04
     d7a:	2b 83       	std	Y+3, r18	; 0x03
	Rx.uiRegisterAddress = reg_addr;
     d7c:	6e 83       	std	Y+6, r22	; 0x06
	Rx.SpecialAddressHandling.uiHandlingAddress = I2C_TRANSFER_ADDR_NIDS;
     d7e:	9f ef       	ldi	r25, 0xFF	; 255
     d80:	98 87       	std	Y+8, r25	; 0x08
	Rx.uiSlaveAddress = dev_addr;
     d82:	8d 83       	std	Y+5, r24	; 0x05
	
	enum I2c_Return_Codes Exitcode = I2cReadBytes( &Rx );
     d84:	ce 01       	movw	r24, r28
     d86:	01 96       	adiw	r24, 0x01	; 1
     d88:	0e 94 e2 0b 	call	0x17c4	; 0x17c4 <I2cReadBytes>
				
	return (s8)Exitcode;
}
     d8c:	28 96       	adiw	r28, 0x08	; 8
     d8e:	0f b6       	in	r0, 0x3f	; 63
     d90:	f8 94       	cli
     d92:	de bf       	out	0x3e, r29	; 62
     d94:	0f be       	out	0x3f, r0	; 63
     d96:	cd bf       	out	0x3d, r28	; 61
     d98:	df 91       	pop	r29
     d9a:	cf 91       	pop	r28
     d9c:	08 95       	ret

00000d9e <BMP180_delay_msek>:

void BMP180_delay_msek(u32 msek)
{
     d9e:	ab 01       	movw	r20, r22
     da0:	bc 01       	movw	r22, r24
	for ( uint32_t i = 0 ; i < msek ; i++ )
     da2:	41 15       	cp	r20, r1
     da4:	51 05       	cpc	r21, r1
     da6:	61 05       	cpc	r22, r1
     da8:	71 05       	cpc	r23, r1
     daa:	89 f0       	breq	.+34     	; 0xdce <BMP180_delay_msek+0x30>
     dac:	80 e0       	ldi	r24, 0x00	; 0
     dae:	90 e0       	ldi	r25, 0x00	; 0
     db0:	dc 01       	movw	r26, r24
	#else
		//round up by default
		__ticks_dc = (uint32_t)(ceil(fabs(__tmp)));
	#endif

	__builtin_avr_delay_cycles(__ticks_dc);
     db2:	ef ec       	ldi	r30, 0xCF	; 207
     db4:	f7 e0       	ldi	r31, 0x07	; 7
     db6:	31 97       	sbiw	r30, 0x01	; 1
     db8:	f1 f7       	brne	.-4      	; 0xdb6 <BMP180_delay_msek+0x18>
     dba:	00 c0       	rjmp	.+0      	; 0xdbc <BMP180_delay_msek+0x1e>
     dbc:	00 00       	nop
     dbe:	01 96       	adiw	r24, 0x01	; 1
     dc0:	a1 1d       	adc	r26, r1
     dc2:	b1 1d       	adc	r27, r1
     dc4:	48 17       	cp	r20, r24
     dc6:	59 07       	cpc	r21, r25
     dc8:	6a 07       	cpc	r22, r26
     dca:	7b 07       	cpc	r23, r27
     dcc:	91 f7       	brne	.-28     	; 0xdb2 <BMP180_delay_msek+0x14>
     dce:	08 95       	ret

00000dd0 <I2C_routine>:
	}
}

s8 I2C_routine(void)
{
	bmp180.bus_write	= BMP180_I2C_bus_write;
     dd0:	ef ef       	ldi	r30, 0xFF	; 255
     dd2:	f5 e0       	ldi	r31, 0x05	; 5
     dd4:	8f e8       	ldi	r24, 0x8F	; 143
     dd6:	96 e0       	ldi	r25, 0x06	; 6
     dd8:	91 a7       	std	Z+41, r25	; 0x29
     dda:	80 a7       	std	Z+40, r24	; 0x28
	bmp180.bus_read		= BMP180_I2C_bus_read;
     ddc:	8f ea       	ldi	r24, 0xAF	; 175
     dde:	96 e0       	ldi	r25, 0x06	; 6
     de0:	93 a7       	std	Z+43, r25	; 0x2b
     de2:	82 a7       	std	Z+42, r24	; 0x2a
	bmp180.dev_addr		= 0xEE;
     de4:	8e ee       	ldi	r24, 0xEE	; 238
     de6:	82 8f       	std	Z+26, r24	; 0x1a
	bmp180.delay_msec	= BMP180_delay_msek;
     de8:	8f ec       	ldi	r24, 0xCF	; 207
     dea:	96 e0       	ldi	r25, 0x06	; 6
     dec:	95 a7       	std	Z+45, r25	; 0x2d
     dee:	84 a7       	std	Z+44, r24	; 0x2c

	return BMP180_INIT_VALUE;
}
     df0:	80 e0       	ldi	r24, 0x00	; 0
     df2:	08 95       	ret

00000df4 <bmp180_get_calib_param>:
 *	@retval -1 -> Error
 *
 *
*/
BMP180_RETURN_FUNCTION_TYPE bmp180_get_calib_param(void)
{
     df4:	cf 93       	push	r28
     df6:	df 93       	push	r29
     df8:	cd b7       	in	r28, 0x3d	; 61
     dfa:	de b7       	in	r29, 0x3e	; 62
     dfc:	66 97       	sbiw	r28, 0x16	; 22
     dfe:	0f b6       	in	r0, 0x3f	; 63
     e00:	f8 94       	cli
     e02:	de bf       	out	0x3e, r29	; 62
     e04:	0f be       	out	0x3f, r0	; 63
     e06:	cd bf       	out	0x3d, r28	; 61
	/* used to return the bus communication results*/
	BMP180_RETURN_FUNCTION_TYPE v_com_rslt_s8 = E_BMP_COMM_RES;
	/* Array holding the calibration informations*/
	u8 a_data_u8r[BMP180_CALIB_DATA_SIZE] = {
     e08:	ae 01       	movw	r20, r28
     e0a:	4f 5f       	subi	r20, 0xFF	; 255
     e0c:	5f 4f       	sbci	r21, 0xFF	; 255
     e0e:	86 e1       	ldi	r24, 0x16	; 22
     e10:	fa 01       	movw	r30, r20
     e12:	11 92       	st	Z+, r1
     e14:	8a 95       	dec	r24
     e16:	e9 f7       	brne	.-6      	; 0xe12 <bmp180_get_calib_param+0x1e>
	BMP180_INIT_VALUE, BMP180_INIT_VALUE,
	BMP180_INIT_VALUE, BMP180_INIT_VALUE,
	BMP180_INIT_VALUE, BMP180_INIT_VALUE,
	BMP180_INIT_VALUE, BMP180_INIT_VALUE};
	/* read calibration data*/
	v_com_rslt_s8 = p_bmp180->BMP180_BUS_READ_FUNC(
     e18:	a0 91 9e 05 	lds	r26, 0x059E	; 0x80059e <__data_end>
     e1c:	b0 91 9f 05 	lds	r27, 0x059F	; 0x80059f <__data_end+0x1>
     e20:	9a 96       	adiw	r26, 0x2a	; 42
     e22:	ed 91       	ld	r30, X+
     e24:	fc 91       	ld	r31, X
     e26:	9b 97       	sbiw	r26, 0x2b	; 43
     e28:	26 e1       	ldi	r18, 0x16	; 22
     e2a:	6a ea       	ldi	r22, 0xAA	; 170
     e2c:	5a 96       	adiw	r26, 0x1a	; 26
     e2e:	8c 91       	ld	r24, X
     e30:	09 95       	icall
	p_bmp180->dev_addr, BMP180_PROM_START__ADDR,
	a_data_u8r, BMP180_PROM_DATA__LEN);

	/*parameters AC1-AC6*/
	p_bmp180->calib_param.ac1 =
     e32:	e0 91 9e 05 	lds	r30, 0x059E	; 0x80059e <__data_end>
     e36:	f0 91 9f 05 	lds	r31, 0x059F	; 0x80059f <__data_end+0x1>
     e3a:	49 81       	ldd	r20, Y+1	; 0x01
     e3c:	04 2e       	mov	r0, r20
     e3e:	00 0c       	add	r0, r0
     e40:	55 0b       	sbc	r21, r21
     e42:	66 0b       	sbc	r22, r22
     e44:	77 0b       	sbc	r23, r23
     e46:	76 2f       	mov	r23, r22
     e48:	65 2f       	mov	r22, r21
     e4a:	54 2f       	mov	r21, r20
     e4c:	44 27       	eor	r20, r20
     e4e:	2a 81       	ldd	r18, Y+2	; 0x02
     e50:	30 e0       	ldi	r19, 0x00	; 0
     e52:	42 2b       	or	r20, r18
     e54:	53 2b       	or	r21, r19
     e56:	51 83       	std	Z+1, r21	; 0x01
     e58:	40 83       	st	Z, r20
	(s16)((((s32)((s8)a_data_u8r[BMP180_CALIB_PARAM_AC1_MSB]))
	<< BMP180_SHIFT_BIT_POSITION_BY_08_BITS)
	| a_data_u8r[BMP180_CALIB_PARAM_AC1_LSB]);
	p_bmp180->calib_param.ac2 =
     e5a:	4b 81       	ldd	r20, Y+3	; 0x03
     e5c:	04 2e       	mov	r0, r20
     e5e:	00 0c       	add	r0, r0
     e60:	55 0b       	sbc	r21, r21
     e62:	66 0b       	sbc	r22, r22
     e64:	77 0b       	sbc	r23, r23
     e66:	76 2f       	mov	r23, r22
     e68:	65 2f       	mov	r22, r21
     e6a:	54 2f       	mov	r21, r20
     e6c:	44 27       	eor	r20, r20
     e6e:	2c 81       	ldd	r18, Y+4	; 0x04
     e70:	30 e0       	ldi	r19, 0x00	; 0
     e72:	42 2b       	or	r20, r18
     e74:	53 2b       	or	r21, r19
     e76:	53 83       	std	Z+3, r21	; 0x03
     e78:	42 83       	std	Z+2, r20	; 0x02
	(s16)((((s32)((s8)a_data_u8r[BMP180_CALIB_PARAM_AC2_MSB]))
	<< BMP180_SHIFT_BIT_POSITION_BY_08_BITS)
	| a_data_u8r[BMP180_CALIB_PARAM_AC2_LSB]);
	p_bmp180->calib_param.ac3 =
     e7a:	4d 81       	ldd	r20, Y+5	; 0x05
     e7c:	04 2e       	mov	r0, r20
     e7e:	00 0c       	add	r0, r0
     e80:	55 0b       	sbc	r21, r21
     e82:	66 0b       	sbc	r22, r22
     e84:	77 0b       	sbc	r23, r23
     e86:	76 2f       	mov	r23, r22
     e88:	65 2f       	mov	r22, r21
     e8a:	54 2f       	mov	r21, r20
     e8c:	44 27       	eor	r20, r20
     e8e:	2e 81       	ldd	r18, Y+6	; 0x06
     e90:	30 e0       	ldi	r19, 0x00	; 0
     e92:	42 2b       	or	r20, r18
     e94:	53 2b       	or	r21, r19
     e96:	55 83       	std	Z+5, r21	; 0x05
     e98:	44 83       	std	Z+4, r20	; 0x04
	(s16)((((s32)((s8)a_data_u8r[BMP180_CALIB_PARAM_AC3_MSB]))
	<< BMP180_SHIFT_BIT_POSITION_BY_08_BITS)
	| a_data_u8r[BMP180_CALIB_PARAM_AC3_LSB]);
	p_bmp180->calib_param.ac4 =
     e9a:	2f 81       	ldd	r18, Y+7	; 0x07
     e9c:	30 e0       	ldi	r19, 0x00	; 0
     e9e:	32 2f       	mov	r19, r18
     ea0:	22 27       	eor	r18, r18
     ea2:	98 85       	ldd	r25, Y+8	; 0x08
     ea4:	29 2b       	or	r18, r25
     ea6:	37 83       	std	Z+7, r19	; 0x07
     ea8:	26 83       	std	Z+6, r18	; 0x06
	(u16)((((u32)((u8)a_data_u8r[BMP180_CALIB_PARAM_AC4_MSB]))
	<< BMP180_SHIFT_BIT_POSITION_BY_08_BITS)
	| a_data_u8r[BMP180_CALIB_PARAM_AC4_LSB]);
	p_bmp180->calib_param.ac5 =
     eaa:	29 85       	ldd	r18, Y+9	; 0x09
     eac:	30 e0       	ldi	r19, 0x00	; 0
     eae:	32 2f       	mov	r19, r18
     eb0:	22 27       	eor	r18, r18
     eb2:	9a 85       	ldd	r25, Y+10	; 0x0a
     eb4:	29 2b       	or	r18, r25
     eb6:	31 87       	std	Z+9, r19	; 0x09
     eb8:	20 87       	std	Z+8, r18	; 0x08
	(u16)((((u32)((u8)a_data_u8r[BMP180_CALIB_PARAM_AC5_MSB]))
	<< BMP180_SHIFT_BIT_POSITION_BY_08_BITS)
	| a_data_u8r[BMP180_CALIB_PARAM_AC5_LSB]);
	p_bmp180->calib_param.ac6 =
     eba:	2b 85       	ldd	r18, Y+11	; 0x0b
     ebc:	30 e0       	ldi	r19, 0x00	; 0
     ebe:	32 2f       	mov	r19, r18
     ec0:	22 27       	eor	r18, r18
     ec2:	9c 85       	ldd	r25, Y+12	; 0x0c
     ec4:	29 2b       	or	r18, r25
     ec6:	33 87       	std	Z+11, r19	; 0x0b
     ec8:	22 87       	std	Z+10, r18	; 0x0a
	(u16)((((u32)((u8)a_data_u8r[BMP180_CALIB_PARAM_AC6_MSB]))
	<< BMP180_SHIFT_BIT_POSITION_BY_08_BITS)
	| a_data_u8r[BMP180_CALIB_PARAM_AC6_LSB]);

	/*parameters B1,B2*/
	p_bmp180->calib_param.b1 =
     eca:	4d 85       	ldd	r20, Y+13	; 0x0d
     ecc:	04 2e       	mov	r0, r20
     ece:	00 0c       	add	r0, r0
     ed0:	55 0b       	sbc	r21, r21
     ed2:	66 0b       	sbc	r22, r22
     ed4:	77 0b       	sbc	r23, r23
     ed6:	76 2f       	mov	r23, r22
     ed8:	65 2f       	mov	r22, r21
     eda:	54 2f       	mov	r21, r20
     edc:	44 27       	eor	r20, r20
     ede:	2e 85       	ldd	r18, Y+14	; 0x0e
     ee0:	30 e0       	ldi	r19, 0x00	; 0
     ee2:	42 2b       	or	r20, r18
     ee4:	53 2b       	or	r21, r19
     ee6:	55 87       	std	Z+13, r21	; 0x0d
     ee8:	44 87       	std	Z+12, r20	; 0x0c
	(s16)((((s32)((s8)a_data_u8r[BMP180_CALIB_PARAM_B1_MSB]))
	<< BMP180_SHIFT_BIT_POSITION_BY_08_BITS) |
	a_data_u8r[BMP180_CALIB_PARAM_B1_LSB]);
	p_bmp180->calib_param.b2 =
     eea:	4f 85       	ldd	r20, Y+15	; 0x0f
     eec:	04 2e       	mov	r0, r20
     eee:	00 0c       	add	r0, r0
     ef0:	55 0b       	sbc	r21, r21
     ef2:	66 0b       	sbc	r22, r22
     ef4:	77 0b       	sbc	r23, r23
     ef6:	76 2f       	mov	r23, r22
     ef8:	65 2f       	mov	r22, r21
     efa:	54 2f       	mov	r21, r20
     efc:	44 27       	eor	r20, r20
     efe:	28 89       	ldd	r18, Y+16	; 0x10
     f00:	30 e0       	ldi	r19, 0x00	; 0
     f02:	42 2b       	or	r20, r18
     f04:	53 2b       	or	r21, r19
     f06:	57 87       	std	Z+15, r21	; 0x0f
     f08:	46 87       	std	Z+14, r20	; 0x0e
	(s16)((((s32)((s8)a_data_u8r[BMP180_CALIB_PARAM_B2_MSB]))
	<< BMP180_SHIFT_BIT_POSITION_BY_08_BITS)
	| a_data_u8r[BMP180_CALIB_PARAM_B2_LSB]);

	/*parameters MB,MC,MD*/
	p_bmp180->calib_param.mb =
     f0a:	49 89       	ldd	r20, Y+17	; 0x11
     f0c:	04 2e       	mov	r0, r20
     f0e:	00 0c       	add	r0, r0
     f10:	55 0b       	sbc	r21, r21
     f12:	66 0b       	sbc	r22, r22
     f14:	77 0b       	sbc	r23, r23
     f16:	76 2f       	mov	r23, r22
     f18:	65 2f       	mov	r22, r21
     f1a:	54 2f       	mov	r21, r20
     f1c:	44 27       	eor	r20, r20
     f1e:	2a 89       	ldd	r18, Y+18	; 0x12
     f20:	30 e0       	ldi	r19, 0x00	; 0
     f22:	42 2b       	or	r20, r18
     f24:	53 2b       	or	r21, r19
     f26:	51 8b       	std	Z+17, r21	; 0x11
     f28:	40 8b       	std	Z+16, r20	; 0x10
	(s16)((((s32)((s8)a_data_u8r[BMP180_CALIB_PARAM_MB_MSB]))
	<< BMP180_SHIFT_BIT_POSITION_BY_08_BITS)
	| a_data_u8r[BMP180_CALIB_PARAM_MB_LSB]);
	p_bmp180->calib_param.mc =
     f2a:	4b 89       	ldd	r20, Y+19	; 0x13
     f2c:	04 2e       	mov	r0, r20
     f2e:	00 0c       	add	r0, r0
     f30:	55 0b       	sbc	r21, r21
     f32:	66 0b       	sbc	r22, r22
     f34:	77 0b       	sbc	r23, r23
     f36:	76 2f       	mov	r23, r22
     f38:	65 2f       	mov	r22, r21
     f3a:	54 2f       	mov	r21, r20
     f3c:	44 27       	eor	r20, r20
     f3e:	2c 89       	ldd	r18, Y+20	; 0x14
     f40:	30 e0       	ldi	r19, 0x00	; 0
     f42:	42 2b       	or	r20, r18
     f44:	53 2b       	or	r21, r19
     f46:	53 8b       	std	Z+19, r21	; 0x13
     f48:	42 8b       	std	Z+18, r20	; 0x12
	(s16)((((s32)((s8)a_data_u8r[BMP180_CALIB_PARAM_MC_MSB]))
	<< BMP180_SHIFT_BIT_POSITION_BY_08_BITS)
	| a_data_u8r[BMP180_CALIB_PARAM_MC_LSB]);
	p_bmp180->calib_param.md =
     f4a:	4d 89       	ldd	r20, Y+21	; 0x15
     f4c:	04 2e       	mov	r0, r20
     f4e:	00 0c       	add	r0, r0
     f50:	55 0b       	sbc	r21, r21
     f52:	66 0b       	sbc	r22, r22
     f54:	77 0b       	sbc	r23, r23
     f56:	76 2f       	mov	r23, r22
     f58:	65 2f       	mov	r22, r21
     f5a:	54 2f       	mov	r21, r20
     f5c:	44 27       	eor	r20, r20
     f5e:	2e 89       	ldd	r18, Y+22	; 0x16
     f60:	30 e0       	ldi	r19, 0x00	; 0
     f62:	42 2b       	or	r20, r18
     f64:	53 2b       	or	r21, r19
     f66:	55 8b       	std	Z+21, r21	; 0x15
     f68:	44 8b       	std	Z+20, r20	; 0x14
	(s16)((((s32)((s8)a_data_u8r[BMP180_CALIB_PARAM_MD_MSB]))
	<< BMP180_SHIFT_BIT_POSITION_BY_08_BITS)
	| a_data_u8r[BMP180_CALIB_PARAM_MD_LSB]);
	return v_com_rslt_s8;
}
     f6a:	66 96       	adiw	r28, 0x16	; 22
     f6c:	0f b6       	in	r0, 0x3f	; 63
     f6e:	f8 94       	cli
     f70:	de bf       	out	0x3e, r29	; 62
     f72:	0f be       	out	0x3f, r0	; 63
     f74:	cd bf       	out	0x3d, r28	; 61
     f76:	df 91       	pop	r29
     f78:	cf 91       	pop	r28
     f7a:	08 95       	ret

00000f7c <bmp180_init>:
 *	@retval -1 -> Error
 *
 *
*/
BMP180_RETURN_FUNCTION_TYPE bmp180_init(struct bmp180_t *bmp180)
{
     f7c:	0f 93       	push	r16
     f7e:	1f 93       	push	r17
     f80:	cf 93       	push	r28
     f82:	df 93       	push	r29
     f84:	1f 92       	push	r1
     f86:	cd b7       	in	r28, 0x3d	; 61
     f88:	de b7       	in	r29, 0x3e	; 62
     f8a:	8c 01       	movw	r16, r24
	I2C_routine();
     f8c:	0e 94 e8 06 	call	0xdd0	; 0xdd0 <I2C_routine>
	
	/* used to return the bus communication results*/
	BMP180_RETURN_FUNCTION_TYPE v_com_rslt_s8 = E_BMP_COMM_RES;
	u8 v_data_u8 = BMP180_INIT_VALUE;
     f90:	19 82       	std	Y+1, r1	; 0x01
	/* assign BMP180 ptr */
	p_bmp180 = bmp180;
     f92:	10 93 9f 05 	sts	0x059F, r17	; 0x80059f <__data_end+0x1>
     f96:	00 93 9e 05 	sts	0x059E, r16	; 0x80059e <__data_end>
	/* read Chip Id */
	v_com_rslt_s8 = p_bmp180->BMP180_BUS_READ_FUNC(
     f9a:	d8 01       	movw	r26, r16
     f9c:	9a 96       	adiw	r26, 0x2a	; 42
     f9e:	ed 91       	ld	r30, X+
     fa0:	fc 91       	ld	r31, X
     fa2:	9b 97       	sbiw	r26, 0x2b	; 43
     fa4:	21 e0       	ldi	r18, 0x01	; 1
     fa6:	ae 01       	movw	r20, r28
     fa8:	4f 5f       	subi	r20, 0xFF	; 255
     faa:	5f 4f       	sbci	r21, 0xFF	; 255
     fac:	60 ed       	ldi	r22, 0xD0	; 208
     fae:	5a 96       	adiw	r26, 0x1a	; 26
     fb0:	8c 91       	ld	r24, X
     fb2:	09 95       	icall
     fb4:	18 2f       	mov	r17, r24
	p_bmp180->dev_addr, BMP180_CHIP_ID__REG,
	&v_data_u8, BMP180_GEN_READ_WRITE_DATA_LENGTH);
	
	p_bmp180->chip_id = BMP180_GET_BITSLICE(v_data_u8, BMP180_CHIP_ID);
     fb6:	a0 91 9e 05 	lds	r26, 0x059E	; 0x80059e <__data_end>
     fba:	b0 91 9f 05 	lds	r27, 0x059F	; 0x80059f <__data_end+0x1>
     fbe:	89 81       	ldd	r24, Y+1	; 0x01
     fc0:	57 96       	adiw	r26, 0x17	; 23
     fc2:	8c 93       	st	X, r24
     fc4:	57 97       	sbiw	r26, 0x17	; 23
	p_bmp180->number_of_samples = BMP180_INITIALIZE_NUMBER_OF_SAMPLES_U8X;
     fc6:	41 e0       	ldi	r20, 0x01	; 1
     fc8:	50 e0       	ldi	r21, 0x00	; 0
     fca:	60 e0       	ldi	r22, 0x00	; 0
     fcc:	70 e0       	ldi	r23, 0x00	; 0
     fce:	90 96       	adiw	r26, 0x20	; 32
     fd0:	4d 93       	st	X+, r20
     fd2:	5d 93       	st	X+, r21
     fd4:	6d 93       	st	X+, r22
     fd6:	7c 93       	st	X, r23
     fd8:	93 97       	sbiw	r26, 0x23	; 35
	p_bmp180->oversamp_setting = BMP180_INITIALIZE_OVERSAMP_SETTING_U8X;
     fda:	95 96       	adiw	r26, 0x25	; 37
     fdc:	1c 92       	st	X, r1
     fde:	1e 92       	st	-X, r1
     fe0:	94 97       	sbiw	r26, 0x24	; 36
	p_bmp180->sw_oversamp = BMP180_INITIALIZE_SW_OVERSAMP_U8X;
     fe2:	97 96       	adiw	r26, 0x27	; 39
     fe4:	1c 92       	st	X, r1
     fe6:	1e 92       	st	-X, r1
     fe8:	96 97       	sbiw	r26, 0x26	; 38
	v_com_rslt_s8 += p_bmp180->BMP180_BUS_READ_FUNC(
     fea:	9a 96       	adiw	r26, 0x2a	; 42
     fec:	ed 91       	ld	r30, X+
     fee:	fc 91       	ld	r31, X
     ff0:	9b 97       	sbiw	r26, 0x2b	; 43
     ff2:	21 e0       	ldi	r18, 0x01	; 1
     ff4:	ae 01       	movw	r20, r28
     ff6:	4f 5f       	subi	r20, 0xFF	; 255
     ff8:	5f 4f       	sbci	r21, 0xFF	; 255
     ffa:	61 ed       	ldi	r22, 0xD1	; 209
     ffc:	5a 96       	adiw	r26, 0x1a	; 26
     ffe:	8c 91       	ld	r24, X
    1000:	09 95       	icall
    1002:	18 0f       	add	r17, r24
	p_bmp180->dev_addr, BMP180_VERSION_REG,
	&v_data_u8, BMP180_GEN_READ_WRITE_DATA_LENGTH);
	/* read Version reg */

	p_bmp180->ml_version = BMP180_GET_BITSLICE(
    1004:	e0 91 9e 05 	lds	r30, 0x059E	; 0x80059e <__data_end>
    1008:	f0 91 9f 05 	lds	r31, 0x059F	; 0x80059f <__data_end+0x1>
    100c:	99 81       	ldd	r25, Y+1	; 0x01
    100e:	89 2f       	mov	r24, r25
    1010:	8f 70       	andi	r24, 0x0F	; 15
    1012:	80 8f       	std	Z+24, r24	; 0x18
	v_data_u8, BMP180_ML_VERSION);/* get ML Version */
	p_bmp180->al_version = BMP180_GET_BITSLICE(
    1014:	92 95       	swap	r25
    1016:	9f 70       	andi	r25, 0x0F	; 15
    1018:	91 8f       	std	Z+25, r25	; 0x19
	v_data_u8, BMP180_AL_VERSION); /* get AL Version */
	v_com_rslt_s8 += bmp180_get_calib_param();
    101a:	0e 94 fa 06 	call	0xdf4	; 0xdf4 <bmp180_get_calib_param>

	return v_com_rslt_s8;
}
    101e:	81 0f       	add	r24, r17
    1020:	0f 90       	pop	r0
    1022:	df 91       	pop	r29
    1024:	cf 91       	pop	r28
    1026:	1f 91       	pop	r17
    1028:	0f 91       	pop	r16
    102a:	08 95       	ret

0000102c <bmp180_get_temperature>:
 *	@return Return the temperature in steps of 0.1 deg Celsius
 *
 *
*/
s16 bmp180_get_temperature(u32 v_uncomp_temperature_u32)
{
    102c:	cf 92       	push	r12
    102e:	df 92       	push	r13
    1030:	ef 92       	push	r14
    1032:	ff 92       	push	r15
    1034:	0f 93       	push	r16
    1036:	1f 93       	push	r17
    1038:	cf 93       	push	r28
    103a:	df 93       	push	r29
	s16 v_temperature_s16 = BMP180_INIT_VALUE;
	s32 v_x1_s32, v_x2_s32 = BMP180_INIT_VALUE;
	/* calculate temperature*/
	v_x1_s32 = (((s32) v_uncomp_temperature_u32 -
	(s32) p_bmp180->calib_param.ac6) *
    103c:	c0 91 9e 05 	lds	r28, 0x059E	; 0x80059e <__data_end>
    1040:	d0 91 9f 05 	lds	r29, 0x059F	; 0x80059f <__data_end+0x1>
s16 bmp180_get_temperature(u32 v_uncomp_temperature_u32)
{
	s16 v_temperature_s16 = BMP180_INIT_VALUE;
	s32 v_x1_s32, v_x2_s32 = BMP180_INIT_VALUE;
	/* calculate temperature*/
	v_x1_s32 = (((s32) v_uncomp_temperature_u32 -
    1044:	2a 85       	ldd	r18, Y+10	; 0x0a
    1046:	3b 85       	ldd	r19, Y+11	; 0x0b
    1048:	7b 01       	movw	r14, r22
    104a:	8c 01       	movw	r16, r24
    104c:	e2 1a       	sub	r14, r18
    104e:	f3 0a       	sbc	r15, r19
    1050:	01 09       	sbc	r16, r1
    1052:	11 09       	sbc	r17, r1
    1054:	a8 01       	movw	r20, r16
    1056:	97 01       	movw	r18, r14
    1058:	a8 85       	ldd	r26, Y+8	; 0x08
    105a:	b9 85       	ldd	r27, Y+9	; 0x09
    105c:	0e 94 21 1c 	call	0x3842	; 0x3842 <__muluhisi3>
    1060:	6b 01       	movw	r12, r22
    1062:	7c 01       	movw	r14, r24
    1064:	0b 2e       	mov	r0, r27
    1066:	bf e0       	ldi	r27, 0x0F	; 15
    1068:	f5 94       	asr	r15
    106a:	e7 94       	ror	r14
    106c:	d7 94       	ror	r13
    106e:	c7 94       	ror	r12
    1070:	ba 95       	dec	r27
    1072:	d1 f7       	brne	.-12     	; 0x1068 <bmp180_get_temperature+0x3c>
    1074:	b0 2d       	mov	r27, r0
	(s32) p_bmp180->calib_param.ac6) *
	(s32) p_bmp180->calib_param.ac5)
	>> BMP180_SHIFT_BIT_POSITION_BY_15_BITS;
	if (v_x1_s32 == BMP180_CHECK_DIVISOR && p_bmp180->calib_param.md
    1076:	c1 14       	cp	r12, r1
    1078:	d1 04       	cpc	r13, r1
    107a:	e1 04       	cpc	r14, r1
    107c:	f1 04       	cpc	r15, r1
    107e:	21 f4       	brne	.+8      	; 0x1088 <bmp180_get_temperature+0x5c>
    1080:	8c 89       	ldd	r24, Y+20	; 0x14
    1082:	9d 89       	ldd	r25, Y+21	; 0x15
    1084:	00 97       	sbiw	r24, 0x00	; 0
    1086:	a9 f1       	breq	.+106    	; 0x10f2 <bmp180_get_temperature+0xc6>
	/* executed only the divisor is not zero*/
	v_x2_s32 = ((s32) p_bmp180->calib_param.mc
	<< BMP180_SHIFT_BIT_POSITION_BY_11_BITS) /
	(v_x1_s32 + p_bmp180->calib_param.md);

	p_bmp180->param_b5 = v_x1_s32 + v_x2_s32;
    1088:	6a 89       	ldd	r22, Y+18	; 0x12
    108a:	7b 89       	ldd	r23, Y+19	; 0x13
    108c:	cb 01       	movw	r24, r22
    108e:	77 0f       	add	r23, r23
    1090:	aa 0b       	sbc	r26, r26
    1092:	bb 0b       	sbc	r27, r27
    1094:	bc 01       	movw	r22, r24
    1096:	cd 01       	movw	r24, r26
    1098:	05 2e       	mov	r0, r21
    109a:	5b e0       	ldi	r21, 0x0B	; 11
    109c:	66 0f       	add	r22, r22
    109e:	77 1f       	adc	r23, r23
    10a0:	88 1f       	adc	r24, r24
    10a2:	99 1f       	adc	r25, r25
    10a4:	5a 95       	dec	r21
    10a6:	d1 f7       	brne	.-12     	; 0x109c <bmp180_get_temperature+0x70>
    10a8:	50 2d       	mov	r21, r0
    10aa:	2c 89       	ldd	r18, Y+20	; 0x14
    10ac:	3d 89       	ldd	r19, Y+21	; 0x15
    10ae:	89 01       	movw	r16, r18
    10b0:	33 0f       	add	r19, r19
    10b2:	22 0b       	sbc	r18, r18
    10b4:	33 0b       	sbc	r19, r19
    10b6:	a9 01       	movw	r20, r18
    10b8:	98 01       	movw	r18, r16
    10ba:	2c 0d       	add	r18, r12
    10bc:	3d 1d       	adc	r19, r13
    10be:	4e 1d       	adc	r20, r14
    10c0:	5f 1d       	adc	r21, r15
    10c2:	0e 94 f3 1b 	call	0x37e6	; 0x37e6 <__divmodsi4>
    10c6:	c2 0e       	add	r12, r18
    10c8:	d3 1e       	adc	r13, r19
    10ca:	e4 1e       	adc	r14, r20
    10cc:	f5 1e       	adc	r15, r21
    10ce:	cc 8e       	std	Y+28, r12	; 0x1c
    10d0:	dd 8e       	std	Y+29, r13	; 0x1d
    10d2:	ee 8e       	std	Y+30, r14	; 0x1e
    10d4:	ff 8e       	std	Y+31, r15	; 0x1f
	v_temperature_s16 = ((p_bmp180->param_b5 +
    10d6:	08 e0       	ldi	r16, 0x08	; 8
    10d8:	c0 0e       	add	r12, r16
    10da:	d1 1c       	adc	r13, r1
    10dc:	e1 1c       	adc	r14, r1
    10de:	f1 1c       	adc	r15, r1
    10e0:	68 94       	set
    10e2:	13 f8       	bld	r1, 3
    10e4:	f5 94       	asr	r15
    10e6:	e7 94       	ror	r14
    10e8:	d7 94       	ror	r13
    10ea:	c7 94       	ror	r12
    10ec:	16 94       	lsr	r1
    10ee:	d1 f7       	brne	.-12     	; 0x10e4 <bmp180_get_temperature+0xb8>
	BMP180_CALCULATE_TRUE_TEMPERATURE)
	>> BMP180_SHIFT_BIT_POSITION_BY_04_BITS);

	return v_temperature_s16;
    10f0:	c6 01       	movw	r24, r12
}
    10f2:	df 91       	pop	r29
    10f4:	cf 91       	pop	r28
    10f6:	1f 91       	pop	r17
    10f8:	0f 91       	pop	r16
    10fa:	ff 90       	pop	r15
    10fc:	ef 90       	pop	r14
    10fe:	df 90       	pop	r13
    1100:	cf 90       	pop	r12
    1102:	08 95       	ret

00001104 <bmp180_get_pressure>:
 *
 *	@return Return the value of pressure in steps of 1.0 Pa
 *
*/
s32 bmp180_get_pressure(u32 v_uncomp_pressure_u32)
{
    1104:	3f 92       	push	r3
    1106:	4f 92       	push	r4
    1108:	5f 92       	push	r5
    110a:	6f 92       	push	r6
    110c:	7f 92       	push	r7
    110e:	8f 92       	push	r8
    1110:	9f 92       	push	r9
    1112:	af 92       	push	r10
    1114:	bf 92       	push	r11
    1116:	cf 92       	push	r12
    1118:	df 92       	push	r13
    111a:	ef 92       	push	r14
    111c:	ff 92       	push	r15
    111e:	0f 93       	push	r16
    1120:	1f 93       	push	r17
    1122:	cf 93       	push	r28
    1124:	df 93       	push	r29
    1126:	cd b7       	in	r28, 0x3d	; 61
    1128:	de b7       	in	r29, 0x3e	; 62
    112a:	2a 97       	sbiw	r28, 0x0a	; 10
    112c:	0f b6       	in	r0, 0x3f	; 63
    112e:	f8 94       	cli
    1130:	de bf       	out	0x3e, r29	; 62
    1132:	0f be       	out	0x3f, r0	; 63
    1134:	cd bf       	out	0x3d, r28	; 61
    1136:	6d 83       	std	Y+5, r22	; 0x05
    1138:	7e 83       	std	Y+6, r23	; 0x06
    113a:	8f 83       	std	Y+7, r24	; 0x07
    113c:	98 87       	std	Y+8, r25	; 0x08
	s32 v_pressure_s32, v_x1_s32, v_x2_s32,
	v_x3_s32, v_b3_s32, v_b6_s32 = BMP180_INIT_VALUE;
	u32 v_b4_u32, v_b7_u32 = BMP180_INIT_VALUE;

		v_b6_s32 = p_bmp180->param_b5 - 4000;
    113e:	00 91 9e 05 	lds	r16, 0x059E	; 0x80059e <__data_end>
    1142:	10 91 9f 05 	lds	r17, 0x059F	; 0x80059f <__data_end+0x1>
    1146:	d8 01       	movw	r26, r16
    1148:	5c 96       	adiw	r26, 0x1c	; 28
    114a:	cd 90       	ld	r12, X+
    114c:	dd 90       	ld	r13, X+
    114e:	ed 90       	ld	r14, X+
    1150:	fc 90       	ld	r15, X
    1152:	5f 97       	sbiw	r26, 0x1f	; 31
    1154:	b0 ea       	ldi	r27, 0xA0	; 160
    1156:	cb 1a       	sub	r12, r27
    1158:	bf e0       	ldi	r27, 0x0F	; 15
    115a:	db 0a       	sbc	r13, r27
    115c:	e1 08       	sbc	r14, r1
    115e:	f1 08       	sbc	r15, r1
	/*****calculate B3************/
	v_x1_s32 = (v_b6_s32*v_b6_s32)
    1160:	a7 01       	movw	r20, r14
    1162:	96 01       	movw	r18, r12
    1164:	c7 01       	movw	r24, r14
    1166:	b6 01       	movw	r22, r12
    1168:	0e 94 c1 1b 	call	0x3782	; 0x3782 <__mulsi3>
    116c:	2b 01       	movw	r4, r22
    116e:	3c 01       	movw	r6, r24
    1170:	03 2e       	mov	r0, r19
    1172:	3c e0       	ldi	r19, 0x0C	; 12
    1174:	75 94       	asr	r7
    1176:	67 94       	ror	r6
    1178:	57 94       	ror	r5
    117a:	47 94       	ror	r4
    117c:	3a 95       	dec	r19
    117e:	d1 f7       	brne	.-12     	; 0x1174 <bmp180_get_pressure+0x70>
    1180:	30 2d       	mov	r19, r0
	>> BMP180_SHIFT_BIT_POSITION_BY_12_BITS;
	v_x1_s32 *= p_bmp180->calib_param.b2;
    1182:	f8 01       	movw	r30, r16
    1184:	a6 85       	ldd	r26, Z+14	; 0x0e
    1186:	b7 85       	ldd	r27, Z+15	; 0x0f
    1188:	a3 01       	movw	r20, r6
    118a:	92 01       	movw	r18, r4
    118c:	0e 94 2c 1c 	call	0x3858	; 0x3858 <__mulshisi3>
    1190:	69 83       	std	Y+1, r22	; 0x01
    1192:	7a 83       	std	Y+2, r23	; 0x02
    1194:	8b 83       	std	Y+3, r24	; 0x03
    1196:	9c 83       	std	Y+4, r25	; 0x04
	v_x1_s32 >>= BMP180_SHIFT_BIT_POSITION_BY_11_BITS;

	v_x2_s32 = (p_bmp180->calib_param.ac2*v_b6_s32);
    1198:	a2 81       	ldd	r26, Z+2	; 0x02
    119a:	b3 81       	ldd	r27, Z+3	; 0x03
    119c:	a7 01       	movw	r20, r14
    119e:	96 01       	movw	r18, r12
    11a0:	0e 94 2c 1c 	call	0x3858	; 0x3858 <__mulshisi3>
    11a4:	4b 01       	movw	r8, r22
    11a6:	5c 01       	movw	r10, r24
	v_x2_s32 >>= BMP180_SHIFT_BIT_POSITION_BY_11_BITS;

	v_x3_s32 = v_x1_s32 + v_x2_s32;
	v_b3_s32 = (((((s32)p_bmp180->calib_param.ac1)*4 + v_x3_s32) <<
	p_bmp180->oversamp_setting) + 2)
    11a8:	34 a0       	ldd	r3, Z+36	; 0x24
	v_x2_s32 = (p_bmp180->calib_param.b1 *
	((v_b6_s32 * v_b6_s32) >> BMP180_SHIFT_BIT_POSITION_BY_12_BITS))
	>> BMP180_SHIFT_BIT_POSITION_BY_16_BITS;
	v_x3_s32 = ((v_x1_s32 + v_x2_s32) + 2)
	>> BMP180_SHIFT_BIT_POSITION_BY_02_BITS;
	v_b4_u32 = (p_bmp180->calib_param.ac4 * (u32)
    11aa:	a4 81       	ldd	r26, Z+4	; 0x04
    11ac:	b5 81       	ldd	r27, Z+5	; 0x05
    11ae:	0e 94 2c 1c 	call	0x3858	; 0x3858 <__mulshisi3>
    11b2:	6b 01       	movw	r12, r22
    11b4:	7c 01       	movw	r14, r24
    11b6:	0b 2e       	mov	r0, r27
    11b8:	bd e0       	ldi	r27, 0x0D	; 13
    11ba:	f5 94       	asr	r15
    11bc:	e7 94       	ror	r14
    11be:	d7 94       	ror	r13
    11c0:	c7 94       	ror	r12
    11c2:	ba 95       	dec	r27
    11c4:	d1 f7       	brne	.-12     	; 0x11ba <bmp180_get_pressure+0xb6>
    11c6:	b0 2d       	mov	r27, r0
    11c8:	a4 85       	ldd	r26, Z+12	; 0x0c
    11ca:	b5 85       	ldd	r27, Z+13	; 0x0d
    11cc:	a3 01       	movw	r20, r6
    11ce:	92 01       	movw	r18, r4
    11d0:	0e 94 2c 1c 	call	0x3858	; 0x3858 <__mulshisi3>
    11d4:	bb 27       	eor	r27, r27
    11d6:	97 fd       	sbrc	r25, 7
    11d8:	b0 95       	com	r27
    11da:	ab 2f       	mov	r26, r27
    11dc:	8c 0d       	add	r24, r12
    11de:	9d 1d       	adc	r25, r13
    11e0:	ae 1d       	adc	r26, r14
    11e2:	bf 1d       	adc	r27, r15
    11e4:	02 96       	adiw	r24, 0x02	; 2
    11e6:	a1 1d       	adc	r26, r1
    11e8:	b1 1d       	adc	r27, r1
    11ea:	b5 95       	asr	r27
    11ec:	a7 95       	ror	r26
    11ee:	97 95       	ror	r25
    11f0:	87 95       	ror	r24
    11f2:	b5 95       	asr	r27
    11f4:	a7 95       	ror	r26
    11f6:	97 95       	ror	r25
    11f8:	87 95       	ror	r24
    11fa:	9c 01       	movw	r18, r24
    11fc:	ad 01       	movw	r20, r26
    11fe:	30 58       	subi	r19, 0x80	; 128
    1200:	4f 4f       	sbci	r20, 0xFF	; 255
    1202:	5f 4f       	sbci	r21, 0xFF	; 255
    1204:	a6 81       	ldd	r26, Z+6	; 0x06
    1206:	b7 81       	ldd	r27, Z+7	; 0x07
    1208:	0e 94 21 1c 	call	0x3842	; 0x3842 <__muluhisi3>
    120c:	6b 01       	movw	r12, r22
    120e:	7c 01       	movw	r14, r24
    1210:	0b 2e       	mov	r0, r27
    1212:	bf e0       	ldi	r27, 0x0F	; 15
    1214:	f6 94       	lsr	r15
    1216:	e7 94       	ror	r14
    1218:	d7 94       	ror	r13
    121a:	c7 94       	ror	r12
    121c:	ba 95       	dec	r27
    121e:	d1 f7       	brne	.-12     	; 0x1214 <bmp180_get_pressure+0x110>
    1220:	b0 2d       	mov	r27, r0
	(v_x3_s32 + 32768)) >> BMP180_SHIFT_BIT_POSITION_BY_15_BITS;

	v_b7_u32 = ((u32)(v_uncomp_pressure_u32 - v_b3_s32) *
    1222:	89 81       	ldd	r24, Y+1	; 0x01
    1224:	9a 81       	ldd	r25, Y+2	; 0x02
    1226:	ab 81       	ldd	r26, Y+3	; 0x03
    1228:	bc 81       	ldd	r27, Y+4	; 0x04
    122a:	07 2e       	mov	r0, r23
    122c:	7b e0       	ldi	r23, 0x0B	; 11
    122e:	b5 95       	asr	r27
    1230:	a7 95       	ror	r26
    1232:	97 95       	ror	r25
    1234:	87 95       	ror	r24
    1236:	7a 95       	dec	r23
    1238:	d1 f7       	brne	.-12     	; 0x122e <bmp180_get_pressure+0x12a>
    123a:	70 2d       	mov	r23, r0
    123c:	07 2e       	mov	r0, r23
    123e:	7b e0       	ldi	r23, 0x0B	; 11
    1240:	b5 94       	asr	r11
    1242:	a7 94       	ror	r10
    1244:	97 94       	ror	r9
    1246:	87 94       	ror	r8
    1248:	7a 95       	dec	r23
    124a:	d1 f7       	brne	.-12     	; 0x1240 <bmp180_get_pressure+0x13c>
    124c:	70 2d       	mov	r23, r0
    124e:	88 0e       	add	r8, r24
    1250:	99 1e       	adc	r9, r25
    1252:	aa 1e       	adc	r10, r26
    1254:	bb 1e       	adc	r11, r27
    1256:	80 81       	ld	r24, Z
    1258:	91 81       	ldd	r25, Z+1	; 0x01
    125a:	09 2e       	mov	r0, r25
    125c:	00 0c       	add	r0, r0
    125e:	aa 0b       	sbc	r26, r26
    1260:	bb 0b       	sbc	r27, r27
    1262:	88 0f       	add	r24, r24
    1264:	99 1f       	adc	r25, r25
    1266:	aa 1f       	adc	r26, r26
    1268:	bb 1f       	adc	r27, r27
    126a:	88 0f       	add	r24, r24
    126c:	99 1f       	adc	r25, r25
    126e:	aa 1f       	adc	r26, r26
    1270:	bb 1f       	adc	r27, r27
    1272:	88 0e       	add	r8, r24
    1274:	99 1e       	adc	r9, r25
    1276:	aa 1e       	adc	r10, r26
    1278:	bb 1e       	adc	r11, r27
    127a:	03 2c       	mov	r0, r3
    127c:	04 c0       	rjmp	.+8      	; 0x1286 <bmp180_get_pressure+0x182>
    127e:	88 0c       	add	r8, r8
    1280:	99 1c       	adc	r9, r9
    1282:	aa 1c       	adc	r10, r10
    1284:	bb 1c       	adc	r11, r11
    1286:	0a 94       	dec	r0
    1288:	d2 f7       	brpl	.-12     	; 0x127e <bmp180_get_pressure+0x17a>
    128a:	f2 e0       	ldi	r31, 0x02	; 2
    128c:	8f 0e       	add	r8, r31
    128e:	91 1c       	adc	r9, r1
    1290:	a1 1c       	adc	r10, r1
    1292:	b1 1c       	adc	r11, r1
    1294:	b5 94       	asr	r11
    1296:	a7 94       	ror	r10
    1298:	97 94       	ror	r9
    129a:	87 94       	ror	r8
    129c:	b5 94       	asr	r11
    129e:	a7 94       	ror	r10
    12a0:	97 94       	ror	r9
    12a2:	87 94       	ror	r8
    12a4:	2d 81       	ldd	r18, Y+5	; 0x05
    12a6:	3e 81       	ldd	r19, Y+6	; 0x06
    12a8:	4f 81       	ldd	r20, Y+7	; 0x07
    12aa:	58 85       	ldd	r21, Y+8	; 0x08
    12ac:	28 19       	sub	r18, r8
    12ae:	39 09       	sbc	r19, r9
    12b0:	4a 09       	sbc	r20, r10
    12b2:	5b 09       	sbc	r21, r11
    12b4:	80 e5       	ldi	r24, 0x50	; 80
    12b6:	93 ec       	ldi	r25, 0xC3	; 195
    12b8:	a0 e0       	ldi	r26, 0x00	; 0
    12ba:	b0 e0       	ldi	r27, 0x00	; 0
    12bc:	bc 01       	movw	r22, r24
    12be:	cd 01       	movw	r24, r26
    12c0:	04 c0       	rjmp	.+8      	; 0x12ca <bmp180_get_pressure+0x1c6>
    12c2:	95 95       	asr	r25
    12c4:	87 95       	ror	r24
    12c6:	77 95       	ror	r23
    12c8:	67 95       	ror	r22
    12ca:	3a 94       	dec	r3
    12cc:	d2 f7       	brpl	.-12     	; 0x12c2 <bmp180_get_pressure+0x1be>
    12ce:	0e 94 c1 1b 	call	0x3782	; 0x3782 <__mulsi3>
	(50000 >> p_bmp180->oversamp_setting));
	if (v_b7_u32 < 0x80000000) {
    12d2:	99 23       	and	r25, r25
    12d4:	8c f0       	brlt	.+34     	; 0x12f8 <bmp180_get_pressure+0x1f4>
		if (v_b4_u32 != BMP180_CHECK_DIVISOR)
    12d6:	c1 14       	cp	r12, r1
    12d8:	d1 04       	cpc	r13, r1
    12da:	e1 04       	cpc	r14, r1
    12dc:	f1 04       	cpc	r15, r1
    12de:	09 f4       	brne	.+2      	; 0x12e2 <bmp180_get_pressure+0x1de>
    12e0:	53 c0       	rjmp	.+166    	; 0x1388 <bmp180_get_pressure+0x284>
			v_pressure_s32 =
    12e2:	66 0f       	add	r22, r22
    12e4:	77 1f       	adc	r23, r23
    12e6:	88 1f       	adc	r24, r24
    12e8:	99 1f       	adc	r25, r25
    12ea:	a7 01       	movw	r20, r14
    12ec:	96 01       	movw	r18, r12
    12ee:	0e 94 d1 1b 	call	0x37a2	; 0x37a2 <__udivmodsi4>
    12f2:	49 01       	movw	r8, r18
    12f4:	5a 01       	movw	r10, r20
    12f6:	10 c0       	rjmp	.+32     	; 0x1318 <bmp180_get_pressure+0x214>
			(v_b7_u32
			<< BMP180_SHIFT_BIT_POSITION_BY_01_BIT) / v_b4_u32;
		 else
			return BMP180_INVALID_DATA;
	} else {
		if (v_b4_u32 != BMP180_CHECK_DIVISOR)
    12f8:	c1 14       	cp	r12, r1
    12fa:	d1 04       	cpc	r13, r1
    12fc:	e1 04       	cpc	r14, r1
    12fe:	f1 04       	cpc	r15, r1
    1300:	09 f4       	brne	.+2      	; 0x1304 <bmp180_get_pressure+0x200>
    1302:	46 c0       	rjmp	.+140    	; 0x1390 <bmp180_get_pressure+0x28c>
			v_pressure_s32 = (v_b7_u32 / v_b4_u32)
    1304:	a7 01       	movw	r20, r14
    1306:	96 01       	movw	r18, r12
    1308:	0e 94 d1 1b 	call	0x37a2	; 0x37a2 <__udivmodsi4>
    130c:	49 01       	movw	r8, r18
    130e:	5a 01       	movw	r10, r20
    1310:	88 0c       	add	r8, r8
    1312:	99 1c       	adc	r9, r9
    1314:	aa 1c       	adc	r10, r10
    1316:	bb 1c       	adc	r11, r11
			<< BMP180_SHIFT_BIT_POSITION_BY_01_BIT;
		else
			return BMP180_INVALID_DATA;
	}

		v_x1_s32 = v_pressure_s32
    1318:	99 27       	eor	r25, r25
    131a:	b7 fc       	sbrc	r11, 7
    131c:	9a 95       	dec	r25
    131e:	8b 2d       	mov	r24, r11
    1320:	7a 2d       	mov	r23, r10
    1322:	69 2d       	mov	r22, r9
		>> BMP180_SHIFT_BIT_POSITION_BY_08_BITS;
		v_x1_s32 *= v_x1_s32;
		v_x1_s32 =
		(v_x1_s32 * BMP180_PARAM_MG)
    1324:	9b 01       	movw	r18, r22
    1326:	ac 01       	movw	r20, r24
    1328:	0e 94 c1 1b 	call	0x3782	; 0x3782 <__mulsi3>
    132c:	9b 01       	movw	r18, r22
    132e:	ac 01       	movw	r20, r24
    1330:	ae ed       	ldi	r26, 0xDE	; 222
    1332:	bb e0       	ldi	r27, 0x0B	; 11
    1334:	0e 94 21 1c 	call	0x3842	; 0x3842 <__muluhisi3>
    1338:	6b 01       	movw	r12, r22
    133a:	7c 01       	movw	r14, r24
		>> BMP180_SHIFT_BIT_POSITION_BY_16_BITS;
		v_x2_s32 = (v_pressure_s32 * BMP180_PARAM_MH)
		>> BMP180_SHIFT_BIT_POSITION_BY_16_BITS;
		/*pressure in Pa*/
		v_pressure_s32 += (v_x1_s32 + v_x2_s32 + BMP180_PARAM_MI)
		>> BMP180_SHIFT_BIT_POSITION_BY_04_BITS;
    133c:	a3 e4       	ldi	r26, 0x43	; 67
    133e:	b3 ee       	ldi	r27, 0xE3	; 227
    1340:	a5 01       	movw	r20, r10
    1342:	94 01       	movw	r18, r8
    1344:	0e 94 2f 1c 	call	0x385e	; 0x385e <__mulohisi3>
    1348:	bb 27       	eor	r27, r27
    134a:	97 fd       	sbrc	r25, 7
    134c:	b0 95       	com	r27
    134e:	ab 2f       	mov	r26, r27
    1350:	67 01       	movw	r12, r14
    1352:	ff 24       	eor	r15, r15
    1354:	d7 fc       	sbrc	r13, 7
    1356:	f0 94       	com	r15
    1358:	ef 2c       	mov	r14, r15
    135a:	8c 0d       	add	r24, r12
    135c:	9d 1d       	adc	r25, r13
    135e:	ae 1d       	adc	r26, r14
    1360:	bf 1d       	adc	r27, r15
    1362:	81 53       	subi	r24, 0x31	; 49
    1364:	91 4f       	sbci	r25, 0xF1	; 241
    1366:	af 4f       	sbci	r26, 0xFF	; 255
    1368:	bf 4f       	sbci	r27, 0xFF	; 255
    136a:	68 94       	set
    136c:	13 f8       	bld	r1, 3
    136e:	b5 95       	asr	r27
    1370:	a7 95       	ror	r26
    1372:	97 95       	ror	r25
    1374:	87 95       	ror	r24
    1376:	16 94       	lsr	r1
    1378:	d1 f7       	brne	.-12     	; 0x136e <bmp180_get_pressure+0x26a>
	return v_pressure_s32;
    137a:	bc 01       	movw	r22, r24
    137c:	cd 01       	movw	r24, r26
    137e:	68 0d       	add	r22, r8
    1380:	79 1d       	adc	r23, r9
    1382:	8a 1d       	adc	r24, r10
    1384:	9b 1d       	adc	r25, r11
    1386:	07 c0       	rjmp	.+14     	; 0x1396 <bmp180_get_pressure+0x292>
		if (v_b4_u32 != BMP180_CHECK_DIVISOR)
			v_pressure_s32 =
			(v_b7_u32
			<< BMP180_SHIFT_BIT_POSITION_BY_01_BIT) / v_b4_u32;
		 else
			return BMP180_INVALID_DATA;
    1388:	60 e0       	ldi	r22, 0x00	; 0
    138a:	70 e0       	ldi	r23, 0x00	; 0
    138c:	cb 01       	movw	r24, r22
    138e:	03 c0       	rjmp	.+6      	; 0x1396 <bmp180_get_pressure+0x292>
	} else {
		if (v_b4_u32 != BMP180_CHECK_DIVISOR)
			v_pressure_s32 = (v_b7_u32 / v_b4_u32)
			<< BMP180_SHIFT_BIT_POSITION_BY_01_BIT;
		else
			return BMP180_INVALID_DATA;
    1390:	60 e0       	ldi	r22, 0x00	; 0
    1392:	70 e0       	ldi	r23, 0x00	; 0
    1394:	cb 01       	movw	r24, r22
		>> BMP180_SHIFT_BIT_POSITION_BY_16_BITS;
		/*pressure in Pa*/
		v_pressure_s32 += (v_x1_s32 + v_x2_s32 + BMP180_PARAM_MI)
		>> BMP180_SHIFT_BIT_POSITION_BY_04_BITS;
	return v_pressure_s32;
}
    1396:	2a 96       	adiw	r28, 0x0a	; 10
    1398:	0f b6       	in	r0, 0x3f	; 63
    139a:	f8 94       	cli
    139c:	de bf       	out	0x3e, r29	; 62
    139e:	0f be       	out	0x3f, r0	; 63
    13a0:	cd bf       	out	0x3d, r28	; 61
    13a2:	df 91       	pop	r29
    13a4:	cf 91       	pop	r28
    13a6:	1f 91       	pop	r17
    13a8:	0f 91       	pop	r16
    13aa:	ff 90       	pop	r15
    13ac:	ef 90       	pop	r14
    13ae:	df 90       	pop	r13
    13b0:	cf 90       	pop	r12
    13b2:	bf 90       	pop	r11
    13b4:	af 90       	pop	r10
    13b6:	9f 90       	pop	r9
    13b8:	8f 90       	pop	r8
    13ba:	7f 90       	pop	r7
    13bc:	6f 90       	pop	r6
    13be:	5f 90       	pop	r5
    13c0:	4f 90       	pop	r4
    13c2:	3f 90       	pop	r3
    13c4:	08 95       	ret

000013c6 <bmp180_get_uncomp_temperature>:
 *	@retval -1 -> Error
 *
 *
*/
u16 bmp180_get_uncomp_temperature(void)
{
    13c6:	cf 93       	push	r28
    13c8:	df 93       	push	r29
    13ca:	00 d0       	rcall	.+0      	; 0x13cc <bmp180_get_uncomp_temperature+0x6>
    13cc:	1f 92       	push	r1
    13ce:	cd b7       	in	r28, 0x3d	; 61
    13d0:	de b7       	in	r29, 0x3e	; 62
	u16 v_ut_u16 = BMP180_INIT_VALUE;
	/* Array holding the temperature LSB and MSB data*/
	u8 v_data_u8[BMP180_TEMPERATURE_DATA_BYTES] = {
    13d2:	19 82       	std	Y+1, r1	; 0x01
    13d4:	1a 82       	std	Y+2, r1	; 0x02
	u8 v_ctrl_reg_data_u8 = BMP180_INIT_VALUE;
	/* used to return the bus communication results*/
	BMP180_RETURN_FUNCTION_TYPE v_com_rslt_s8 = E_BMP_COMM_RES;
	u8 v_wait_time_u8 = BMP180_INIT_VALUE;

	v_ctrl_reg_data_u8 = BMP180_T_MEASURE;
    13d6:	8e e2       	ldi	r24, 0x2E	; 46
    13d8:	8b 83       	std	Y+3, r24	; 0x03
	v_wait_time_u8 = BMP180_TEMP_CONVERSION_TIME;

	v_com_rslt_s8 = p_bmp180->BMP180_BUS_WRITE_FUNC(p_bmp180->dev_addr,
    13da:	a0 91 9e 05 	lds	r26, 0x059E	; 0x80059e <__data_end>
    13de:	b0 91 9f 05 	lds	r27, 0x059F	; 0x80059f <__data_end+0x1>
    13e2:	98 96       	adiw	r26, 0x28	; 40
    13e4:	ed 91       	ld	r30, X+
    13e6:	fc 91       	ld	r31, X
    13e8:	99 97       	sbiw	r26, 0x29	; 41
    13ea:	21 e0       	ldi	r18, 0x01	; 1
    13ec:	ae 01       	movw	r20, r28
    13ee:	4d 5f       	subi	r20, 0xFD	; 253
    13f0:	5f 4f       	sbci	r21, 0xFF	; 255
    13f2:	64 ef       	ldi	r22, 0xF4	; 244
    13f4:	5a 96       	adiw	r26, 0x1a	; 26
    13f6:	8c 91       	ld	r24, X
    13f8:	09 95       	icall
	BMP180_CTRL_MEAS_REG,
	&v_ctrl_reg_data_u8, BMP180_GEN_READ_WRITE_DATA_LENGTH);
	p_bmp180->delay_msec(v_wait_time_u8);
    13fa:	e0 91 9e 05 	lds	r30, 0x059E	; 0x80059e <__data_end>
    13fe:	f0 91 9f 05 	lds	r31, 0x059F	; 0x80059f <__data_end+0x1>
    1402:	04 a4       	ldd	r0, Z+44	; 0x2c
    1404:	f5 a5       	ldd	r31, Z+45	; 0x2d
    1406:	e0 2d       	mov	r30, r0
    1408:	65 e0       	ldi	r22, 0x05	; 5
    140a:	70 e0       	ldi	r23, 0x00	; 0
    140c:	80 e0       	ldi	r24, 0x00	; 0
    140e:	90 e0       	ldi	r25, 0x00	; 0
    1410:	09 95       	icall
	v_com_rslt_s8 +=
	p_bmp180->BMP180_BUS_READ_FUNC(p_bmp180->dev_addr,
    1412:	a0 91 9e 05 	lds	r26, 0x059E	; 0x80059e <__data_end>
    1416:	b0 91 9f 05 	lds	r27, 0x059F	; 0x80059f <__data_end+0x1>
    141a:	9a 96       	adiw	r26, 0x2a	; 42
    141c:	ed 91       	ld	r30, X+
    141e:	fc 91       	ld	r31, X
    1420:	9b 97       	sbiw	r26, 0x2b	; 43
    1422:	22 e0       	ldi	r18, 0x02	; 2
    1424:	ae 01       	movw	r20, r28
    1426:	4f 5f       	subi	r20, 0xFF	; 255
    1428:	5f 4f       	sbci	r21, 0xFF	; 255
    142a:	66 ef       	ldi	r22, 0xF6	; 246
    142c:	5a 96       	adiw	r26, 0x1a	; 26
    142e:	8c 91       	ld	r24, X
    1430:	09 95       	icall
	BMP180_ADC_OUT_MSB_REG, v_data_u8,
	BMP180_TEMPERATURE_DATA_LENGTH);
	v_ut_u16 = (u16)((((s32)
    1432:	89 81       	ldd	r24, Y+1	; 0x01
    1434:	08 2e       	mov	r0, r24
    1436:	00 0c       	add	r0, r0
    1438:	99 0b       	sbc	r25, r25
    143a:	aa 0b       	sbc	r26, r26
    143c:	bb 0b       	sbc	r27, r27
    143e:	ba 2f       	mov	r27, r26
    1440:	a9 2f       	mov	r26, r25
    1442:	98 2f       	mov	r25, r24
    1444:	88 27       	eor	r24, r24
    1446:	2a 81       	ldd	r18, Y+2	; 0x02
    1448:	30 e0       	ldi	r19, 0x00	; 0
	((s8)v_data_u8[BMP180_TEMPERATURE_MSB_DATA]))
	<< BMP180_SHIFT_BIT_POSITION_BY_08_BITS)
	| (v_data_u8[BMP180_TEMPERATURE_LSB_DATA]));
	return v_ut_u16;
}
    144a:	82 2b       	or	r24, r18
    144c:	93 2b       	or	r25, r19
    144e:	0f 90       	pop	r0
    1450:	0f 90       	pop	r0
    1452:	0f 90       	pop	r0
    1454:	df 91       	pop	r29
    1456:	cf 91       	pop	r28
    1458:	08 95       	ret

0000145a <bmp180_get_uncomp_pressure>:
 *	@retval 0 -> Success
 *	@retval -1 -> Error
 *
*/
u32 bmp180_get_uncomp_pressure(void)
{
    145a:	4f 92       	push	r4
    145c:	5f 92       	push	r5
    145e:	6f 92       	push	r6
    1460:	7f 92       	push	r7
    1462:	8f 92       	push	r8
    1464:	9f 92       	push	r9
    1466:	af 92       	push	r10
    1468:	bf 92       	push	r11
    146a:	cf 92       	push	r12
    146c:	df 92       	push	r13
    146e:	ef 92       	push	r14
    1470:	ff 92       	push	r15
    1472:	0f 93       	push	r16
    1474:	1f 93       	push	r17
    1476:	cf 93       	push	r28
    1478:	df 93       	push	r29
    147a:	00 d0       	rcall	.+0      	; 0x147c <bmp180_get_uncomp_pressure+0x22>
    147c:	00 d0       	rcall	.+0      	; 0x147e <bmp180_get_uncomp_pressure+0x24>
    147e:	cd b7       	in	r28, 0x3d	; 61
    1480:	de b7       	in	r29, 0x3e	; 62
	/*j included for loop*/
	u8 v_j_u8 = BMP180_INIT_VALUE;
	u32 v_up_u32 = BMP180_INIT_VALUE;
	/*get the calculated pressure data*/
	u32 v_sum_u32 = BMP180_INIT_VALUE;
	u8 v_data_u8[BMP180_PRESSURE_DATA_BYTES] = {
    1482:	19 82       	std	Y+1, r1	; 0x01
    1484:	1a 82       	std	Y+2, r1	; 0x02
    1486:	1b 82       	std	Y+3, r1	; 0x03
	BMP180_INIT_VALUE,
	BMP180_INIT_VALUE, BMP180_INIT_VALUE};
	u8 v_ctrl_reg_data_u8 = BMP180_INIT_VALUE;
    1488:	1c 82       	std	Y+4, r1	; 0x04
	/* used to return the bus communication results*/
	BMP180_RETURN_FUNCTION_TYPE v_com_rslt_s8 = E_BMP_COMM_RES;

	if (p_bmp180->sw_oversamp == BMP180_SW_OVERSAMP_U8X &&
    148a:	a0 91 9e 05 	lds	r26, 0x059E	; 0x80059e <__data_end>
    148e:	b0 91 9f 05 	lds	r27, 0x059F	; 0x80059f <__data_end+0x1>
    1492:	96 96       	adiw	r26, 0x26	; 38
    1494:	8d 91       	ld	r24, X+
    1496:	9c 91       	ld	r25, X
    1498:	97 97       	sbiw	r26, 0x27	; 39
    149a:	81 30       	cpi	r24, 0x01	; 1
    149c:	91 05       	cpc	r25, r1
    149e:	09 f0       	breq	.+2      	; 0x14a2 <bmp180_get_uncomp_pressure+0x48>
    14a0:	93 c0       	rjmp	.+294    	; 0x15c8 <bmp180_get_uncomp_pressure+0x16e>
    14a2:	94 96       	adiw	r26, 0x24	; 36
    14a4:	8d 91       	ld	r24, X+
    14a6:	9c 91       	ld	r25, X
    14a8:	95 97       	sbiw	r26, 0x25	; 37
    14aa:	03 97       	sbiw	r24, 0x03	; 3
    14ac:	09 f0       	breq	.+2      	; 0x14b0 <bmp180_get_uncomp_pressure+0x56>
    14ae:	f3 c0       	rjmp	.+486    	; 0x1696 <bmp180_get_uncomp_pressure+0x23c>
    14b0:	13 e0       	ldi	r17, 0x03	; 3
    14b2:	c1 2c       	mov	r12, r1
    14b4:	d1 2c       	mov	r13, r1
    14b6:	76 01       	movw	r14, r12
			<< BMP180_SHIFT_BIT_POSITION_BY_06_BITS);
			v_com_rslt_s8 = p_bmp180->BMP180_BUS_WRITE_FUNC(
			p_bmp180->dev_addr,
			BMP180_CTRL_MEAS_REG,
			&v_ctrl_reg_data_u8, BMP180_GEN_READ_WRITE_DATA_LENGTH);
			p_bmp180->delay_msec(BMP180_2MS_DELAY_U8X + (
    14b8:	0f 2e       	mov	r0, r31
    14ba:	f3 e0       	ldi	r31, 0x03	; 3
    14bc:	8f 2e       	mov	r8, r31
    14be:	91 2c       	mov	r9, r1
    14c0:	f0 2d       	mov	r31, r0
			v_com_rslt_s8 +=
			p_bmp180->BMP180_BUS_READ_FUNC(
			p_bmp180->dev_addr,
			BMP180_ADC_OUT_MSB_REG,
			v_data_u8, BMP180_PRESSURE_DATA_LENGTH);
			v_sum_u32 = (u32)((((u32)
    14c2:	68 94       	set
    14c4:	aa 24       	eor	r10, r10
    14c6:	a3 f8       	bld	r10, 3
    14c8:	b1 2c       	mov	r11, r1
			((u32) v_data_u8[BMP180_PRESSURE_LSB_DATA]
			<< BMP180_SHIFT_BIT_POSITION_BY_08_BITS) |
			(u32) v_data_u8[BMP180_PRESSURE_XLSB_DATA]) >>
			(BMP180_CALCULATE_TRUE_PRESSURE -
			p_bmp180->oversamp_setting));
			p_bmp180->number_of_samples =
    14ca:	41 2c       	mov	r4, r1
    14cc:	51 2c       	mov	r5, r1
    14ce:	32 01       	movw	r6, r4
    14d0:	43 94       	inc	r4
	p_bmp180->oversamp_setting == BMP180_OVERSAMP_SETTING_U8X) {
		for (v_j_u8 = BMP180_INIT_VALUE;
		v_j_u8 < BMP180_DATA_MEASURE; v_j_u8++) {
			/* 3 times getting pressure data*/
			v_ctrl_reg_data_u8 = BMP180_P_MEASURE +
			(p_bmp180->oversamp_setting
    14d2:	a0 91 9e 05 	lds	r26, 0x059E	; 0x80059e <__data_end>
    14d6:	b0 91 9f 05 	lds	r27, 0x059F	; 0x80059f <__data_end+0x1>
	if (p_bmp180->sw_oversamp == BMP180_SW_OVERSAMP_U8X &&
	p_bmp180->oversamp_setting == BMP180_OVERSAMP_SETTING_U8X) {
		for (v_j_u8 = BMP180_INIT_VALUE;
		v_j_u8 < BMP180_DATA_MEASURE; v_j_u8++) {
			/* 3 times getting pressure data*/
			v_ctrl_reg_data_u8 = BMP180_P_MEASURE +
    14da:	94 96       	adiw	r26, 0x24	; 36
    14dc:	8c 91       	ld	r24, X
    14de:	94 97       	sbiw	r26, 0x24	; 36
    14e0:	82 95       	swap	r24
    14e2:	88 0f       	add	r24, r24
    14e4:	88 0f       	add	r24, r24
    14e6:	80 7c       	andi	r24, 0xC0	; 192
    14e8:	8c 5c       	subi	r24, 0xCC	; 204
    14ea:	8c 83       	std	Y+4, r24	; 0x04
			(p_bmp180->oversamp_setting
			<< BMP180_SHIFT_BIT_POSITION_BY_06_BITS);
			v_com_rslt_s8 = p_bmp180->BMP180_BUS_WRITE_FUNC(
    14ec:	98 96       	adiw	r26, 0x28	; 40
    14ee:	ed 91       	ld	r30, X+
    14f0:	fc 91       	ld	r31, X
    14f2:	99 97       	sbiw	r26, 0x29	; 41
    14f4:	21 e0       	ldi	r18, 0x01	; 1
    14f6:	ae 01       	movw	r20, r28
    14f8:	4c 5f       	subi	r20, 0xFC	; 252
    14fa:	5f 4f       	sbci	r21, 0xFF	; 255
    14fc:	64 ef       	ldi	r22, 0xF4	; 244
    14fe:	5a 96       	adiw	r26, 0x1a	; 26
    1500:	8c 91       	ld	r24, X
    1502:	09 95       	icall
			p_bmp180->dev_addr,
			BMP180_CTRL_MEAS_REG,
			&v_ctrl_reg_data_u8, BMP180_GEN_READ_WRITE_DATA_LENGTH);
			p_bmp180->delay_msec(BMP180_2MS_DELAY_U8X + (
    1504:	e0 91 9e 05 	lds	r30, 0x059E	; 0x80059e <__data_end>
    1508:	f0 91 9f 05 	lds	r31, 0x059F	; 0x80059f <__data_end+0x1>
    150c:	b4 01       	movw	r22, r8
    150e:	04 a0       	ldd	r0, Z+36	; 0x24
    1510:	02 c0       	rjmp	.+4      	; 0x1516 <bmp180_get_uncomp_pressure+0xbc>
    1512:	66 0f       	add	r22, r22
    1514:	77 1f       	adc	r23, r23
    1516:	0a 94       	dec	r0
    1518:	e2 f7       	brpl	.-8      	; 0x1512 <bmp180_get_uncomp_pressure+0xb8>
    151a:	6e 5f       	subi	r22, 0xFE	; 254
    151c:	7f 4f       	sbci	r23, 0xFF	; 255
    151e:	07 2e       	mov	r0, r23
    1520:	00 0c       	add	r0, r0
    1522:	88 0b       	sbc	r24, r24
    1524:	99 0b       	sbc	r25, r25
    1526:	04 a4       	ldd	r0, Z+44	; 0x2c
    1528:	f5 a5       	ldd	r31, Z+45	; 0x2d
    152a:	e0 2d       	mov	r30, r0
    152c:	09 95       	icall
			BMP180_3MS_DELAY_U8X <<
			(p_bmp180->oversamp_setting)));
			v_com_rslt_s8 +=
			p_bmp180->BMP180_BUS_READ_FUNC(
    152e:	a0 91 9e 05 	lds	r26, 0x059E	; 0x80059e <__data_end>
    1532:	b0 91 9f 05 	lds	r27, 0x059F	; 0x80059f <__data_end+0x1>
    1536:	9a 96       	adiw	r26, 0x2a	; 42
    1538:	ed 91       	ld	r30, X+
    153a:	fc 91       	ld	r31, X
    153c:	9b 97       	sbiw	r26, 0x2b	; 43
    153e:	23 e0       	ldi	r18, 0x03	; 3
    1540:	ae 01       	movw	r20, r28
    1542:	4f 5f       	subi	r20, 0xFF	; 255
    1544:	5f 4f       	sbci	r21, 0xFF	; 255
    1546:	66 ef       	ldi	r22, 0xF6	; 246
    1548:	5a 96       	adiw	r26, 0x1a	; 26
    154a:	8c 91       	ld	r24, X
    154c:	09 95       	icall
			<< BMP180_SHIFT_BIT_POSITION_BY_16_BITS) |
			((u32) v_data_u8[BMP180_PRESSURE_LSB_DATA]
			<< BMP180_SHIFT_BIT_POSITION_BY_08_BITS) |
			(u32) v_data_u8[BMP180_PRESSURE_XLSB_DATA]) >>
			(BMP180_CALCULATE_TRUE_PRESSURE -
			p_bmp180->oversamp_setting));
    154e:	e0 91 9e 05 	lds	r30, 0x059E	; 0x80059e <__data_end>
    1552:	f0 91 9f 05 	lds	r31, 0x059F	; 0x80059f <__data_end+0x1>
			v_com_rslt_s8 +=
			p_bmp180->BMP180_BUS_READ_FUNC(
			p_bmp180->dev_addr,
			BMP180_ADC_OUT_MSB_REG,
			v_data_u8, BMP180_PRESSURE_DATA_LENGTH);
			v_sum_u32 = (u32)((((u32)
    1556:	29 81       	ldd	r18, Y+1	; 0x01
    1558:	8a 81       	ldd	r24, Y+2	; 0x02
    155a:	90 e0       	ldi	r25, 0x00	; 0
    155c:	a0 e0       	ldi	r26, 0x00	; 0
    155e:	b0 e0       	ldi	r27, 0x00	; 0
    1560:	ba 2f       	mov	r27, r26
    1562:	a9 2f       	mov	r26, r25
    1564:	98 2f       	mov	r25, r24
    1566:	88 27       	eor	r24, r24
    1568:	a2 2b       	or	r26, r18
    156a:	2b 81       	ldd	r18, Y+3	; 0x03
    156c:	82 2b       	or	r24, r18
    156e:	24 a1       	ldd	r18, Z+36	; 0x24
    1570:	35 a1       	ldd	r19, Z+37	; 0x25
    1572:	a5 01       	movw	r20, r10
    1574:	42 1b       	sub	r20, r18
    1576:	53 0b       	sbc	r21, r19
    1578:	04 c0       	rjmp	.+8      	; 0x1582 <bmp180_get_uncomp_pressure+0x128>
    157a:	b6 95       	lsr	r27
    157c:	a7 95       	ror	r26
    157e:	97 95       	ror	r25
    1580:	87 95       	ror	r24
    1582:	4a 95       	dec	r20
    1584:	d2 f7       	brpl	.-12     	; 0x157a <bmp180_get_uncomp_pressure+0x120>
			((u32) v_data_u8[BMP180_PRESSURE_LSB_DATA]
			<< BMP180_SHIFT_BIT_POSITION_BY_08_BITS) |
			(u32) v_data_u8[BMP180_PRESSURE_XLSB_DATA]) >>
			(BMP180_CALCULATE_TRUE_PRESSURE -
			p_bmp180->oversamp_setting));
			p_bmp180->number_of_samples =
    1586:	40 a2       	std	Z+32, r4	; 0x20
    1588:	51 a2       	std	Z+33, r5	; 0x21
    158a:	62 a2       	std	Z+34, r6	; 0x22
    158c:	73 a2       	std	Z+35, r7	; 0x23
			BMP180_INITIALIZE_NUMBER_OF_SAMPLES_U8X;

			v_up_u32 = v_up_u32 + v_sum_u32;
    158e:	c8 0e       	add	r12, r24
    1590:	d9 1e       	adc	r13, r25
    1592:	ea 1e       	adc	r14, r26
    1594:	fb 1e       	adc	r15, r27
    1596:	11 50       	subi	r17, 0x01	; 1
	/* used to return the bus communication results*/
	BMP180_RETURN_FUNCTION_TYPE v_com_rslt_s8 = E_BMP_COMM_RES;

	if (p_bmp180->sw_oversamp == BMP180_SW_OVERSAMP_U8X &&
	p_bmp180->oversamp_setting == BMP180_OVERSAMP_SETTING_U8X) {
		for (v_j_u8 = BMP180_INIT_VALUE;
    1598:	09 f0       	breq	.+2      	; 0x159c <bmp180_get_uncomp_pressure+0x142>
    159a:	9b cf       	rjmp	.-202    	; 0x14d2 <bmp180_get_uncomp_pressure+0x78>
			BMP180_INITIALIZE_NUMBER_OF_SAMPLES_U8X;

			v_up_u32 = v_up_u32 + v_sum_u32;
			/*add up with dummy var*/
		}
		v_up_u32 = v_up_u32 / BMP180_AVERAGE_U8X; /*averaging*/
    159c:	c7 01       	movw	r24, r14
    159e:	b6 01       	movw	r22, r12
    15a0:	2b ea       	ldi	r18, 0xAB	; 171
    15a2:	3a ea       	ldi	r19, 0xAA	; 170
    15a4:	4a ea       	ldi	r20, 0xAA	; 170
    15a6:	5a ea       	ldi	r21, 0xAA	; 170
    15a8:	0e 94 34 1c 	call	0x3868	; 0x3868 <__umulsidi3>
    15ac:	00 e2       	ldi	r16, 0x20	; 32
    15ae:	0e 94 61 1c 	call	0x38c2	; 0x38c2 <__lshrdi3>
    15b2:	82 2e       	mov	r8, r18
    15b4:	93 2e       	mov	r9, r19
    15b6:	a4 2e       	mov	r10, r20
    15b8:	b5 2e       	mov	r11, r21
    15ba:	c5 01       	movw	r24, r10
    15bc:	b4 01       	movw	r22, r8
    15be:	96 95       	lsr	r25
    15c0:	87 95       	ror	r24
    15c2:	77 95       	ror	r23
    15c4:	67 95       	ror	r22
    15c6:	6e c0       	rjmp	.+220    	; 0x16a4 <bmp180_get_uncomp_pressure+0x24a>
	} else {
		if (p_bmp180->sw_oversamp ==
    15c8:	89 2b       	or	r24, r25
    15ca:	09 f0       	breq	.+2      	; 0x15ce <bmp180_get_uncomp_pressure+0x174>
    15cc:	68 c0       	rjmp	.+208    	; 0x169e <bmp180_get_uncomp_pressure+0x244>
		BMP180_INITIALIZE_SW_OVERSAMP_U8X) {
			v_ctrl_reg_data_u8 = BMP180_P_MEASURE +
    15ce:	94 96       	adiw	r26, 0x24	; 36
    15d0:	8c 91       	ld	r24, X
    15d2:	94 97       	sbiw	r26, 0x24	; 36
    15d4:	82 95       	swap	r24
    15d6:	88 0f       	add	r24, r24
    15d8:	88 0f       	add	r24, r24
    15da:	80 7c       	andi	r24, 0xC0	; 192
    15dc:	8c 5c       	subi	r24, 0xCC	; 204
    15de:	8c 83       	std	Y+4, r24	; 0x04
			(p_bmp180->oversamp_setting
			<< BMP180_SHIFT_BIT_POSITION_BY_06_BITS);
			v_com_rslt_s8 = p_bmp180->BMP180_BUS_WRITE_FUNC(
    15e0:	98 96       	adiw	r26, 0x28	; 40
    15e2:	ed 91       	ld	r30, X+
    15e4:	fc 91       	ld	r31, X
    15e6:	99 97       	sbiw	r26, 0x29	; 41
    15e8:	21 e0       	ldi	r18, 0x01	; 1
    15ea:	ae 01       	movw	r20, r28
    15ec:	4c 5f       	subi	r20, 0xFC	; 252
    15ee:	5f 4f       	sbci	r21, 0xFF	; 255
    15f0:	64 ef       	ldi	r22, 0xF4	; 244
    15f2:	5a 96       	adiw	r26, 0x1a	; 26
    15f4:	8c 91       	ld	r24, X
    15f6:	09 95       	icall
			p_bmp180->dev_addr, BMP180_CTRL_MEAS_REG,
			&v_ctrl_reg_data_u8, BMP180_GEN_READ_WRITE_DATA_LENGTH);
			p_bmp180->delay_msec(BMP180_2MS_DELAY_U8X
    15f8:	e0 91 9e 05 	lds	r30, 0x059E	; 0x80059e <__data_end>
    15fc:	f0 91 9f 05 	lds	r31, 0x059F	; 0x80059f <__data_end+0x1>
    1600:	63 e0       	ldi	r22, 0x03	; 3
    1602:	70 e0       	ldi	r23, 0x00	; 0
    1604:	04 a0       	ldd	r0, Z+36	; 0x24
    1606:	02 c0       	rjmp	.+4      	; 0x160c <bmp180_get_uncomp_pressure+0x1b2>
    1608:	66 0f       	add	r22, r22
    160a:	77 1f       	adc	r23, r23
    160c:	0a 94       	dec	r0
    160e:	e2 f7       	brpl	.-8      	; 0x1608 <bmp180_get_uncomp_pressure+0x1ae>
    1610:	6e 5f       	subi	r22, 0xFE	; 254
    1612:	7f 4f       	sbci	r23, 0xFF	; 255
    1614:	07 2e       	mov	r0, r23
    1616:	00 0c       	add	r0, r0
    1618:	88 0b       	sbc	r24, r24
    161a:	99 0b       	sbc	r25, r25
    161c:	04 a4       	ldd	r0, Z+44	; 0x2c
    161e:	f5 a5       	ldd	r31, Z+45	; 0x2d
    1620:	e0 2d       	mov	r30, r0
    1622:	09 95       	icall
			+ (BMP180_3MS_DELAY_U8X <<
			(p_bmp180->oversamp_setting)));
			v_com_rslt_s8 += p_bmp180->BMP180_BUS_READ_FUNC(
    1624:	a0 91 9e 05 	lds	r26, 0x059E	; 0x80059e <__data_end>
    1628:	b0 91 9f 05 	lds	r27, 0x059F	; 0x80059f <__data_end+0x1>
    162c:	9a 96       	adiw	r26, 0x2a	; 42
    162e:	ed 91       	ld	r30, X+
    1630:	fc 91       	ld	r31, X
    1632:	9b 97       	sbiw	r26, 0x2b	; 43
    1634:	23 e0       	ldi	r18, 0x03	; 3
    1636:	ae 01       	movw	r20, r28
    1638:	4f 5f       	subi	r20, 0xFF	; 255
    163a:	5f 4f       	sbci	r21, 0xFF	; 255
    163c:	66 ef       	ldi	r22, 0xF6	; 246
    163e:	5a 96       	adiw	r26, 0x1a	; 26
    1640:	8c 91       	ld	r24, X
    1642:	09 95       	icall
			<< BMP180_SHIFT_BIT_POSITION_BY_16_BITS) | (
			(u32) v_data_u8[BMP180_PRESSURE_LSB_DATA]
			<< BMP180_SHIFT_BIT_POSITION_BY_08_BITS) |
			(u32) v_data_u8[BMP180_PRESSURE_XLSB_DATA]) >>
			(BMP180_CALCULATE_TRUE_PRESSURE -
			p_bmp180->oversamp_setting));
    1644:	e0 91 9e 05 	lds	r30, 0x059E	; 0x80059e <__data_end>
    1648:	f0 91 9f 05 	lds	r31, 0x059F	; 0x80059f <__data_end+0x1>
			(p_bmp180->oversamp_setting)));
			v_com_rslt_s8 += p_bmp180->BMP180_BUS_READ_FUNC(
			p_bmp180->dev_addr,
			BMP180_ADC_OUT_MSB_REG,
			v_data_u8, BMP180_PRESSURE_DATA_LENGTH);
			v_up_u32 = (u32)((((u32)
    164c:	29 81       	ldd	r18, Y+1	; 0x01
    164e:	6a 81       	ldd	r22, Y+2	; 0x02
    1650:	86 2f       	mov	r24, r22
    1652:	90 e0       	ldi	r25, 0x00	; 0
    1654:	a0 e0       	ldi	r26, 0x00	; 0
    1656:	b0 e0       	ldi	r27, 0x00	; 0
    1658:	ba 2f       	mov	r27, r26
    165a:	a9 2f       	mov	r26, r25
    165c:	98 2f       	mov	r25, r24
    165e:	88 27       	eor	r24, r24
    1660:	a2 2b       	or	r26, r18
    1662:	2b 81       	ldd	r18, Y+3	; 0x03
    1664:	82 2b       	or	r24, r18
    1666:	44 a1       	ldd	r20, Z+36	; 0x24
    1668:	55 a1       	ldd	r21, Z+37	; 0x25
    166a:	28 e0       	ldi	r18, 0x08	; 8
    166c:	30 e0       	ldi	r19, 0x00	; 0
    166e:	24 1b       	sub	r18, r20
    1670:	35 0b       	sbc	r19, r21
    1672:	bc 01       	movw	r22, r24
    1674:	cd 01       	movw	r24, r26
    1676:	04 c0       	rjmp	.+8      	; 0x1680 <bmp180_get_uncomp_pressure+0x226>
    1678:	96 95       	lsr	r25
    167a:	87 95       	ror	r24
    167c:	77 95       	ror	r23
    167e:	67 95       	ror	r22
    1680:	2a 95       	dec	r18
    1682:	d2 f7       	brpl	.-12     	; 0x1678 <bmp180_get_uncomp_pressure+0x21e>
			(u32) v_data_u8[BMP180_PRESSURE_LSB_DATA]
			<< BMP180_SHIFT_BIT_POSITION_BY_08_BITS) |
			(u32) v_data_u8[BMP180_PRESSURE_XLSB_DATA]) >>
			(BMP180_CALCULATE_TRUE_PRESSURE -
			p_bmp180->oversamp_setting));
			p_bmp180->number_of_samples =
    1684:	c1 2c       	mov	r12, r1
    1686:	d1 2c       	mov	r13, r1
    1688:	76 01       	movw	r14, r12
    168a:	c3 94       	inc	r12
    168c:	c0 a2       	std	Z+32, r12	; 0x20
    168e:	d1 a2       	std	Z+33, r13	; 0x21
    1690:	e2 a2       	std	Z+34, r14	; 0x22
    1692:	f3 a2       	std	Z+35, r15	; 0x23
    1694:	07 c0       	rjmp	.+14     	; 0x16a4 <bmp180_get_uncomp_pressure+0x24a>
*/
u32 bmp180_get_uncomp_pressure(void)
{
	/*j included for loop*/
	u8 v_j_u8 = BMP180_INIT_VALUE;
	u32 v_up_u32 = BMP180_INIT_VALUE;
    1696:	60 e0       	ldi	r22, 0x00	; 0
    1698:	70 e0       	ldi	r23, 0x00	; 0
    169a:	cb 01       	movw	r24, r22
    169c:	03 c0       	rjmp	.+6      	; 0x16a4 <bmp180_get_uncomp_pressure+0x24a>
    169e:	60 e0       	ldi	r22, 0x00	; 0
    16a0:	70 e0       	ldi	r23, 0x00	; 0
    16a2:	cb 01       	movw	r24, r22
		}

	}

	return v_up_u32;
}
    16a4:	0f 90       	pop	r0
    16a6:	0f 90       	pop	r0
    16a8:	0f 90       	pop	r0
    16aa:	0f 90       	pop	r0
    16ac:	df 91       	pop	r29
    16ae:	cf 91       	pop	r28
    16b0:	1f 91       	pop	r17
    16b2:	0f 91       	pop	r16
    16b4:	ff 90       	pop	r15
    16b6:	ef 90       	pop	r14
    16b8:	df 90       	pop	r13
    16ba:	cf 90       	pop	r12
    16bc:	bf 90       	pop	r11
    16be:	af 90       	pop	r10
    16c0:	9f 90       	pop	r9
    16c2:	8f 90       	pop	r8
    16c4:	7f 90       	pop	r7
    16c6:	6f 90       	pop	r6
    16c8:	5f 90       	pop	r5
    16ca:	4f 90       	pop	r4
    16cc:	08 95       	ret

000016ce <i2c_init>:
}

void	i2c_stop(void)
{
	// transmit STOP condition
	TWCR = (1<<TWINT) | (1<<TWEN) | (1<<TWSTO);
    16ce:	8d ef       	ldi	r24, 0xFD	; 253
    16d0:	80 b9       	out	0x00, r24	; 0
    16d2:	08 95       	ret

000016d4 <i2c_start>:
    16d4:	16 be       	out	0x36, r1	; 54
    16d6:	94 ea       	ldi	r25, 0xA4	; 164
    16d8:	96 bf       	out	0x36, r25	; 54
    16da:	06 b6       	in	r0, 0x36	; 54
    16dc:	07 fe       	sbrs	r0, 7
    16de:	fd cf       	rjmp	.-6      	; 0x16da <i2c_start+0x6>
    16e0:	91 b1       	in	r25, 0x01	; 1
    16e2:	98 7f       	andi	r25, 0xF8	; 248
    16e4:	98 30       	cpi	r25, 0x08	; 8
    16e6:	79 f4       	brne	.+30     	; 0x1706 <i2c_start+0x32>
    16e8:	83 b9       	out	0x03, r24	; 3
    16ea:	84 e8       	ldi	r24, 0x84	; 132
    16ec:	86 bf       	out	0x36, r24	; 54
    16ee:	06 b6       	in	r0, 0x36	; 54
    16f0:	07 fe       	sbrs	r0, 7
    16f2:	fd cf       	rjmp	.-6      	; 0x16ee <i2c_start+0x1a>
    16f4:	91 b1       	in	r25, 0x01	; 1
    16f6:	98 7f       	andi	r25, 0xF8	; 248
    16f8:	98 31       	cpi	r25, 0x18	; 24
    16fa:	39 f0       	breq	.+14     	; 0x170a <i2c_start+0x36>
    16fc:	81 e0       	ldi	r24, 0x01	; 1
    16fe:	90 34       	cpi	r25, 0x40	; 64
    1700:	29 f4       	brne	.+10     	; 0x170c <i2c_start+0x38>
    1702:	80 e0       	ldi	r24, 0x00	; 0
    1704:	08 95       	ret
    1706:	81 e0       	ldi	r24, 0x01	; 1
    1708:	08 95       	ret
    170a:	80 e0       	ldi	r24, 0x00	; 0
    170c:	08 95       	ret

0000170e <i2c_rep_start>:
    170e:	0e 94 6a 0b 	call	0x16d4	; 0x16d4 <i2c_start>
    1712:	08 95       	ret

00001714 <i2c_write>:
    1714:	83 b9       	out	0x03, r24	; 3
    1716:	84 e8       	ldi	r24, 0x84	; 132
    1718:	86 bf       	out	0x36, r24	; 54
    171a:	06 b6       	in	r0, 0x36	; 54
    171c:	07 fe       	sbrs	r0, 7
    171e:	fd cf       	rjmp	.-6      	; 0x171a <i2c_write+0x6>
    1720:	91 b1       	in	r25, 0x01	; 1
    1722:	98 7f       	andi	r25, 0xF8	; 248
    1724:	81 e0       	ldi	r24, 0x01	; 1
    1726:	98 32       	cpi	r25, 0x28	; 40
    1728:	09 f4       	brne	.+2      	; 0x172c <i2c_write+0x18>
    172a:	80 e0       	ldi	r24, 0x00	; 0
    172c:	08 95       	ret

0000172e <i2c_readAck>:
    172e:	84 ec       	ldi	r24, 0xC4	; 196
    1730:	86 bf       	out	0x36, r24	; 54
    1732:	06 b6       	in	r0, 0x36	; 54
    1734:	07 fe       	sbrs	r0, 7
    1736:	fd cf       	rjmp	.-6      	; 0x1732 <i2c_readAck+0x4>
    1738:	83 b1       	in	r24, 0x03	; 3
    173a:	08 95       	ret

0000173c <i2c_readNak>:
    173c:	84 e8       	ldi	r24, 0x84	; 132
    173e:	86 bf       	out	0x36, r24	; 54
    1740:	06 b6       	in	r0, 0x36	; 54
    1742:	07 fe       	sbrs	r0, 7
    1744:	fd cf       	rjmp	.-6      	; 0x1740 <i2c_readNak+0x4>
    1746:	83 b1       	in	r24, 0x03	; 3
    1748:	08 95       	ret

0000174a <I2cWriteBytes>:
}


enum I2c_Return_Codes I2cWriteBytes( I2cTransfer_t *Tx )
{
    174a:	0f 93       	push	r16
    174c:	1f 93       	push	r17
    174e:	cf 93       	push	r28
    1750:	df 93       	push	r29
    1752:	8c 01       	movw	r16, r24
	if ( i2c_start( Tx->uiSlaveAddress + I2C_WRITE ) )
    1754:	dc 01       	movw	r26, r24
    1756:	14 96       	adiw	r26, 0x04	; 4
    1758:	8c 91       	ld	r24, X
    175a:	0e 94 6a 0b 	call	0x16d4	; 0x16d4 <i2c_start>
    175e:	88 23       	and	r24, r24
    1760:	21 f0       	breq	.+8      	; 0x176a <I2cWriteBytes+0x20>
}

void	i2c_stop(void)
{
	// transmit STOP condition
	TWCR = (1<<TWINT) | (1<<TWEN) | (1<<TWSTO);
    1762:	84 e9       	ldi	r24, 0x94	; 148
    1764:	86 bf       	out	0x36, r24	; 54
enum I2c_Return_Codes I2cWriteBytes( I2cTransfer_t *Tx )
{
	if ( i2c_start( Tx->uiSlaveAddress + I2C_WRITE ) )
	{
		i2c_stop();
		return _I2C_RETURN_NACK_;
    1766:	80 e0       	ldi	r24, 0x00	; 0
    1768:	28 c0       	rjmp	.+80     	; 0x17ba <I2cWriteBytes+0x70>
	/*
	*	Sollte die Register Adresse nicht gleich den Wert "255"
	*	entsprechen, so wird die Adresse nicht in "*ptrData" enthalten sein
	*	und muss einzeln gesendet werden.
	*/
	switch ( Tx->SpecialAddressHandling.uiHandlingAddress )
    176a:	f8 01       	movw	r30, r16
    176c:	87 81       	ldd	r24, Z+7	; 0x07
    176e:	8f 3f       	cpi	r24, 0xFF	; 255
    1770:	19 f4       	brne	.+6      	; 0x1778 <I2cWriteBytes+0x2e>
	{
		case I2C_TRANSFER_ADDR_NIDS:
		{
			i2c_write( Tx->uiRegisterAddress );
    1772:	85 81       	ldd	r24, Z+5	; 0x05
    1774:	0e 94 8a 0b 	call	0x1714	; 0x1714 <i2c_write>
		}break;
	}
	
	for ( uint16_t ui = 0 ; ui < Tx->uiLength ; ui++ )
    1778:	d8 01       	movw	r26, r16
    177a:	12 96       	adiw	r26, 0x02	; 2
    177c:	8d 91       	ld	r24, X+
    177e:	9c 91       	ld	r25, X
    1780:	13 97       	sbiw	r26, 0x03	; 3
    1782:	89 2b       	or	r24, r25
    1784:	b9 f0       	breq	.+46     	; 0x17b4 <I2cWriteBytes+0x6a>
    1786:	c0 e0       	ldi	r28, 0x00	; 0
    1788:	d0 e0       	ldi	r29, 0x00	; 0
	{
		if ( i2c_write( *( Tx->ptrData + ui ) ) )
    178a:	d8 01       	movw	r26, r16
    178c:	ed 91       	ld	r30, X+
    178e:	fc 91       	ld	r31, X
    1790:	ec 0f       	add	r30, r28
    1792:	fd 1f       	adc	r31, r29
    1794:	80 81       	ld	r24, Z
    1796:	0e 94 8a 0b 	call	0x1714	; 0x1714 <i2c_write>
    179a:	88 23       	and	r24, r24
    179c:	21 f0       	breq	.+8      	; 0x17a6 <I2cWriteBytes+0x5c>
}

void	i2c_stop(void)
{
	// transmit STOP condition
	TWCR = (1<<TWINT) | (1<<TWEN) | (1<<TWSTO);
    179e:	84 e9       	ldi	r24, 0x94	; 148
    17a0:	86 bf       	out	0x36, r24	; 54
	for ( uint16_t ui = 0 ; ui < Tx->uiLength ; ui++ )
	{
		if ( i2c_write( *( Tx->ptrData + ui ) ) )
		{
			i2c_stop();
			return _I2C_RETURN_NACK_;
    17a2:	80 e0       	ldi	r24, 0x00	; 0
    17a4:	0a c0       	rjmp	.+20     	; 0x17ba <I2cWriteBytes+0x70>
		{
			i2c_write( Tx->uiRegisterAddress );
		}break;
	}
	
	for ( uint16_t ui = 0 ; ui < Tx->uiLength ; ui++ )
    17a6:	21 96       	adiw	r28, 0x01	; 1
    17a8:	f8 01       	movw	r30, r16
    17aa:	82 81       	ldd	r24, Z+2	; 0x02
    17ac:	93 81       	ldd	r25, Z+3	; 0x03
    17ae:	c8 17       	cp	r28, r24
    17b0:	d9 07       	cpc	r29, r25
    17b2:	58 f3       	brcs	.-42     	; 0x178a <I2cWriteBytes+0x40>
}

void	i2c_stop(void)
{
	// transmit STOP condition
	TWCR = (1<<TWINT) | (1<<TWEN) | (1<<TWSTO);
    17b4:	84 e9       	ldi	r24, 0x94	; 148
    17b6:	86 bf       	out	0x36, r24	; 54
		}
	}
	
	i2c_stop();
	
	return _I2C_RETURN_ACK_;
    17b8:	81 e0       	ldi	r24, 0x01	; 1
}
    17ba:	df 91       	pop	r29
    17bc:	cf 91       	pop	r28
    17be:	1f 91       	pop	r17
    17c0:	0f 91       	pop	r16
    17c2:	08 95       	ret

000017c4 <I2cReadBytes>:

enum I2c_Return_Codes I2cReadBytes( I2cTransfer_t *Rx )
{
    17c4:	ef 92       	push	r14
    17c6:	ff 92       	push	r15
    17c8:	1f 93       	push	r17
    17ca:	cf 93       	push	r28
    17cc:	df 93       	push	r29
    17ce:	7c 01       	movw	r14, r24
	if ( i2c_start( Rx->uiSlaveAddress + I2C_WRITE ) )
    17d0:	dc 01       	movw	r26, r24
    17d2:	14 96       	adiw	r26, 0x04	; 4
    17d4:	8c 91       	ld	r24, X
    17d6:	0e 94 6a 0b 	call	0x16d4	; 0x16d4 <i2c_start>
    17da:	88 23       	and	r24, r24
    17dc:	21 f0       	breq	.+8      	; 0x17e6 <I2cReadBytes+0x22>
}

void	i2c_stop(void)
{
	// transmit STOP condition
	TWCR = (1<<TWINT) | (1<<TWEN) | (1<<TWSTO);
    17de:	84 e9       	ldi	r24, 0x94	; 148
    17e0:	86 bf       	out	0x36, r24	; 54
enum I2c_Return_Codes I2cReadBytes( I2cTransfer_t *Rx )
{
	if ( i2c_start( Rx->uiSlaveAddress + I2C_WRITE ) )
	{
		i2c_stop();
		return _I2C_RETURN_NACK_;
    17e2:	80 e0       	ldi	r24, 0x00	; 0
    17e4:	3d c0       	rjmp	.+122    	; 0x1860 <I2cReadBytes+0x9c>
	/*
	*	Sollte die Register Adresse nicht gleich den Wert "255"
	*	entsprechen, so wird die Adresse nicht in "*ptrData" enthalten sein
	*	und muss einzeln gesendet werden.
	*/
	switch ( Rx->SpecialAddressHandling.uiHandlingAddress )
    17e6:	f7 01       	movw	r30, r14
    17e8:	87 81       	ldd	r24, Z+7	; 0x07
    17ea:	8f 3f       	cpi	r24, 0xFF	; 255
    17ec:	21 f4       	brne	.+8      	; 0x17f6 <I2cReadBytes+0x32>
	{
		case I2C_TRANSFER_ADDR_NIDS:
		{
			i2c_write( Rx->uiRegisterAddress );
    17ee:	85 81       	ldd	r24, Z+5	; 0x05
    17f0:	0e 94 8a 0b 	call	0x1714	; 0x1714 <i2c_write>
		}break;
    17f4:	06 c0       	rjmp	.+12     	; 0x1802 <I2cReadBytes+0x3e>
		
		default:
		{
			i2c_write( Rx->ptrData[0] );
    17f6:	01 90       	ld	r0, Z+
    17f8:	f0 81       	ld	r31, Z
    17fa:	e0 2d       	mov	r30, r0
    17fc:	80 81       	ld	r24, Z
    17fe:	0e 94 8a 0b 	call	0x1714	; 0x1714 <i2c_write>
		}
	}
	
	i2c_rep_start( Rx->uiSlaveAddress + I2C_READ );
    1802:	f7 01       	movw	r30, r14
    1804:	84 81       	ldd	r24, Z+4	; 0x04
    1806:	8f 5f       	subi	r24, 0xFF	; 255
    1808:	0e 94 87 0b 	call	0x170e	; 0x170e <i2c_rep_start>
	
	if ( Rx->uiLength > 1 )
    180c:	d7 01       	movw	r26, r14
    180e:	12 96       	adiw	r26, 0x02	; 2
    1810:	8d 91       	ld	r24, X+
    1812:	9c 91       	ld	r25, X
    1814:	13 97       	sbiw	r26, 0x03	; 3
    1816:	82 30       	cpi	r24, 0x02	; 2
    1818:	91 05       	cpc	r25, r1
    181a:	c8 f0       	brcs	.+50     	; 0x184e <I2cReadBytes+0x8a>
	{
		for ( uint8_t ui = 0 ; ui < Rx->uiLength ; ui++ )
    181c:	89 2b       	or	r24, r25
    181e:	e9 f0       	breq	.+58     	; 0x185a <I2cReadBytes+0x96>
    1820:	80 e0       	ldi	r24, 0x00	; 0
    1822:	90 e0       	ldi	r25, 0x00	; 0
    1824:	10 e0       	ldi	r17, 0x00	; 0
		{
			*( Rx->ptrData + ui ) = i2c_readAck();
    1826:	f7 01       	movw	r30, r14
    1828:	c0 81       	ld	r28, Z
    182a:	d1 81       	ldd	r29, Z+1	; 0x01
    182c:	c8 0f       	add	r28, r24
    182e:	d9 1f       	adc	r29, r25
    1830:	0e 94 97 0b 	call	0x172e	; 0x172e <i2c_readAck>
    1834:	88 83       	st	Y, r24
	
	i2c_rep_start( Rx->uiSlaveAddress + I2C_READ );
	
	if ( Rx->uiLength > 1 )
	{
		for ( uint8_t ui = 0 ; ui < Rx->uiLength ; ui++ )
    1836:	1f 5f       	subi	r17, 0xFF	; 255
    1838:	81 2f       	mov	r24, r17
    183a:	90 e0       	ldi	r25, 0x00	; 0
    183c:	d7 01       	movw	r26, r14
    183e:	12 96       	adiw	r26, 0x02	; 2
    1840:	2d 91       	ld	r18, X+
    1842:	3c 91       	ld	r19, X
    1844:	13 97       	sbiw	r26, 0x03	; 3
    1846:	82 17       	cp	r24, r18
    1848:	93 07       	cpc	r25, r19
    184a:	68 f3       	brcs	.-38     	; 0x1826 <I2cReadBytes+0x62>
    184c:	06 c0       	rjmp	.+12     	; 0x185a <I2cReadBytes+0x96>
			*( Rx->ptrData + ui ) = i2c_readAck();
		}		
	}
	else
	{
		*( Rx->ptrData ) = i2c_readNak();
    184e:	f7 01       	movw	r30, r14
    1850:	c0 81       	ld	r28, Z
    1852:	d1 81       	ldd	r29, Z+1	; 0x01
    1854:	0e 94 9e 0b 	call	0x173c	; 0x173c <i2c_readNak>
    1858:	88 83       	st	Y, r24
}

void	i2c_stop(void)
{
	// transmit STOP condition
	TWCR = (1<<TWINT) | (1<<TWEN) | (1<<TWSTO);
    185a:	84 e9       	ldi	r24, 0x94	; 148
    185c:	86 bf       	out	0x36, r24	; 54
		*( Rx->ptrData ) = i2c_readNak();
	}
	
	i2c_stop();
	
	return _I2C_RETURN_ACK_;
    185e:	81 e0       	ldi	r24, 0x01	; 1
    1860:	df 91       	pop	r29
    1862:	cf 91       	pop	r28
    1864:	1f 91       	pop	r17
    1866:	ff 90       	pop	r15
    1868:	ef 90       	pop	r14
    186a:	08 95       	ret

0000186c <bcdToDec>:
  
void rtcSetClkOut(uint8_t frequency)
{    
	buff[0] = clkout_frequency_register;
	buff[1] = frequency;
	rx8564Writes( buff , sizeof(buff) );	
    186c:	98 2f       	mov	r25, r24
    186e:	92 95       	swap	r25
    1870:	9f 70       	andi	r25, 0x0F	; 15
    1872:	99 0f       	add	r25, r25
    1874:	29 2f       	mov	r18, r25
    1876:	22 0f       	add	r18, r18
    1878:	22 0f       	add	r18, r18
    187a:	92 0f       	add	r25, r18
    187c:	8f 70       	andi	r24, 0x0F	; 15
    187e:	89 0f       	add	r24, r25
    1880:	08 95       	ret

00001882 <rx8564Reads>:
    1882:	cf 93       	push	r28
    1884:	df 93       	push	r29
    1886:	cd b7       	in	r28, 0x3d	; 61
    1888:	de b7       	in	r29, 0x3e	; 62
    188a:	28 97       	sbiw	r28, 0x08	; 8
    188c:	0f b6       	in	r0, 0x3f	; 63
    188e:	f8 94       	cli
    1890:	de bf       	out	0x3e, r29	; 62
    1892:	0f be       	out	0x3f, r0	; 63
    1894:	cd bf       	out	0x3d, r28	; 61
    1896:	9a 83       	std	Y+2, r25	; 0x02
    1898:	89 83       	std	Y+1, r24	; 0x01
    189a:	70 e0       	ldi	r23, 0x00	; 0
    189c:	7c 83       	std	Y+4, r23	; 0x04
    189e:	6b 83       	std	Y+3, r22	; 0x03
    18a0:	fc 01       	movw	r30, r24
    18a2:	80 81       	ld	r24, Z
    18a4:	8e 83       	std	Y+6, r24	; 0x06
    18a6:	82 ea       	ldi	r24, 0xA2	; 162
    18a8:	8d 83       	std	Y+5, r24	; 0x05
    18aa:	ce 01       	movw	r24, r28
    18ac:	01 96       	adiw	r24, 0x01	; 1
    18ae:	0e 94 e2 0b 	call	0x17c4	; 0x17c4 <I2cReadBytes>
    18b2:	28 96       	adiw	r28, 0x08	; 8
    18b4:	0f b6       	in	r0, 0x3f	; 63
    18b6:	f8 94       	cli
    18b8:	de bf       	out	0x3e, r29	; 62
    18ba:	0f be       	out	0x3f, r0	; 63
    18bc:	cd bf       	out	0x3d, r28	; 61
    18be:	df 91       	pop	r29
    18c0:	cf 91       	pop	r28
    18c2:	08 95       	ret

000018c4 <rx8564Writes>:
    18c4:	cf 93       	push	r28
    18c6:	df 93       	push	r29
    18c8:	cd b7       	in	r28, 0x3d	; 61
    18ca:	de b7       	in	r29, 0x3e	; 62
    18cc:	28 97       	sbiw	r28, 0x08	; 8
    18ce:	0f b6       	in	r0, 0x3f	; 63
    18d0:	f8 94       	cli
    18d2:	de bf       	out	0x3e, r29	; 62
    18d4:	0f be       	out	0x3f, r0	; 63
    18d6:	cd bf       	out	0x3d, r28	; 61
    18d8:	9a 83       	std	Y+2, r25	; 0x02
    18da:	89 83       	std	Y+1, r24	; 0x01
    18dc:	70 e0       	ldi	r23, 0x00	; 0
    18de:	7c 83       	std	Y+4, r23	; 0x04
    18e0:	6b 83       	std	Y+3, r22	; 0x03
    18e2:	fc 01       	movw	r30, r24
    18e4:	80 81       	ld	r24, Z
    18e6:	8e 83       	std	Y+6, r24	; 0x06
    18e8:	82 ea       	ldi	r24, 0xA2	; 162
    18ea:	8d 83       	std	Y+5, r24	; 0x05
    18ec:	ce 01       	movw	r24, r28
    18ee:	01 96       	adiw	r24, 0x01	; 1
    18f0:	0e 94 a5 0b 	call	0x174a	; 0x174a <I2cWriteBytes>
    18f4:	28 96       	adiw	r28, 0x08	; 8
    18f6:	0f b6       	in	r0, 0x3f	; 63
    18f8:	f8 94       	cli
    18fa:	de bf       	out	0x3e, r29	; 62
    18fc:	0f be       	out	0x3f, r0	; 63
    18fe:	cd bf       	out	0x3d, r28	; 61
    1900:	df 91       	pop	r29
    1902:	cf 91       	pop	r28
    1904:	08 95       	ret

00001906 <rtcSetTime>:
    1906:	e0 ea       	ldi	r30, 0xA0	; 160
    1908:	f5 e0       	ldi	r31, 0x05	; 5
    190a:	92 e0       	ldi	r25, 0x02	; 2
    190c:	90 83       	st	Z, r25
    190e:	9d ec       	ldi	r25, 0xCD	; 205
    1910:	49 9f       	mul	r20, r25
    1912:	21 2d       	mov	r18, r1
    1914:	11 24       	eor	r1, r1
    1916:	26 95       	lsr	r18
    1918:	26 95       	lsr	r18
    191a:	26 95       	lsr	r18
    191c:	30 e1       	ldi	r19, 0x10	; 16
    191e:	23 9f       	mul	r18, r19
    1920:	d0 01       	movw	r26, r0
    1922:	11 24       	eor	r1, r1
    1924:	22 0f       	add	r18, r18
    1926:	32 2f       	mov	r19, r18
    1928:	33 0f       	add	r19, r19
    192a:	33 0f       	add	r19, r19
    192c:	23 0f       	add	r18, r19
    192e:	42 1b       	sub	r20, r18
    1930:	4a 2b       	or	r20, r26
    1932:	41 83       	std	Z+1, r20	; 0x01
    1934:	69 9f       	mul	r22, r25
    1936:	21 2d       	mov	r18, r1
    1938:	11 24       	eor	r1, r1
    193a:	26 95       	lsr	r18
    193c:	26 95       	lsr	r18
    193e:	26 95       	lsr	r18
    1940:	30 e1       	ldi	r19, 0x10	; 16
    1942:	23 9f       	mul	r18, r19
    1944:	a0 01       	movw	r20, r0
    1946:	11 24       	eor	r1, r1
    1948:	22 0f       	add	r18, r18
    194a:	32 2f       	mov	r19, r18
    194c:	33 0f       	add	r19, r19
    194e:	33 0f       	add	r19, r19
    1950:	23 0f       	add	r18, r19
    1952:	62 1b       	sub	r22, r18
    1954:	64 2b       	or	r22, r20
    1956:	62 83       	std	Z+2, r22	; 0x02
    1958:	89 9f       	mul	r24, r25
    195a:	91 2d       	mov	r25, r1
    195c:	11 24       	eor	r1, r1
    195e:	96 95       	lsr	r25
    1960:	96 95       	lsr	r25
    1962:	96 95       	lsr	r25
    1964:	40 e1       	ldi	r20, 0x10	; 16
    1966:	94 9f       	mul	r25, r20
    1968:	90 01       	movw	r18, r0
    196a:	11 24       	eor	r1, r1
    196c:	99 0f       	add	r25, r25
    196e:	39 2f       	mov	r19, r25
    1970:	33 0f       	add	r19, r19
    1972:	33 0f       	add	r19, r19
    1974:	93 0f       	add	r25, r19
    1976:	89 1b       	sub	r24, r25
    1978:	82 2b       	or	r24, r18
    197a:	83 83       	std	Z+3, r24	; 0x03
    197c:	6b e0       	ldi	r22, 0x0B	; 11
    197e:	cf 01       	movw	r24, r30
    1980:	0e 94 62 0c 	call	0x18c4	; 0x18c4 <rx8564Writes>
    1984:	08 95       	ret

00001986 <rtcGetData>:
}
 
void rtcGetData(rx8564_t *buffer)
{   
    1986:	0f 93       	push	r16
    1988:	1f 93       	push	r17
    198a:	cf 93       	push	r28
    198c:	df 93       	push	r29
    198e:	ec 01       	movw	r28, r24
	buff[0] = seconds_register;
    1990:	00 ea       	ldi	r16, 0xA0	; 160
    1992:	15 e0       	ldi	r17, 0x05	; 5
    1994:	82 e0       	ldi	r24, 0x02	; 2
    1996:	d8 01       	movw	r26, r16
    1998:	8c 93       	st	X, r24
	rx8564Reads( buff , 11 );
    199a:	6b e0       	ldi	r22, 0x0B	; 11
    199c:	c8 01       	movw	r24, r16
    199e:	0e 94 41 0c 	call	0x1882	; 0x1882 <rx8564Reads>
			
    buffer->second			= buff[0];
    19a2:	d8 01       	movw	r26, r16
    19a4:	ec 91       	ld	r30, X
    19a6:	e8 83       	st	Y, r30
    buffer->minute			= buff[1];  
    19a8:	11 96       	adiw	r26, 0x01	; 1
    19aa:	7c 91       	ld	r23, X
    19ac:	11 97       	sbiw	r26, 0x01	; 1
    19ae:	79 83       	std	Y+1, r23	; 0x01
    buffer->hour			= buff[2];
    19b0:	12 96       	adiw	r26, 0x02	; 2
    19b2:	6c 91       	ld	r22, X
    19b4:	12 97       	sbiw	r26, 0x02	; 2
    19b6:	6a 83       	std	Y+2, r22	; 0x02
    buffer->day				= buff[3];
    19b8:	13 96       	adiw	r26, 0x03	; 3
    19ba:	5c 91       	ld	r21, X
    19bc:	13 97       	sbiw	r26, 0x03	; 3
    19be:	5c 83       	std	Y+4, r21	; 0x04
    buffer->dayName			= buff[4];
    19c0:	14 96       	adiw	r26, 0x04	; 4
    19c2:	3c 91       	ld	r19, X
    19c4:	14 97       	sbiw	r26, 0x04	; 4
    19c6:	3d 83       	std	Y+5, r19	; 0x05
    buffer->month			= buff[5];
    19c8:	15 96       	adiw	r26, 0x05	; 5
    19ca:	4c 91       	ld	r20, X
    19cc:	15 97       	sbiw	r26, 0x05	; 5
    19ce:	4b 83       	std	Y+3, r20	; 0x03
    buffer->year			= buff[6];
    19d0:	16 96       	adiw	r26, 0x06	; 6
    19d2:	8c 91       	ld	r24, X
    19d4:	16 97       	sbiw	r26, 0x06	; 6
    19d6:	90 e0       	ldi	r25, 0x00	; 0
    19d8:	9f 83       	std	Y+7, r25	; 0x07
    19da:	8e 83       	std	Y+6, r24	; 0x06
    buffer->alrt_minute		= buff[7];
    19dc:	17 96       	adiw	r26, 0x07	; 7
    19de:	2c 91       	ld	r18, X
    19e0:	17 97       	sbiw	r26, 0x07	; 7
    19e2:	28 87       	std	Y+8, r18	; 0x08
    buffer->alrt_hour		= buff[8];
    19e4:	18 96       	adiw	r26, 0x08	; 8
    19e6:	9c 91       	ld	r25, X
    19e8:	18 97       	sbiw	r26, 0x08	; 8
    19ea:	99 87       	std	Y+9, r25	; 0x09
    buffer->alrt_day		= buff[9];
    19ec:	19 96       	adiw	r26, 0x09	; 9
    19ee:	8c 91       	ld	r24, X
    19f0:	19 97       	sbiw	r26, 0x09	; 9
    19f2:	8a 87       	std	Y+10, r24	; 0x0a
    buffer->alrt_dayName	= buff[10];
    19f4:	1a 96       	adiw	r26, 0x0a	; 10
    19f6:	fc 91       	ld	r31, X

 
    buffer->second			&= 0x7F;
    19f8:	ef 77       	andi	r30, 0x7F	; 127
    19fa:	e8 83       	st	Y, r30
    buffer->minute			&= 0x7F;
    19fc:	7f 77       	andi	r23, 0x7F	; 127
    19fe:	79 83       	std	Y+1, r23	; 0x01
    buffer->hour			&= 0x3F;
    1a00:	6f 73       	andi	r22, 0x3F	; 63
    1a02:	6a 83       	std	Y+2, r22	; 0x02
          
    buffer->day				&= 0x3F;
    1a04:	5f 73       	andi	r21, 0x3F	; 63
    1a06:	5c 83       	std	Y+4, r21	; 0x04
    buffer->month			&= 0x1F;
    1a08:	4f 71       	andi	r20, 0x1F	; 31
    1a0a:	4b 83       	std	Y+3, r20	; 0x03
    buffer->dayName			&= 0x07;
    1a0c:	37 70       	andi	r19, 0x07	; 7
    1a0e:	3d 83       	std	Y+5, r19	; 0x05
     
    buffer->alrt_minute		&= 0x7F;
    1a10:	2f 77       	andi	r18, 0x7F	; 127
    1a12:	28 87       	std	Y+8, r18	; 0x08
    buffer->alrt_hour		&= 0x7F;
    1a14:	9f 77       	andi	r25, 0x7F	; 127
    1a16:	99 87       	std	Y+9, r25	; 0x09
    buffer->alrt_day		&= 0x7F;
    1a18:	8f 77       	andi	r24, 0x7F	; 127
    1a1a:	8a 87       	std	Y+10, r24	; 0x0a
    buffer->alrt_dayName	&= 0x7F;
    1a1c:	8f 2f       	mov	r24, r31
    1a1e:	8f 77       	andi	r24, 0x7F	; 127
    1a20:	8b 87       	std	Y+11, r24	; 0x0b
}
    1a22:	df 91       	pop	r29
    1a24:	cf 91       	pop	r28
    1a26:	1f 91       	pop	r17
    1a28:	0f 91       	pop	r16
    1a2a:	08 95       	ret

00001a2c <Sht21Read>:
	return(crc);
}


uint8_t Sht21Read( int16_t *temp , uint16_t *humidity )
{
    1a2c:	af 92       	push	r10
    1a2e:	bf 92       	push	r11
    1a30:	cf 92       	push	r12
    1a32:	df 92       	push	r13
    1a34:	ef 92       	push	r14
    1a36:	ff 92       	push	r15
    1a38:	1f 93       	push	r17
    1a3a:	cf 93       	push	r28
    1a3c:	df 93       	push	r29
    1a3e:	cd b7       	in	r28, 0x3d	; 61
    1a40:	de b7       	in	r29, 0x3e	; 62
    1a42:	2d 97       	sbiw	r28, 0x0d	; 13
    1a44:	0f b6       	in	r0, 0x3f	; 63
    1a46:	f8 94       	cli
    1a48:	de bf       	out	0x3e, r29	; 62
    1a4a:	0f be       	out	0x3f, r0	; 63
    1a4c:	cd bf       	out	0x3d, r28	; 61
    1a4e:	7c 01       	movw	r14, r24
    1a50:	6b 01       	movw	r12, r22
	uint8_t d[3];
	uint32_t val;
	
	//=== Software reset =============================================
 	d[0] = CMD_SOFT_RST;
    1a52:	8e ef       	ldi	r24, 0xFE	; 254
    1a54:	89 83       	std	Y+1, r24	; 0x01

static inline enum I2c_Return_Codes _Sht21WriteRegs( uint8_t *buff , uint8_t leng )
{
	I2cTransfer_t Tx;
	
	Tx.ptrData = buff;
    1a56:	ce 01       	movw	r24, r28
    1a58:	01 96       	adiw	r24, 0x01	; 1
    1a5a:	5c 01       	movw	r10, r24
    1a5c:	9d 83       	std	Y+5, r25	; 0x05
    1a5e:	8c 83       	std	Y+4, r24	; 0x04
	Tx.uiLength = leng;
    1a60:	81 e0       	ldi	r24, 0x01	; 1
    1a62:	90 e0       	ldi	r25, 0x00	; 0
    1a64:	9f 83       	std	Y+7, r25	; 0x07
    1a66:	8e 83       	std	Y+6, r24	; 0x06
	Tx.uiSlaveAddress = SHT21_ADDR;
    1a68:	10 e8       	ldi	r17, 0x80	; 128
    1a6a:	18 87       	std	Y+8, r17	; 0x08
	
	enum I2c_Return_Codes Exitcode = I2cWriteBytes( &Tx );
    1a6c:	ce 01       	movw	r24, r28
    1a6e:	04 96       	adiw	r24, 0x04	; 4
    1a70:	0e 94 a5 0b 	call	0x174a	; 0x174a <I2cWriteBytes>
 	d[0] = CMD_SOFT_RST;
 	_Sht21WriteRegs( d , 1 );


	//=== User register ========================================================
	d[0] = CMD_RD_REG;
    1a74:	87 ee       	ldi	r24, 0xE7	; 231
    1a76:	89 83       	std	Y+1, r24	; 0x01

static inline enum I2c_Return_Codes _Sht21ReadRegs( uint8_t *buff , uint8_t leng )
{
	I2cTransfer_t Rx;
	
	Rx.ptrData = buff;
    1a78:	bd 82       	std	Y+5, r11	; 0x05
    1a7a:	ac 82       	std	Y+4, r10	; 0x04
	Rx.uiLength = leng;
    1a7c:	82 e0       	ldi	r24, 0x02	; 2
    1a7e:	90 e0       	ldi	r25, 0x00	; 0
    1a80:	9f 83       	std	Y+7, r25	; 0x07
    1a82:	8e 83       	std	Y+6, r24	; 0x06
	Rx.uiSlaveAddress = SHT21_ADDR;
    1a84:	18 87       	std	Y+8, r17	; 0x08
	
	enum I2c_Return_Codes Exitcode = I2cReadBytes( &Rx );
    1a86:	ce 01       	movw	r24, r28
    1a88:	04 96       	adiw	r24, 0x04	; 4
    1a8a:	0e 94 e2 0b 	call	0x17c4	; 0x17c4 <I2cReadBytes>

	//=== User register ========================================================
	d[0] = CMD_RD_REG;
	_Sht21ReadRegs( d , 2 );

	if(d[1] == _Sht21CalcCRC(d,1))
    1a8e:	3a 81       	ldd	r19, Y+2	; 0x02
	crc = 0;
	
	//calculates 8-Bit checksum with given polynomial
	for (byteCtr = 0; byteCtr < nbrOfBytes; ++byteCtr)
	{
		crc ^= (data[byteCtr]);
    1a90:	89 81       	ldd	r24, Y+1	; 0x01
    1a92:	98 e0       	ldi	r25, 0x08	; 8
		for (bit = 8; bit > 0; --bit)
		{
			if (crc & 0x80) crc = (crc << 1) ^ 0x131;
    1a94:	21 e3       	ldi	r18, 0x31	; 49
    1a96:	88 23       	and	r24, r24
    1a98:	1c f4       	brge	.+6      	; 0x1aa0 <Sht21Read+0x74>
    1a9a:	88 0f       	add	r24, r24
    1a9c:	82 27       	eor	r24, r18
    1a9e:	01 c0       	rjmp	.+2      	; 0x1aa2 <Sht21Read+0x76>
			else 		crc = (crc << 1);
    1aa0:	88 0f       	add	r24, r24
    1aa2:	91 50       	subi	r25, 0x01	; 1
	
	//calculates 8-Bit checksum with given polynomial
	for (byteCtr = 0; byteCtr < nbrOfBytes; ++byteCtr)
	{
		crc ^= (data[byteCtr]);
		for (bit = 8; bit > 0; --bit)
    1aa4:	c1 f7       	brne	.-16     	; 0x1a96 <Sht21Read+0x6a>

	//=== User register ========================================================
	d[0] = CMD_RD_REG;
	_Sht21ReadRegs( d , 2 );

	if(d[1] == _Sht21CalcCRC(d,1))
    1aa6:	38 13       	cpse	r19, r24
    1aa8:	12 c0       	rjmp	.+36     	; 0x1ace <Sht21Read+0xa2>
	{
		uint8_t buff[] = { CMD_WR_REG , d[0] };
    1aaa:	86 ee       	ldi	r24, 0xE6	; 230
    1aac:	8c 87       	std	Y+12, r24	; 0x0c
    1aae:	89 81       	ldd	r24, Y+1	; 0x01
    1ab0:	8d 87       	std	Y+13, r24	; 0x0d

static inline enum I2c_Return_Codes _Sht21WriteRegs( uint8_t *buff , uint8_t leng )
{
	I2cTransfer_t Tx;
	
	Tx.ptrData = buff;
    1ab2:	ce 01       	movw	r24, r28
    1ab4:	0c 96       	adiw	r24, 0x0c	; 12
    1ab6:	9d 83       	std	Y+5, r25	; 0x05
    1ab8:	8c 83       	std	Y+4, r24	; 0x04
	Tx.uiLength = leng;
    1aba:	82 e0       	ldi	r24, 0x02	; 2
    1abc:	90 e0       	ldi	r25, 0x00	; 0
    1abe:	9f 83       	std	Y+7, r25	; 0x07
    1ac0:	8e 83       	std	Y+6, r24	; 0x06
	Tx.uiSlaveAddress = SHT21_ADDR;
    1ac2:	80 e8       	ldi	r24, 0x80	; 128
    1ac4:	88 87       	std	Y+8, r24	; 0x08
	
	enum I2c_Return_Codes Exitcode = I2cWriteBytes( &Tx );
    1ac6:	ce 01       	movw	r24, r28
    1ac8:	04 96       	adiw	r24, 0x04	; 4
    1aca:	0e 94 a5 0b 	call	0x174a	; 0x174a <I2cWriteBytes>
		_Sht21WriteRegs( buff , 2 );
	}


	//=== Temperature ===========================================================
	d[0] = CMD_TMP_HLD;
    1ace:	83 ee       	ldi	r24, 0xE3	; 227
    1ad0:	89 83       	std	Y+1, r24	; 0x01

static inline enum I2c_Return_Codes _Sht21ReadRegs( uint8_t *buff , uint8_t leng )
{
	I2cTransfer_t Rx;
	
	Rx.ptrData = buff;
    1ad2:	ce 01       	movw	r24, r28
    1ad4:	01 96       	adiw	r24, 0x01	; 1
    1ad6:	9d 83       	std	Y+5, r25	; 0x05
    1ad8:	8c 83       	std	Y+4, r24	; 0x04
	Rx.uiLength = leng;
    1ada:	83 e0       	ldi	r24, 0x03	; 3
    1adc:	90 e0       	ldi	r25, 0x00	; 0
    1ade:	9f 83       	std	Y+7, r25	; 0x07
    1ae0:	8e 83       	std	Y+6, r24	; 0x06
	Rx.uiSlaveAddress = SHT21_ADDR;
    1ae2:	80 e8       	ldi	r24, 0x80	; 128
    1ae4:	88 87       	std	Y+8, r24	; 0x08
	
	enum I2c_Return_Codes Exitcode = I2cReadBytes( &Rx );
    1ae6:	ce 01       	movw	r24, r28
    1ae8:	04 96       	adiw	r24, 0x04	; 4
    1aea:	0e 94 e2 0b 	call	0x17c4	; 0x17c4 <I2cReadBytes>

	//=== Temperature ===========================================================
	d[0] = CMD_TMP_HLD;
	_Sht21ReadRegs( d , 3 );
	
	if(d[2] == _Sht21CalcCRC(d,2))
    1aee:	3b 81       	ldd	r19, Y+3	; 0x03
	crc = 0;
	
	//calculates 8-Bit checksum with given polynomial
	for (byteCtr = 0; byteCtr < nbrOfBytes; ++byteCtr)
	{
		crc ^= (data[byteCtr]);
    1af0:	89 81       	ldd	r24, Y+1	; 0x01
    1af2:	98 e0       	ldi	r25, 0x08	; 8
		for (bit = 8; bit > 0; --bit)
		{
			if (crc & 0x80) crc = (crc << 1) ^ 0x131;
    1af4:	21 e3       	ldi	r18, 0x31	; 49
    1af6:	88 23       	and	r24, r24
    1af8:	14 f0       	brlt	.+4      	; 0x1afe <Sht21Read+0xd2>
			else 		crc = (crc << 1);
    1afa:	88 0f       	add	r24, r24
    1afc:	02 c0       	rjmp	.+4      	; 0x1b02 <Sht21Read+0xd6>
	for (byteCtr = 0; byteCtr < nbrOfBytes; ++byteCtr)
	{
		crc ^= (data[byteCtr]);
		for (bit = 8; bit > 0; --bit)
		{
			if (crc & 0x80) crc = (crc << 1) ^ 0x131;
    1afe:	88 0f       	add	r24, r24
    1b00:	82 27       	eor	r24, r18
    1b02:	91 50       	subi	r25, 0x01	; 1
	
	//calculates 8-Bit checksum with given polynomial
	for (byteCtr = 0; byteCtr < nbrOfBytes; ++byteCtr)
	{
		crc ^= (data[byteCtr]);
		for (bit = 8; bit > 0; --bit)
    1b04:	c1 f7       	brne	.-16     	; 0x1af6 <Sht21Read+0xca>
	crc = 0;
	
	//calculates 8-Bit checksum with given polynomial
	for (byteCtr = 0; byteCtr < nbrOfBytes; ++byteCtr)
	{
		crc ^= (data[byteCtr]);
    1b06:	9a 81       	ldd	r25, Y+2	; 0x02
    1b08:	89 27       	eor	r24, r25
    1b0a:	98 e0       	ldi	r25, 0x08	; 8
		for (bit = 8; bit > 0; --bit)
		{
			if (crc & 0x80) crc = (crc << 1) ^ 0x131;
    1b0c:	21 e3       	ldi	r18, 0x31	; 49
    1b0e:	88 23       	and	r24, r24
    1b10:	1c f4       	brge	.+6      	; 0x1b18 <Sht21Read+0xec>
    1b12:	88 0f       	add	r24, r24
    1b14:	82 27       	eor	r24, r18
    1b16:	01 c0       	rjmp	.+2      	; 0x1b1a <Sht21Read+0xee>
			else 		crc = (crc << 1);
    1b18:	88 0f       	add	r24, r24
    1b1a:	91 50       	subi	r25, 0x01	; 1
	
	//calculates 8-Bit checksum with given polynomial
	for (byteCtr = 0; byteCtr < nbrOfBytes; ++byteCtr)
	{
		crc ^= (data[byteCtr]);
		for (bit = 8; bit > 0; --bit)
    1b1c:	c1 f7       	brne	.-16     	; 0x1b0e <Sht21Read+0xe2>

	//=== Temperature ===========================================================
	d[0] = CMD_TMP_HLD;
	_Sht21ReadRegs( d , 3 );
	
	if(d[2] == _Sht21CalcCRC(d,2))
    1b1e:	38 13       	cpse	r19, r24
    1b20:	24 c0       	rjmp	.+72     	; 0x1b6a <Sht21Read+0x13e>
	{
		val = d[0];
    1b22:	69 81       	ldd	r22, Y+1	; 0x01
    1b24:	86 2f       	mov	r24, r22
    1b26:	90 e0       	ldi	r25, 0x00	; 0
    1b28:	a0 e0       	ldi	r26, 0x00	; 0
    1b2a:	b0 e0       	ldi	r27, 0x00	; 0
		val <<= 8;
    1b2c:	ba 2f       	mov	r27, r26
    1b2e:	a9 2f       	mov	r26, r25
    1b30:	98 2f       	mov	r25, r24
    1b32:	88 27       	eor	r24, r24
		val += d[1];
    1b34:	2a 81       	ldd	r18, Y+2	; 0x02
    1b36:	82 0f       	add	r24, r18
    1b38:	91 1d       	adc	r25, r1
    1b3a:	a1 1d       	adc	r26, r1
    1b3c:	b1 1d       	adc	r27, r1
		val &=  ~(0x0003);
		*temp = -46.85 + 175.72/65536 *(float)val;
    1b3e:	bc 01       	movw	r22, r24
    1b40:	cd 01       	movw	r24, r26
    1b42:	6c 7f       	andi	r22, 0xFC	; 252
    1b44:	0e 94 c6 1a 	call	0x358c	; 0x358c <__floatunsisf>
    1b48:	22 e5       	ldi	r18, 0x52	; 82
    1b4a:	38 eb       	ldi	r19, 0xB8	; 184
    1b4c:	4f e2       	ldi	r20, 0x2F	; 47
    1b4e:	5b e3       	ldi	r21, 0x3B	; 59
    1b50:	0e 94 54 1b 	call	0x36a8	; 0x36a8 <__mulsf3>
    1b54:	26 e6       	ldi	r18, 0x66	; 102
    1b56:	36 e6       	ldi	r19, 0x66	; 102
    1b58:	4b e3       	ldi	r20, 0x3B	; 59
    1b5a:	52 e4       	ldi	r21, 0x42	; 66
    1b5c:	0e 94 23 1a 	call	0x3446	; 0x3446 <__subsf3>
    1b60:	0e 94 90 1a 	call	0x3520	; 0x3520 <__fixsfsi>
    1b64:	f7 01       	movw	r30, r14
    1b66:	71 83       	std	Z+1, r23	; 0x01
    1b68:	60 83       	st	Z, r22
	}
	
	//=== Humidity ==============================================================
	d[0] = CMD_HUM_HLD;
    1b6a:	85 ee       	ldi	r24, 0xE5	; 229
    1b6c:	89 83       	std	Y+1, r24	; 0x01

static inline enum I2c_Return_Codes _Sht21ReadRegs( uint8_t *buff , uint8_t leng )
{
	I2cTransfer_t Rx;
	
	Rx.ptrData = buff;
    1b6e:	ce 01       	movw	r24, r28
    1b70:	01 96       	adiw	r24, 0x01	; 1
    1b72:	9d 83       	std	Y+5, r25	; 0x05
    1b74:	8c 83       	std	Y+4, r24	; 0x04
	Rx.uiLength = leng;
    1b76:	83 e0       	ldi	r24, 0x03	; 3
    1b78:	90 e0       	ldi	r25, 0x00	; 0
    1b7a:	9f 83       	std	Y+7, r25	; 0x07
    1b7c:	8e 83       	std	Y+6, r24	; 0x06
	Rx.uiSlaveAddress = SHT21_ADDR;
    1b7e:	80 e8       	ldi	r24, 0x80	; 128
    1b80:	88 87       	std	Y+8, r24	; 0x08
	
	enum I2c_Return_Codes Exitcode = I2cReadBytes( &Rx );
    1b82:	ce 01       	movw	r24, r28
    1b84:	04 96       	adiw	r24, 0x04	; 4
    1b86:	0e 94 e2 0b 	call	0x17c4	; 0x17c4 <I2cReadBytes>
	
	//=== Humidity ==============================================================
	d[0] = CMD_HUM_HLD;
	_Sht21ReadRegs( d , 3 );
	
	if(d[2] == _Sht21CalcCRC(d,2))
    1b8a:	3b 81       	ldd	r19, Y+3	; 0x03
	crc = 0;
	
	//calculates 8-Bit checksum with given polynomial
	for (byteCtr = 0; byteCtr < nbrOfBytes; ++byteCtr)
	{
		crc ^= (data[byteCtr]);
    1b8c:	89 81       	ldd	r24, Y+1	; 0x01
    1b8e:	98 e0       	ldi	r25, 0x08	; 8
		for (bit = 8; bit > 0; --bit)
		{
			if (crc & 0x80) crc = (crc << 1) ^ 0x131;
    1b90:	21 e3       	ldi	r18, 0x31	; 49
    1b92:	88 23       	and	r24, r24
    1b94:	14 f0       	brlt	.+4      	; 0x1b9a <Sht21Read+0x16e>
			else 		crc = (crc << 1);
    1b96:	88 0f       	add	r24, r24
    1b98:	02 c0       	rjmp	.+4      	; 0x1b9e <Sht21Read+0x172>
	for (byteCtr = 0; byteCtr < nbrOfBytes; ++byteCtr)
	{
		crc ^= (data[byteCtr]);
		for (bit = 8; bit > 0; --bit)
		{
			if (crc & 0x80) crc = (crc << 1) ^ 0x131;
    1b9a:	88 0f       	add	r24, r24
    1b9c:	82 27       	eor	r24, r18
    1b9e:	91 50       	subi	r25, 0x01	; 1
	
	//calculates 8-Bit checksum with given polynomial
	for (byteCtr = 0; byteCtr < nbrOfBytes; ++byteCtr)
	{
		crc ^= (data[byteCtr]);
		for (bit = 8; bit > 0; --bit)
    1ba0:	c1 f7       	brne	.-16     	; 0x1b92 <Sht21Read+0x166>
	crc = 0;
	
	//calculates 8-Bit checksum with given polynomial
	for (byteCtr = 0; byteCtr < nbrOfBytes; ++byteCtr)
	{
		crc ^= (data[byteCtr]);
    1ba2:	9a 81       	ldd	r25, Y+2	; 0x02
    1ba4:	89 27       	eor	r24, r25
    1ba6:	98 e0       	ldi	r25, 0x08	; 8
		for (bit = 8; bit > 0; --bit)
		{
			if (crc & 0x80) crc = (crc << 1) ^ 0x131;
    1ba8:	21 e3       	ldi	r18, 0x31	; 49
    1baa:	88 23       	and	r24, r24
    1bac:	1c f4       	brge	.+6      	; 0x1bb4 <Sht21Read+0x188>
    1bae:	88 0f       	add	r24, r24
    1bb0:	82 27       	eor	r24, r18
    1bb2:	01 c0       	rjmp	.+2      	; 0x1bb6 <Sht21Read+0x18a>
			else 		crc = (crc << 1);
    1bb4:	88 0f       	add	r24, r24
    1bb6:	91 50       	subi	r25, 0x01	; 1
	
	//calculates 8-Bit checksum with given polynomial
	for (byteCtr = 0; byteCtr < nbrOfBytes; ++byteCtr)
	{
		crc ^= (data[byteCtr]);
		for (bit = 8; bit > 0; --bit)
    1bb8:	c1 f7       	brne	.-16     	; 0x1baa <Sht21Read+0x17e>
	
	//=== Humidity ==============================================================
	d[0] = CMD_HUM_HLD;
	_Sht21ReadRegs( d , 3 );
	
	if(d[2] == _Sht21CalcCRC(d,2))
    1bba:	38 13       	cpse	r19, r24
    1bbc:	24 c0       	rjmp	.+72     	; 0x1c06 <Sht21Read+0x1da>
	{
		val = d[0];
    1bbe:	69 81       	ldd	r22, Y+1	; 0x01
    1bc0:	86 2f       	mov	r24, r22
    1bc2:	90 e0       	ldi	r25, 0x00	; 0
    1bc4:	a0 e0       	ldi	r26, 0x00	; 0
    1bc6:	b0 e0       	ldi	r27, 0x00	; 0
		val <<= 8;
    1bc8:	ba 2f       	mov	r27, r26
    1bca:	a9 2f       	mov	r26, r25
    1bcc:	98 2f       	mov	r25, r24
    1bce:	88 27       	eor	r24, r24
		val += d[1];
    1bd0:	2a 81       	ldd	r18, Y+2	; 0x02
    1bd2:	82 0f       	add	r24, r18
    1bd4:	91 1d       	adc	r25, r1
    1bd6:	a1 1d       	adc	r26, r1
    1bd8:	b1 1d       	adc	r27, r1
		val &= ~0x0003;
		*humidity = 6.0 + 125.0/65536 * (float)val;
    1bda:	bc 01       	movw	r22, r24
    1bdc:	cd 01       	movw	r24, r26
    1bde:	6c 7f       	andi	r22, 0xFC	; 252
    1be0:	0e 94 c6 1a 	call	0x358c	; 0x358c <__floatunsisf>
    1be4:	20 e0       	ldi	r18, 0x00	; 0
    1be6:	30 e0       	ldi	r19, 0x00	; 0
    1be8:	4a ef       	ldi	r20, 0xFA	; 250
    1bea:	5a e3       	ldi	r21, 0x3A	; 58
    1bec:	0e 94 54 1b 	call	0x36a8	; 0x36a8 <__mulsf3>
    1bf0:	20 e0       	ldi	r18, 0x00	; 0
    1bf2:	30 e0       	ldi	r19, 0x00	; 0
    1bf4:	40 ec       	ldi	r20, 0xC0	; 192
    1bf6:	50 e4       	ldi	r21, 0x40	; 64
    1bf8:	0e 94 24 1a 	call	0x3448	; 0x3448 <__addsf3>
    1bfc:	0e 94 97 1a 	call	0x352e	; 0x352e <__fixunssfsi>
    1c00:	f6 01       	movw	r30, r12
    1c02:	71 83       	std	Z+1, r23	; 0x01
    1c04:	60 83       	st	Z, r22
	}
	
	return(0);
}
    1c06:	80 e0       	ldi	r24, 0x00	; 0
    1c08:	2d 96       	adiw	r28, 0x0d	; 13
    1c0a:	0f b6       	in	r0, 0x3f	; 63
    1c0c:	f8 94       	cli
    1c0e:	de bf       	out	0x3e, r29	; 62
    1c10:	0f be       	out	0x3f, r0	; 63
    1c12:	cd bf       	out	0x3d, r28	; 61
    1c14:	df 91       	pop	r29
    1c16:	cf 91       	pop	r28
    1c18:	1f 91       	pop	r17
    1c1a:	ff 90       	pop	r15
    1c1c:	ef 90       	pop	r14
    1c1e:	df 90       	pop	r13
    1c20:	cf 90       	pop	r12
    1c22:	bf 90       	pop	r11
    1c24:	af 90       	pop	r10
    1c26:	08 95       	ret

00001c28 <Ssd1306DisplayState>:

void		Ssd1306SetBrightness( uint8_t Brightness )
{
		_Ssd1306SendCmd( SSD1306_CMD_SET_VCOM_DESELECT );
		_Ssd1306SendCmd( Brightness );
}
    1c28:	cf 93       	push	r28
    1c2a:	df 93       	push	r29
    1c2c:	cd b7       	in	r28, 0x3d	; 61
    1c2e:	de b7       	in	r29, 0x3e	; 62
    1c30:	28 97       	sbiw	r28, 0x08	; 8
    1c32:	0f b6       	in	r0, 0x3f	; 63
    1c34:	f8 94       	cli
    1c36:	de bf       	out	0x3e, r29	; 62
    1c38:	0f be       	out	0x3f, r0	; 63
    1c3a:	cd bf       	out	0x3d, r28	; 61
    1c3c:	88 23       	and	r24, r24
    1c3e:	a9 f0       	breq	.+42     	; 0x1c6a <Ssd1306DisplayState+0x42>
    1c40:	81 30       	cpi	r24, 0x01	; 1
    1c42:	29 f5       	brne	.+74     	; 0x1c8e <Ssd1306DisplayState+0x66>
    1c44:	e4 eb       	ldi	r30, 0xB4	; 180
    1c46:	f5 e0       	ldi	r31, 0x05	; 5
    1c48:	10 82       	st	Z, r1
    1c4a:	8e ea       	ldi	r24, 0xAE	; 174
    1c4c:	81 83       	std	Z+1, r24	; 0x01
    1c4e:	fa 83       	std	Y+2, r31	; 0x02
    1c50:	e9 83       	std	Y+1, r30	; 0x01
    1c52:	82 e0       	ldi	r24, 0x02	; 2
    1c54:	90 e0       	ldi	r25, 0x00	; 0
    1c56:	9c 83       	std	Y+4, r25	; 0x04
    1c58:	8b 83       	std	Y+3, r24	; 0x03
    1c5a:	1e 82       	std	Y+6, r1	; 0x06
    1c5c:	88 e7       	ldi	r24, 0x78	; 120
    1c5e:	8d 83       	std	Y+5, r24	; 0x05
    1c60:	ce 01       	movw	r24, r28
    1c62:	01 96       	adiw	r24, 0x01	; 1
    1c64:	0e 94 a5 0b 	call	0x174a	; 0x174a <I2cWriteBytes>
    1c68:	12 c0       	rjmp	.+36     	; 0x1c8e <Ssd1306DisplayState+0x66>
    1c6a:	e4 eb       	ldi	r30, 0xB4	; 180
    1c6c:	f5 e0       	ldi	r31, 0x05	; 5
    1c6e:	10 82       	st	Z, r1
    1c70:	8f ea       	ldi	r24, 0xAF	; 175
    1c72:	81 83       	std	Z+1, r24	; 0x01
    1c74:	fa 83       	std	Y+2, r31	; 0x02
    1c76:	e9 83       	std	Y+1, r30	; 0x01
    1c78:	82 e0       	ldi	r24, 0x02	; 2
    1c7a:	90 e0       	ldi	r25, 0x00	; 0
    1c7c:	9c 83       	std	Y+4, r25	; 0x04
    1c7e:	8b 83       	std	Y+3, r24	; 0x03
    1c80:	1e 82       	std	Y+6, r1	; 0x06
    1c82:	88 e7       	ldi	r24, 0x78	; 120
    1c84:	8d 83       	std	Y+5, r24	; 0x05
    1c86:	ce 01       	movw	r24, r28
    1c88:	01 96       	adiw	r24, 0x01	; 1
    1c8a:	0e 94 a5 0b 	call	0x174a	; 0x174a <I2cWriteBytes>
    1c8e:	28 96       	adiw	r28, 0x08	; 8
    1c90:	0f b6       	in	r0, 0x3f	; 63
    1c92:	f8 94       	cli
    1c94:	de bf       	out	0x3e, r29	; 62
    1c96:	0f be       	out	0x3f, r0	; 63
    1c98:	cd bf       	out	0x3d, r28	; 61
    1c9a:	df 91       	pop	r29
    1c9c:	cf 91       	pop	r28
    1c9e:	08 95       	ret

00001ca0 <Ssd1306Init>:
    1ca0:	8f 92       	push	r8
    1ca2:	9f 92       	push	r9
    1ca4:	af 92       	push	r10
    1ca6:	bf 92       	push	r11
    1ca8:	df 92       	push	r13
    1caa:	ef 92       	push	r14
    1cac:	ff 92       	push	r15
    1cae:	0f 93       	push	r16
    1cb0:	1f 93       	push	r17
    1cb2:	cf 93       	push	r28
    1cb4:	df 93       	push	r29
    1cb6:	cd b7       	in	r28, 0x3d	; 61
    1cb8:	de b7       	in	r29, 0x3e	; 62
    1cba:	6b 97       	sbiw	r28, 0x1b	; 27
    1cbc:	0f b6       	in	r0, 0x3f	; 63
    1cbe:	f8 94       	cli
    1cc0:	de bf       	out	0x3e, r29	; 62
    1cc2:	0f be       	out	0x3f, r0	; 63
    1cc4:	cd bf       	out	0x3d, r28	; 61
    1cc6:	81 e0       	ldi	r24, 0x01	; 1
    1cc8:	0e 94 14 0e 	call	0x1c28	; 0x1c28 <Ssd1306DisplayState>
    1ccc:	83 e1       	ldi	r24, 0x13	; 19
    1cce:	ef eb       	ldi	r30, 0xBF	; 191
    1cd0:	f4 e0       	ldi	r31, 0x04	; 4
    1cd2:	de 01       	movw	r26, r28
    1cd4:	11 96       	adiw	r26, 0x01	; 1
    1cd6:	01 90       	ld	r0, Z+
    1cd8:	0d 92       	st	X+, r0
    1cda:	8a 95       	dec	r24
    1cdc:	e1 f7       	brne	.-8      	; 0x1cd6 <Ssd1306Init+0x36>
    1cde:	80 e0       	ldi	r24, 0x00	; 0
    1ce0:	0e 94 14 0e 	call	0x1c28	; 0x1c28 <Ssd1306DisplayState>
    1ce4:	8e 01       	movw	r16, r28
    1ce6:	0f 5f       	subi	r16, 0xFF	; 255
    1ce8:	1f 4f       	sbci	r17, 0xFF	; 255
    1cea:	4e 01       	movw	r8, r28
    1cec:	84 e1       	ldi	r24, 0x14	; 20
    1cee:	88 0e       	add	r8, r24
    1cf0:	91 1c       	adc	r9, r1
    1cf2:	0f 2e       	mov	r0, r31
    1cf4:	f4 eb       	ldi	r31, 0xB4	; 180
    1cf6:	ef 2e       	mov	r14, r31
    1cf8:	f5 e0       	ldi	r31, 0x05	; 5
    1cfa:	ff 2e       	mov	r15, r31
    1cfc:	f0 2d       	mov	r31, r0
    1cfe:	68 94       	set
    1d00:	aa 24       	eor	r10, r10
    1d02:	a1 f8       	bld	r10, 1
    1d04:	b1 2c       	mov	r11, r1
    1d06:	0f 2e       	mov	r0, r31
    1d08:	f8 e7       	ldi	r31, 0x78	; 120
    1d0a:	df 2e       	mov	r13, r31
    1d0c:	f0 2d       	mov	r31, r0
    1d0e:	f8 01       	movw	r30, r16
    1d10:	81 91       	ld	r24, Z+
    1d12:	8f 01       	movw	r16, r30
    1d14:	f7 01       	movw	r30, r14
    1d16:	10 82       	st	Z, r1
    1d18:	81 83       	std	Z+1, r24	; 0x01
    1d1a:	fd 8a       	std	Y+21, r15	; 0x15
    1d1c:	ec 8a       	std	Y+20, r14	; 0x14
    1d1e:	bf 8a       	std	Y+23, r11	; 0x17
    1d20:	ae 8a       	std	Y+22, r10	; 0x16
    1d22:	19 8e       	std	Y+25, r1	; 0x19
    1d24:	d8 8e       	std	Y+24, r13	; 0x18
    1d26:	ce 01       	movw	r24, r28
    1d28:	44 96       	adiw	r24, 0x14	; 20
    1d2a:	0e 94 a5 0b 	call	0x174a	; 0x174a <I2cWriteBytes>
    1d2e:	08 15       	cp	r16, r8
    1d30:	19 05       	cpc	r17, r9
    1d32:	69 f7       	brne	.-38     	; 0x1d0e <Ssd1306Init+0x6e>
    1d34:	6b 96       	adiw	r28, 0x1b	; 27
    1d36:	0f b6       	in	r0, 0x3f	; 63
    1d38:	f8 94       	cli
    1d3a:	de bf       	out	0x3e, r29	; 62
    1d3c:	0f be       	out	0x3f, r0	; 63
    1d3e:	cd bf       	out	0x3d, r28	; 61
    1d40:	df 91       	pop	r29
    1d42:	cf 91       	pop	r28
    1d44:	1f 91       	pop	r17
    1d46:	0f 91       	pop	r16
    1d48:	ff 90       	pop	r15
    1d4a:	ef 90       	pop	r14
    1d4c:	df 90       	pop	r13
    1d4e:	bf 90       	pop	r11
    1d50:	af 90       	pop	r10
    1d52:	9f 90       	pop	r9
    1d54:	8f 90       	pop	r8
    1d56:	08 95       	ret

00001d58 <Ssd1306SetFont>:
    1d58:	90 93 ac 05 	sts	0x05AC, r25	; 0x8005ac <_ptrFont+0x1>
    1d5c:	80 93 ab 05 	sts	0x05AB, r24	; 0x8005ab <_ptrFont>
    1d60:	08 95       	ret

00001d62 <Ssd1306ClearScreen>:
    1d62:	80 e0       	ldi	r24, 0x00	; 0
    1d64:	94 e0       	ldi	r25, 0x04	; 4
    1d66:	e3 e7       	ldi	r30, 0x73	; 115
    1d68:	f0 e0       	ldi	r31, 0x00	; 0
    1d6a:	df 01       	movw	r26, r30
    1d6c:	9c 01       	movw	r18, r24
    1d6e:	1d 92       	st	X+, r1
    1d70:	21 50       	subi	r18, 0x01	; 1
    1d72:	30 40       	sbci	r19, 0x00	; 0
    1d74:	e1 f7       	brne	.-8      	; 0x1d6e <Ssd1306ClearScreen+0xc>
    1d76:	08 95       	ret

00001d78 <Ssd1306DrawPixel>:
    1d78:	fc 01       	movw	r30, r24
    1d7a:	f6 95       	lsr	r31
    1d7c:	e7 95       	ror	r30
    1d7e:	f6 95       	lsr	r31
    1d80:	e7 95       	ror	r30
    1d82:	f6 95       	lsr	r31
    1d84:	e7 95       	ror	r30
    1d86:	f6 95       	lsr	r31
    1d88:	fe 2f       	mov	r31, r30
    1d8a:	ee 27       	eor	r30, r30
    1d8c:	f7 95       	ror	r31
    1d8e:	e7 95       	ror	r30
    1d90:	e6 0f       	add	r30, r22
    1d92:	f7 1f       	adc	r31, r23
    1d94:	ed 58       	subi	r30, 0x8D	; 141
    1d96:	ff 4f       	sbci	r31, 0xFF	; 255
    1d98:	9c 01       	movw	r18, r24
    1d9a:	27 70       	andi	r18, 0x07	; 7
    1d9c:	33 27       	eor	r19, r19
    1d9e:	81 e0       	ldi	r24, 0x01	; 1
    1da0:	90 e0       	ldi	r25, 0x00	; 0
    1da2:	02 c0       	rjmp	.+4      	; 0x1da8 <Ssd1306DrawPixel+0x30>
    1da4:	88 0f       	add	r24, r24
    1da6:	99 1f       	adc	r25, r25
    1da8:	2a 95       	dec	r18
    1daa:	e2 f7       	brpl	.-8      	; 0x1da4 <Ssd1306DrawPixel+0x2c>
    1dac:	90 81       	ld	r25, Z
    1dae:	89 2b       	or	r24, r25
    1db0:	80 83       	st	Z, r24
    1db2:	08 95       	ret

00001db4 <Ssd1306ClearByte>:
    1db4:	96 95       	lsr	r25
    1db6:	87 95       	ror	r24
    1db8:	96 95       	lsr	r25
    1dba:	87 95       	ror	r24
    1dbc:	96 95       	lsr	r25
    1dbe:	87 95       	ror	r24
    1dc0:	96 95       	lsr	r25
    1dc2:	98 2f       	mov	r25, r24
    1dc4:	88 27       	eor	r24, r24
    1dc6:	97 95       	ror	r25
    1dc8:	87 95       	ror	r24
    1dca:	8d 58       	subi	r24, 0x8D	; 141
    1dcc:	9f 4f       	sbci	r25, 0xFF	; 255
    1dce:	fc 01       	movw	r30, r24
    1dd0:	e6 0f       	add	r30, r22
    1dd2:	f7 1f       	adc	r31, r23
    1dd4:	10 82       	st	Z, r1
    1dd6:	08 95       	ret

00001dd8 <Ssd1306ClearPixel>:
    1dd8:	fc 01       	movw	r30, r24
    1dda:	f6 95       	lsr	r31
    1ddc:	e7 95       	ror	r30
    1dde:	f6 95       	lsr	r31
    1de0:	e7 95       	ror	r30
    1de2:	f6 95       	lsr	r31
    1de4:	e7 95       	ror	r30
    1de6:	f6 95       	lsr	r31
    1de8:	fe 2f       	mov	r31, r30
    1dea:	ee 27       	eor	r30, r30
    1dec:	f7 95       	ror	r31
    1dee:	e7 95       	ror	r30
    1df0:	e6 0f       	add	r30, r22
    1df2:	f7 1f       	adc	r31, r23
    1df4:	ed 58       	subi	r30, 0x8D	; 141
    1df6:	ff 4f       	sbci	r31, 0xFF	; 255
    1df8:	9c 01       	movw	r18, r24
    1dfa:	27 70       	andi	r18, 0x07	; 7
    1dfc:	33 27       	eor	r19, r19
    1dfe:	81 e0       	ldi	r24, 0x01	; 1
    1e00:	90 e0       	ldi	r25, 0x00	; 0
    1e02:	02 c0       	rjmp	.+4      	; 0x1e08 <Ssd1306ClearPixel+0x30>
    1e04:	88 0f       	add	r24, r24
    1e06:	99 1f       	adc	r25, r25
    1e08:	2a 95       	dec	r18
    1e0a:	e2 f7       	brpl	.-8      	; 0x1e04 <Ssd1306ClearPixel+0x2c>
    1e0c:	80 95       	com	r24
    1e0e:	90 81       	ld	r25, Z
    1e10:	89 23       	and	r24, r25
    1e12:	80 83       	st	Z, r24
    1e14:	08 95       	ret

00001e16 <Ssd1306SendRam>:

enum I2c_Return_Codes	Ssd1306SendRam( void )
{
    1e16:	1f 93       	push	r17
    1e18:	cf 93       	push	r28
    1e1a:	df 93       	push	r29
    1e1c:	cd b7       	in	r28, 0x3d	; 61
    1e1e:	de b7       	in	r29, 0x3e	; 62
    1e20:	67 97       	sbiw	r28, 0x17	; 23
    1e22:	0f b6       	in	r0, 0x3f	; 63
    1e24:	f8 94       	cli
    1e26:	de bf       	out	0x3e, r29	; 62
    1e28:	0f be       	out	0x3f, r0	; 63
    1e2a:	cd bf       	out	0x3d, r28	; 61
	uint8_t buff[] =
    1e2c:	27 e0       	ldi	r18, 0x07	; 7
    1e2e:	e2 ed       	ldi	r30, 0xD2	; 210
    1e30:	f4 e0       	ldi	r31, 0x04	; 4
    1e32:	ce 01       	movw	r24, r28
    1e34:	01 96       	adiw	r24, 0x01	; 1
    1e36:	dc 01       	movw	r26, r24
    1e38:	01 90       	ld	r0, Z+
    1e3a:	0d 92       	st	X+, r0
    1e3c:	2a 95       	dec	r18
    1e3e:	e1 f7       	brne	.-8      	; 0x1e38 <Ssd1306SendRam+0x22>

static inline enum I2c_Return_Codes	Ssd1306Write( uint8_t *buff , uint16_t leng )
{	
	I2cTransfer_t Tx;
	
	Tx.ptrData = buff;
    1e40:	99 8b       	std	Y+17, r25	; 0x11
    1e42:	88 8b       	std	Y+16, r24	; 0x10
	Tx.uiLength = leng;
    1e44:	87 e0       	ldi	r24, 0x07	; 7
    1e46:	90 e0       	ldi	r25, 0x00	; 0
    1e48:	9b 8b       	std	Y+19, r25	; 0x13
    1e4a:	8a 8b       	std	Y+18, r24	; 0x12
	Tx.uiRegisterAddress = buff[0];
    1e4c:	1d 8a       	std	Y+21, r1	; 0x15
	Tx.uiSlaveAddress = SSD1306_ADDR;
    1e4e:	18 e7       	ldi	r17, 0x78	; 120
    1e50:	1c 8b       	std	Y+20, r17	; 0x14
	
	enum I2c_Return_Codes Exitcode = I2cWriteBytes( &Tx );
    1e52:	ce 01       	movw	r24, r28
    1e54:	40 96       	adiw	r24, 0x10	; 16
    1e56:	0e 94 a5 0b 	call	0x174a	; 0x174a <I2cWriteBytes>
	
	Ssd1306Write( buff , sizeof( buff ) );

	I2cTransfer_t Tx;
	
	Tx.ptrData = DisplayRam;
    1e5a:	83 e7       	ldi	r24, 0x73	; 115
    1e5c:	90 e0       	ldi	r25, 0x00	; 0
    1e5e:	99 87       	std	Y+9, r25	; 0x09
    1e60:	88 87       	std	Y+8, r24	; 0x08
	Tx.uiLength = sizeof( DisplayRam );
    1e62:	80 e0       	ldi	r24, 0x00	; 0
    1e64:	94 e0       	ldi	r25, 0x04	; 4
    1e66:	9b 87       	std	Y+11, r25	; 0x0b
    1e68:	8a 87       	std	Y+10, r24	; 0x0a
	Tx.uiRegisterAddress = SSD1306_MODE_DATA;
    1e6a:	80 e4       	ldi	r24, 0x40	; 64
    1e6c:	8d 87       	std	Y+13, r24	; 0x0d
	Tx.uiSlaveAddress = SSD1306_ADDR;
    1e6e:	1c 87       	std	Y+12, r17	; 0x0c
	Tx.SpecialAddressHandling.uiHandlingAddress = I2C_TRANSFER_ADDR_NIDS;
    1e70:	8f ef       	ldi	r24, 0xFF	; 255
    1e72:	8f 87       	std	Y+15, r24	; 0x0f
	
	enum I2c_Return_Codes Exitcode = I2cWriteBytes( &Tx );
    1e74:	ce 01       	movw	r24, r28
    1e76:	08 96       	adiw	r24, 0x08	; 8
    1e78:	0e 94 a5 0b 	call	0x174a	; 0x174a <I2cWriteBytes>
	
	return Exitcode;
}
    1e7c:	67 96       	adiw	r28, 0x17	; 23
    1e7e:	0f b6       	in	r0, 0x3f	; 63
    1e80:	f8 94       	cli
    1e82:	de bf       	out	0x3e, r29	; 62
    1e84:	0f be       	out	0x3f, r0	; 63
    1e86:	cd bf       	out	0x3d, r28	; 61
    1e88:	df 91       	pop	r29
    1e8a:	cf 91       	pop	r28
    1e8c:	1f 91       	pop	r17
    1e8e:	08 95       	ret

00001e90 <Ssd1306PutChar>:

uint16_t	Ssd1306PutChar( uint8_t c , uint16_t y , uint16_t x )
{
    1e90:	2f 92       	push	r2
    1e92:	3f 92       	push	r3
    1e94:	4f 92       	push	r4
    1e96:	5f 92       	push	r5
    1e98:	6f 92       	push	r6
    1e9a:	7f 92       	push	r7
    1e9c:	8f 92       	push	r8
    1e9e:	9f 92       	push	r9
    1ea0:	af 92       	push	r10
    1ea2:	bf 92       	push	r11
    1ea4:	cf 92       	push	r12
    1ea6:	df 92       	push	r13
    1ea8:	ef 92       	push	r14
    1eaa:	ff 92       	push	r15
    1eac:	0f 93       	push	r16
    1eae:	1f 93       	push	r17
    1eb0:	cf 93       	push	r28
    1eb2:	df 93       	push	r29
    1eb4:	cd b7       	in	r28, 0x3d	; 61
    1eb6:	de b7       	in	r29, 0x3e	; 62
    1eb8:	29 97       	sbiw	r28, 0x09	; 9
    1eba:	0f b6       	in	r0, 0x3f	; 63
    1ebc:	f8 94       	cli
    1ebe:	de bf       	out	0x3e, r29	; 62
    1ec0:	0f be       	out	0x3f, r0	; 63
    1ec2:	cd bf       	out	0x3d, r28	; 61
    1ec4:	3b 01       	movw	r6, r22
    1ec6:	5f 83       	std	Y+7, r21	; 0x07
    1ec8:	4e 83       	std	Y+6, r20	; 0x06
	Ssd1306Write( buff , 2 );
}

static inline void		_ClearFont( Font_t *ptrFnt )
{
	ptrFnt->uiHeight = 0;
    1eca:	ad ea       	ldi	r26, 0xAD	; 173
    1ecc:	b5 e0       	ldi	r27, 0x05	; 5
    1ece:	15 96       	adiw	r26, 0x05	; 5
    1ed0:	1c 92       	st	X, r1
    1ed2:	1e 92       	st	-X, r1
    1ed4:	14 97       	sbiw	r26, 0x04	; 4
	ptrFnt->uiHeightInBytes = 0;
    1ed6:	16 96       	adiw	r26, 0x06	; 6
    1ed8:	1c 92       	st	X, r1
    1eda:	16 97       	sbiw	r26, 0x06	; 6
	ptrFnt->uiIndex = 0;
    1edc:	11 96       	adiw	r26, 0x01	; 1
    1ede:	1c 92       	st	X, r1
    1ee0:	1e 92       	st	-X, r1
	ptrFnt->uiWidht = 0;
    1ee2:	13 96       	adiw	r26, 0x03	; 3
    1ee4:	1c 92       	st	X, r1
    1ee6:	1e 92       	st	-X, r1
    1ee8:	12 97       	sbiw	r26, 0x02	; 2
}

static inline void		_GetFont( uint8_t c , Font_t *ptrFnt )
{
	ptrFnt->uiWidht			= 0;
	ptrFnt->uiHeight		= _GetFontHeight( _ptrFont );
    1eea:	60 91 ab 05 	lds	r22, 0x05AB	; 0x8005ab <_ptrFont>
    1eee:	70 91 ac 05 	lds	r23, 0x05AC	; 0x8005ac <_ptrFont+0x1>
	ptrFnt->uiWidht = 0;
}

static inline uint8_t	_GetFontHeight( const uint8_t __flash *ptrFont )
{
	return ptrFont[ _FONT_HEIGHT ];
    1ef2:	9b 01       	movw	r18, r22
    1ef4:	2d 5f       	subi	r18, 0xFD	; 253
    1ef6:	3f 4f       	sbci	r19, 0xFF	; 255
}

static inline void		_GetFont( uint8_t c , Font_t *ptrFnt )
{
	ptrFnt->uiWidht			= 0;
	ptrFnt->uiHeight		= _GetFontHeight( _ptrFont );
    1ef8:	f9 01       	movw	r30, r18
    1efa:	24 91       	lpm	r18, Z
    1efc:	30 e0       	ldi	r19, 0x00	; 0
    1efe:	15 96       	adiw	r26, 0x05	; 5
    1f00:	3c 93       	st	X, r19
    1f02:	2e 93       	st	-X, r18
    1f04:	14 97       	sbiw	r26, 0x04	; 4
	ptrFnt->uiHeightInBytes	= ( Font.uiHeight + 7 ) / 8; 
    1f06:	29 5f       	subi	r18, 0xF9	; 249
    1f08:	3f 4f       	sbci	r19, 0xFF	; 255
    1f0a:	79 01       	movw	r14, r18
    1f0c:	f6 94       	lsr	r15
    1f0e:	e7 94       	ror	r14
    1f10:	f6 94       	lsr	r15
    1f12:	e7 94       	ror	r14
    1f14:	f6 94       	lsr	r15
    1f16:	e7 94       	ror	r14
    1f18:	16 96       	adiw	r26, 0x06	; 6
    1f1a:	ec 92       	st	X, r14

	uint8_t uiFirstChar = _ptrFont[ _FONT_FIRST_CHAR ];
	uint8_t uiCharCount = _ptrFont[ _FONT_CHAR_COUNT ];
    1f1c:	32 96       	adiw	r30, 0x02	; 2
    1f1e:	14 91       	lpm	r17, Z
{
	ptrFnt->uiWidht			= 0;
	ptrFnt->uiHeight		= _GetFontHeight( _ptrFont );
	ptrFnt->uiHeightInBytes	= ( Font.uiHeight + 7 ) / 8; 

	uint8_t uiFirstChar = _ptrFont[ _FONT_FIRST_CHAR ];
    1f20:	31 97       	sbiw	r30, 0x01	; 1
	uint8_t uiCharCount = _ptrFont[ _FONT_CHAR_COUNT ];
	
	c -= uiFirstChar;
    1f22:	94 91       	lpm	r25, Z
    1f24:	89 1b       	sub	r24, r25

	if ( _IsFixedWidthFont( _ptrFont ) ) 
    1f26:	fb 01       	movw	r30, r22
    1f28:	94 91       	lpm	r25, Z
    1f2a:	91 11       	cpse	r25, r1
    1f2c:	04 c0       	rjmp	.+8      	; 0x1f36 <Ssd1306PutChar+0xa6>
    1f2e:	31 96       	adiw	r30, 0x01	; 1
    1f30:	94 91       	lpm	r25, Z
    1f32:	99 23       	and	r25, r25
    1f34:	19 f0       	breq	.+6      	; 0x1f3c <Ssd1306PutChar+0xac>
	{
		ptrFnt->uiWidht = _ptrFont[ _FONT_FIXED_WIDTH ];
		ptrFnt->uiIndex = ( c * ptrFnt->uiHeightInBytes * ptrFnt->uiWidht + _FONT_WIDTH_TABLE );
	}else 
	{
		for (uint8_t i = 0; i < c; i++) 
    1f36:	81 11       	cpse	r24, r1
    1f38:	17 c0       	rjmp	.+46     	; 0x1f68 <Ssd1306PutChar+0xd8>
    1f3a:	31 c0       	rjmp	.+98     	; 0x1f9e <Ssd1306PutChar+0x10e>
	
	c -= uiFirstChar;

	if ( _IsFixedWidthFont( _ptrFont ) ) 
	{
		ptrFnt->uiWidht = _ptrFont[ _FONT_FIXED_WIDTH ];
    1f3c:	fb 01       	movw	r30, r22
    1f3e:	32 96       	adiw	r30, 0x02	; 2
    1f40:	24 91       	lpm	r18, Z
    1f42:	30 e0       	ldi	r19, 0x00	; 0
    1f44:	ed ea       	ldi	r30, 0xAD	; 173
    1f46:	f5 e0       	ldi	r31, 0x05	; 5
    1f48:	33 83       	std	Z+3, r19	; 0x03
    1f4a:	22 83       	std	Z+2, r18	; 0x02
		ptrFnt->uiIndex = ( c * ptrFnt->uiHeightInBytes * ptrFnt->uiWidht + _FONT_WIDTH_TABLE );
    1f4c:	e8 9e       	mul	r14, r24
    1f4e:	a0 01       	movw	r20, r0
    1f50:	11 24       	eor	r1, r1
    1f52:	42 9f       	mul	r20, r18
    1f54:	c0 01       	movw	r24, r0
    1f56:	43 9f       	mul	r20, r19
    1f58:	90 0d       	add	r25, r0
    1f5a:	52 9f       	mul	r21, r18
    1f5c:	90 0d       	add	r25, r0
    1f5e:	11 24       	eor	r1, r1
    1f60:	06 96       	adiw	r24, 0x06	; 6
    1f62:	91 83       	std	Z+1, r25	; 0x01
    1f64:	80 83       	st	Z, r24
    1f66:	38 c0       	rjmp	.+112    	; 0x1fd8 <Ssd1306PutChar+0x148>
    1f68:	fb 01       	movw	r30, r22
    1f6a:	36 96       	adiw	r30, 0x06	; 6
    1f6c:	4f ef       	ldi	r20, 0xFF	; 255
    1f6e:	48 0f       	add	r20, r24
    1f70:	50 e0       	ldi	r21, 0x00	; 0
    1f72:	49 5f       	subi	r20, 0xF9	; 249
    1f74:	5f 4f       	sbci	r21, 0xFF	; 255
    1f76:	46 0f       	add	r20, r22
    1f78:	57 1f       	adc	r21, r23
	}else 
	{
		for (uint8_t i = 0; i < c; i++) 
		{
			ptrFnt->uiIndex += _ptrFont[ _FONT_WIDTH_TABLE + i ];
    1f7a:	ad ea       	ldi	r26, 0xAD	; 173
    1f7c:	b5 e0       	ldi	r27, 0x05	; 5
    1f7e:	fa 82       	std	Y+2, r15	; 0x02
    1f80:	e9 82       	std	Y+1, r14	; 0x01
    1f82:	95 91       	lpm	r25, Z+
    1f84:	2d 91       	ld	r18, X+
    1f86:	3c 91       	ld	r19, X
    1f88:	11 97       	sbiw	r26, 0x01	; 1
    1f8a:	29 0f       	add	r18, r25
    1f8c:	31 1d       	adc	r19, r1
    1f8e:	11 96       	adiw	r26, 0x01	; 1
    1f90:	3c 93       	st	X, r19
    1f92:	2e 93       	st	-X, r18
	{
		ptrFnt->uiWidht = _ptrFont[ _FONT_FIXED_WIDTH ];
		ptrFnt->uiIndex = ( c * ptrFnt->uiHeightInBytes * ptrFnt->uiWidht + _FONT_WIDTH_TABLE );
	}else 
	{
		for (uint8_t i = 0; i < c; i++) 
    1f94:	4e 17       	cp	r20, r30
    1f96:	5f 07       	cpc	r21, r31
    1f98:	a1 f7       	brne	.-24     	; 0x1f82 <Ssd1306PutChar+0xf2>
    1f9a:	e9 80       	ldd	r14, Y+1	; 0x01
    1f9c:	fa 80       	ldd	r15, Y+2	; 0x02
		{
			ptrFnt->uiIndex += _ptrFont[ _FONT_WIDTH_TABLE + i ];
		}

		ptrFnt->uiIndex = ( ptrFnt->uiIndex * ptrFnt->uiHeightInBytes + uiCharCount + _FONT_WIDTH_TABLE );
    1f9e:	ad ea       	ldi	r26, 0xAD	; 173
    1fa0:	b5 e0       	ldi	r27, 0x05	; 5
    1fa2:	2d 91       	ld	r18, X+
    1fa4:	3c 91       	ld	r19, X
    1fa6:	11 97       	sbiw	r26, 0x01	; 1
    1fa8:	e2 9e       	mul	r14, r18
    1faa:	a0 01       	movw	r20, r0
    1fac:	e3 9e       	mul	r14, r19
    1fae:	50 0d       	add	r21, r0
    1fb0:	11 24       	eor	r1, r1
    1fb2:	21 2f       	mov	r18, r17
    1fb4:	30 e0       	ldi	r19, 0x00	; 0
    1fb6:	2a 5f       	subi	r18, 0xFA	; 250
    1fb8:	3f 4f       	sbci	r19, 0xFF	; 255
    1fba:	24 0f       	add	r18, r20
    1fbc:	35 1f       	adc	r19, r21
    1fbe:	11 96       	adiw	r26, 0x01	; 1
    1fc0:	3c 93       	st	X, r19
    1fc2:	2e 93       	st	-X, r18
		ptrFnt->uiWidht = _ptrFont[ _FONT_WIDTH_TABLE + c ];
    1fc4:	68 0f       	add	r22, r24
    1fc6:	71 1d       	adc	r23, r1
    1fc8:	fb 01       	movw	r30, r22
    1fca:	36 96       	adiw	r30, 0x06	; 6
    1fcc:	84 91       	lpm	r24, Z
    1fce:	90 e0       	ldi	r25, 0x00	; 0
    1fd0:	13 96       	adiw	r26, 0x03	; 3
    1fd2:	9c 93       	st	X, r25
    1fd4:	8e 93       	st	-X, r24
    1fd6:	12 97       	sbiw	r26, 0x02	; 2
	uint8_t FontPixelByte , mask , tmpmask , pixels , k , j ;
	
	_ClearFont( &Font );
	_GetFont( c , &Font );

	if ( _IsFixedWidthFont(_ptrFont ) )
    1fd8:	e0 91 ab 05 	lds	r30, 0x05AB	; 0x8005ab <_ptrFont>
    1fdc:	f0 91 ac 05 	lds	r31, 0x05AC	; 0x8005ac <_ptrFont+0x1>
    1fe0:	84 91       	lpm	r24, Z
    1fe2:	88 23       	and	r24, r24
    1fe4:	29 f0       	breq	.+10     	; 0x1ff0 <Ssd1306PutChar+0x160>
			uiLastWidht+=Font.uiWidht;
		}
	}
	else
	{
		for( k = 0 ; k < Font.uiHeightInBytes ; k++)
    1fe6:	80 91 b3 05 	lds	r24, 0x05B3	; 0x8005b3 <Font+0x6>
    1fea:	81 11       	cpse	r24, r1
    1fec:	6e c0       	rjmp	.+220    	; 0x20ca <Ssd1306PutChar+0x23a>
    1fee:	49 c1       	rjmp	.+658    	; 0x2282 <Ssd1306PutChar+0x3f2>
	uint8_t FontPixelByte , mask , tmpmask , pixels , k , j ;
	
	_ClearFont( &Font );
	_GetFont( c , &Font );

	if ( _IsFixedWidthFont(_ptrFont ) )
    1ff0:	31 96       	adiw	r30, 0x01	; 1
    1ff2:	84 91       	lpm	r24, Z
    1ff4:	81 11       	cpse	r24, r1
    1ff6:	f7 cf       	rjmp	.-18     	; 0x1fe6 <Ssd1306PutChar+0x156>
	{
		uint16_t uiLastWidht = 0;
	
		for ( uint8_t uiHeightInBytes = 0 ; uiHeightInBytes < Font.uiHeightInBytes ; uiHeightInBytes++ )
    1ff8:	80 91 b3 05 	lds	r24, 0x05B3	; 0x8005b3 <Font+0x6>
    1ffc:	81 11       	cpse	r24, r1
    1ffe:	4d c0       	rjmp	.+154    	; 0x209a <Ssd1306PutChar+0x20a>
    2000:	40 c1       	rjmp	.+640    	; 0x2282 <Ssd1306PutChar+0x3f2>
		{
			for ( uint16_t uiActualWidht = 0 ; uiActualWidht < Font.uiWidht ; uiActualWidht++ )
			{
				for ( uint8_t z = 0 ; z < 8 ; z++ )
				{
					if ( _ptrFont[ Font.uiIndex + ( uiLastWidht + uiActualWidht ) ] & 1<<z )
    2002:	e0 91 ab 05 	lds	r30, 0x05AB	; 0x8005ab <_ptrFont>
    2006:	f0 91 ac 05 	lds	r31, 0x05AC	; 0x8005ac <_ptrFont+0x1>
    200a:	d8 01       	movw	r26, r16
    200c:	8d 91       	ld	r24, X+
    200e:	9c 91       	ld	r25, X
    2010:	e8 0f       	add	r30, r24
    2012:	f9 1f       	adc	r31, r25
    2014:	29 81       	ldd	r18, Y+1	; 0x01
    2016:	3a 81       	ldd	r19, Y+2	; 0x02
    2018:	e2 0f       	add	r30, r18
    201a:	f3 1f       	adc	r31, r19
    201c:	ec 0d       	add	r30, r12
    201e:	fd 1d       	adc	r31, r13
    2020:	84 91       	lpm	r24, Z
    2022:	90 e0       	ldi	r25, 0x00	; 0
    2024:	06 2c       	mov	r0, r6
    2026:	02 c0       	rjmp	.+4      	; 0x202c <Ssd1306PutChar+0x19c>
    2028:	95 95       	asr	r25
    202a:	87 95       	ror	r24
    202c:	0a 94       	dec	r0
    202e:	e2 f7       	brpl	.-8      	; 0x2028 <Ssd1306PutChar+0x198>
    2030:	80 ff       	sbrs	r24, 0
    2032:	07 c0       	rjmp	.+14     	; 0x2042 <Ssd1306PutChar+0x1b2>
					{
						Ssd1306DrawPixel( ( y + z ) + ( uiHeightInBytes * 128 ) , ( x + uiActualWidht ) + ( uiHeightInBytes * 128 ) );
    2034:	b7 01       	movw	r22, r14
    2036:	c3 01       	movw	r24, r6
    2038:	8a 0d       	add	r24, r10
    203a:	9b 1d       	adc	r25, r11
    203c:	0e 94 bc 0e 	call	0x1d78	; 0x1d78 <Ssd1306DrawPixel>
    2040:	06 c0       	rjmp	.+12     	; 0x204e <Ssd1306PutChar+0x1be>
					}else
					{
						Ssd1306ClearPixel( ( y + z ) + ( uiHeightInBytes * 128 ) , ( x + uiActualWidht ) + ( uiHeightInBytes * 128 ) );
    2042:	b7 01       	movw	r22, r14
    2044:	c3 01       	movw	r24, r6
    2046:	8a 0d       	add	r24, r10
    2048:	9b 1d       	adc	r25, r11
    204a:	0e 94 ec 0e 	call	0x1dd8	; 0x1dd8 <Ssd1306ClearPixel>
    204e:	3f ef       	ldi	r19, 0xFF	; 255
    2050:	63 1a       	sub	r6, r19
    2052:	73 0a       	sbc	r7, r19
	
		for ( uint8_t uiHeightInBytes = 0 ; uiHeightInBytes < Font.uiHeightInBytes ; uiHeightInBytes++ )
		{
			for ( uint16_t uiActualWidht = 0 ; uiActualWidht < Font.uiWidht ; uiActualWidht++ )
			{
				for ( uint8_t z = 0 ; z < 8 ; z++ )
    2054:	48 e0       	ldi	r20, 0x08	; 8
    2056:	64 16       	cp	r6, r20
    2058:	71 04       	cpc	r7, r1
    205a:	99 f6       	brne	.-90     	; 0x2002 <Ssd1306PutChar+0x172>
	{
		uint16_t uiLastWidht = 0;
	
		for ( uint8_t uiHeightInBytes = 0 ; uiHeightInBytes < Font.uiHeightInBytes ; uiHeightInBytes++ )
		{
			for ( uint16_t uiActualWidht = 0 ; uiActualWidht < Font.uiWidht ; uiActualWidht++ )
    205c:	89 81       	ldd	r24, Y+1	; 0x01
    205e:	9a 81       	ldd	r25, Y+2	; 0x02
    2060:	01 96       	adiw	r24, 0x01	; 1
    2062:	9a 83       	std	Y+2, r25	; 0x02
    2064:	89 83       	std	Y+1, r24	; 0x01
    2066:	d8 01       	movw	r26, r16
    2068:	12 96       	adiw	r26, 0x02	; 2
    206a:	8d 91       	ld	r24, X+
    206c:	9c 91       	ld	r25, X
    206e:	13 97       	sbiw	r26, 0x03	; 3
    2070:	e9 81       	ldd	r30, Y+1	; 0x01
    2072:	fa 81       	ldd	r31, Y+2	; 0x02
    2074:	e8 17       	cp	r30, r24
    2076:	f9 07       	cpc	r31, r25
    2078:	38 f4       	brcc	.+14     	; 0x2088 <Ssd1306PutChar+0x1f8>
    207a:	e9 80       	ldd	r14, Y+1	; 0x01
    207c:	fa 80       	ldd	r15, Y+2	; 0x02
    207e:	e8 0c       	add	r14, r8
    2080:	f9 1c       	adc	r15, r9
	
	return Exitcode;
}

uint16_t	Ssd1306PutChar( uint8_t c , uint16_t y , uint16_t x )
{
    2082:	61 2c       	mov	r6, r1
    2084:	71 2c       	mov	r7, r1
    2086:	bd cf       	rjmp	.-134    	; 0x2002 <Ssd1306PutChar+0x172>
					{
						Ssd1306ClearPixel( ( y + z ) + ( uiHeightInBytes * 128 ) , ( x + uiActualWidht ) + ( uiHeightInBytes * 128 ) );
					}
				}
			}
			uiLastWidht+=Font.uiWidht;
    2088:	c8 0e       	add	r12, r24
    208a:	d9 1e       	adc	r13, r25

	if ( _IsFixedWidthFont(_ptrFont ) )
	{
		uint16_t uiLastWidht = 0;
	
		for ( uint8_t uiHeightInBytes = 0 ; uiHeightInBytes < Font.uiHeightInBytes ; uiHeightInBytes++ )
    208c:	53 94       	inc	r5
    208e:	d8 01       	movw	r26, r16
    2090:	16 96       	adiw	r26, 0x06	; 6
    2092:	8c 91       	ld	r24, X
    2094:	58 16       	cp	r5, r24
    2096:	38 f0       	brcs	.+14     	; 0x20a6 <Ssd1306PutChar+0x216>
    2098:	f4 c0       	rjmp	.+488    	; 0x2282 <Ssd1306PutChar+0x3f2>
    209a:	51 2c       	mov	r5, r1
    209c:	c1 2c       	mov	r12, r1
    209e:	d1 2c       	mov	r13, r1
		{
			for ( uint16_t uiActualWidht = 0 ; uiActualWidht < Font.uiWidht ; uiActualWidht++ )
    20a0:	0d ea       	ldi	r16, 0xAD	; 173
    20a2:	15 e0       	ldi	r17, 0x05	; 5
    20a4:	13 01       	movw	r2, r6
    20a6:	f8 01       	movw	r30, r16
    20a8:	82 81       	ldd	r24, Z+2	; 0x02
    20aa:	93 81       	ldd	r25, Z+3	; 0x03
    20ac:	00 97       	sbiw	r24, 0x00	; 0
    20ae:	61 f3       	breq	.-40     	; 0x2088 <Ssd1306PutChar+0x1f8>
			{
				for ( uint8_t z = 0 ; z < 8 ; z++ )
				{
					if ( _ptrFont[ Font.uiIndex + ( uiLastWidht + uiActualWidht ) ] & 1<<z )
					{
						Ssd1306DrawPixel( ( y + z ) + ( uiHeightInBytes * 128 ) , ( x + uiActualWidht ) + ( uiHeightInBytes * 128 ) );
    20b0:	f0 e8       	ldi	r31, 0x80	; 128
    20b2:	5f 9e       	mul	r5, r31
    20b4:	50 01       	movw	r10, r0
    20b6:	11 24       	eor	r1, r1
    20b8:	8e 80       	ldd	r8, Y+6	; 0x06
    20ba:	9f 80       	ldd	r9, Y+7	; 0x07
    20bc:	8a 0c       	add	r8, r10
    20be:	9b 1c       	adc	r9, r11
    20c0:	a2 0c       	add	r10, r2
    20c2:	b3 1c       	adc	r11, r3
    20c4:	1a 82       	std	Y+2, r1	; 0x02
    20c6:	19 82       	std	Y+1, r1	; 0x01
    20c8:	d8 cf       	rjmp	.-80     	; 0x207a <Ssd1306PutChar+0x1ea>
			uiLastWidht+=Font.uiWidht;
		}
	}
	else
	{
		for( k = 0 ; k < Font.uiHeightInBytes ; k++)
    20ca:	1d 82       	std	Y+5, r1	; 0x05
		{
			pixels = 8; // erstmal

			if( k == Font.uiHeightInBytes - 1 ) // Im unteren Zeichenteil evtl. nur Restpixel zeichnen
			{
				FontPixelByte = Font.uiHeight % 8;
    20cc:	0f 2e       	mov	r0, r31
    20ce:	fd ea       	ldi	r31, 0xAD	; 173
    20d0:	8f 2e       	mov	r8, r31
    20d2:	f5 e0       	ldi	r31, 0x05	; 5
    20d4:	9f 2e       	mov	r9, r31
    20d6:	f0 2d       	mov	r31, r0
	{
		for( k = 0 ; k < Font.uiHeightInBytes ; k++)
		{
			pixels = 8; // erstmal

			if( k == Font.uiHeightInBytes - 1 ) // Im unteren Zeichenteil evtl. nur Restpixel zeichnen
    20d8:	4d 81       	ldd	r20, Y+5	; 0x05
    20da:	24 2f       	mov	r18, r20
    20dc:	30 e0       	ldi	r19, 0x00	; 0
    20de:	90 e0       	ldi	r25, 0x00	; 0
    20e0:	01 97       	sbiw	r24, 0x01	; 1
    20e2:	28 17       	cp	r18, r24
    20e4:	39 07       	cpc	r19, r25
    20e6:	99 f4       	brne	.+38     	; 0x210e <Ssd1306PutChar+0x27e>
			{
				FontPixelByte = Font.uiHeight % 8;
    20e8:	d4 01       	movw	r26, r8
    20ea:	14 96       	adiw	r26, 0x04	; 4
    20ec:	8c 91       	ld	r24, X
    20ee:	87 70       	andi	r24, 0x07	; 7
    20f0:	8c 83       	std	Y+4, r24	; 0x04
				if( FontPixelByte != 0 ) 
    20f2:	88 23       	and	r24, r24
    20f4:	89 f0       	breq	.+34     	; 0x2118 <Ssd1306PutChar+0x288>
			}

			tmpmask = 0x01;//Bei D0 anfangen
			if( pixels != 8 ) 
			{
				tmpmask <<= ( 8 - pixels ); // Restpixel sind verschoben !
    20f6:	88 e0       	ldi	r24, 0x08	; 8
    20f8:	90 e0       	ldi	r25, 0x00	; 0
    20fa:	bc 81       	ldd	r27, Y+4	; 0x04
    20fc:	8b 1b       	sub	r24, r27
    20fe:	91 09       	sbc	r25, r1
    2100:	e1 e0       	ldi	r30, 0x01	; 1
    2102:	01 c0       	rjmp	.+2      	; 0x2106 <Ssd1306PutChar+0x276>
    2104:	ee 0f       	add	r30, r30
    2106:	8a 95       	dec	r24
    2108:	ea f7       	brpl	.-6      	; 0x2104 <Ssd1306PutChar+0x274>
    210a:	eb 83       	std	Y+3, r30	; 0x03
    210c:	09 c0       	rjmp	.+18     	; 0x2120 <Ssd1306PutChar+0x290>
    210e:	f8 e0       	ldi	r31, 0x08	; 8
    2110:	fc 83       	std	Y+4, r31	; 0x04
				{
					pixels = FontPixelByte;
				}
			}

			tmpmask = 0x01;//Bei D0 anfangen
    2112:	21 e0       	ldi	r18, 0x01	; 1
    2114:	2b 83       	std	Y+3, r18	; 0x03
    2116:	04 c0       	rjmp	.+8      	; 0x2120 <Ssd1306PutChar+0x290>
    2118:	38 e0       	ldi	r19, 0x08	; 8
    211a:	3c 83       	std	Y+4, r19	; 0x04
    211c:	41 e0       	ldi	r20, 0x01	; 1
    211e:	4b 83       	std	Y+3, r20	; 0x03
				tmpmask <<= ( 8 - pixels ); // Restpixel sind verschoben !
			}
		 
			uint16_t PosX = x;

			for( i = 0 ; i < Font.uiWidht ; i++ ) //ber die Breite des Zeichens
    2120:	d4 01       	movw	r26, r8
    2122:	12 96       	adiw	r26, 0x02	; 2
    2124:	8d 91       	ld	r24, X+
    2126:	9c 91       	ld	r25, X
    2128:	13 97       	sbiw	r26, 0x03	; 3
    212a:	89 2b       	or	r24, r25
    212c:	09 f4       	brne	.+2      	; 0x2130 <Ssd1306PutChar+0x2a0>
    212e:	74 c0       	rjmp	.+232    	; 0x2218 <Ssd1306PutChar+0x388>
    2130:	63 01       	movw	r12, r6
    2132:	d6 94       	lsr	r13
    2134:	c7 94       	ror	r12
    2136:	d6 94       	lsr	r13
    2138:	c7 94       	ror	r12
    213a:	d6 94       	lsr	r13
    213c:	c7 94       	ror	r12
    213e:	d6 94       	lsr	r13
    2140:	dc 2c       	mov	r13, r12
    2142:	cc 24       	eor	r12, r12
    2144:	d7 94       	ror	r13
    2146:	c7 94       	ror	r12
    2148:	8e 81       	ldd	r24, Y+6	; 0x06
    214a:	9f 81       	ldd	r25, Y+7	; 0x07
    214c:	8c 0d       	add	r24, r12
    214e:	9d 1d       	adc	r25, r13
    2150:	fc 01       	movw	r30, r24
    2152:	ed 58       	subi	r30, 0x8D	; 141
    2154:	ff 4f       	sbci	r31, 0xFF	; 255
    2156:	6f 01       	movw	r12, r30
	 DisplayRam[ x + ( y / 8 ) * SSD1306_LCD_Width ] |=  ( 1 << ( y & 7 ) );
}

void		Ssd1306DrawByte( uint16_t y , uint16_t x , uint8_t Byte )
{
	DisplayRam[ x + ( y / 8 ) * SSD1306_LCD_Width ] = Byte;
    2158:	2e 81       	ldd	r18, Y+6	; 0x06
    215a:	3f 81       	ldd	r19, Y+7	; 0x07
    215c:	39 87       	std	Y+9, r19	; 0x09
    215e:	28 87       	std	Y+8, r18	; 0x08
    2160:	e1 2c       	mov	r14, r1
    2162:	f1 2c       	mov	r15, r1

			for( i = 0 ; i < Font.uiWidht ; i++ ) //ber die Breite des Zeichens
			{
				FontPixelByte = _ptrFont[ Font.uiIndex++ ]; //Ein Byte des Zeichens holen

				if( ( y % 8 ) != 0 || pixels != 8 )
    2164:	53 01       	movw	r10, r6
    2166:	37 e0       	ldi	r19, 0x07	; 7
    2168:	a3 22       	and	r10, r19
    216a:	bb 24       	eor	r11, r11
    216c:	83 01       	movw	r16, r6
    216e:	0f 5f       	subi	r16, 0xFF	; 255
    2170:	1f 4f       	sbci	r17, 0xFF	; 255
    2172:	8c 81       	ldd	r24, Y+4	; 0x04
    2174:	81 50       	subi	r24, 0x01	; 1
    2176:	08 0f       	add	r16, r24
    2178:	11 1d       	adc	r17, r1
    217a:	7a 82       	std	Y+2, r7	; 0x02
    217c:	69 82       	std	Y+1, r6	; 0x01
    217e:	7c 80       	ldd	r7, Y+4	; 0x04
		 
			uint16_t PosX = x;

			for( i = 0 ; i < Font.uiWidht ; i++ ) //ber die Breite des Zeichens
			{
				FontPixelByte = _ptrFont[ Font.uiIndex++ ]; //Ein Byte des Zeichens holen
    2180:	e0 91 ab 05 	lds	r30, 0x05AB	; 0x8005ab <_ptrFont>
    2184:	f0 91 ac 05 	lds	r31, 0x05AC	; 0x8005ac <_ptrFont+0x1>
    2188:	d4 01       	movw	r26, r8
    218a:	8d 91       	ld	r24, X+
    218c:	9c 91       	ld	r25, X
    218e:	11 97       	sbiw	r26, 0x01	; 1
    2190:	9c 01       	movw	r18, r24
    2192:	2f 5f       	subi	r18, 0xFF	; 255
    2194:	3f 4f       	sbci	r19, 0xFF	; 255
    2196:	2d 93       	st	X+, r18
    2198:	3c 93       	st	X, r19
    219a:	e8 0f       	add	r30, r24
    219c:	f9 1f       	adc	r31, r25
    219e:	24 90       	lpm	r2, Z

				if( ( y % 8 ) != 0 || pixels != 8 )
    21a0:	a1 14       	cp	r10, r1
    21a2:	b1 04       	cpc	r11, r1
    21a4:	19 f0       	breq	.+6      	; 0x21ac <Ssd1306PutChar+0x31c>
				{
					mask = tmpmask;

					for( j = 0 ; j < pixels ; j++ )
    21a6:	71 10       	cpse	r7, r1
    21a8:	05 c0       	rjmp	.+10     	; 0x21b4 <Ssd1306PutChar+0x324>
    21aa:	1f c0       	rjmp	.+62     	; 0x21ea <Ssd1306PutChar+0x35a>

			for( i = 0 ; i < Font.uiWidht ; i++ ) //ber die Breite des Zeichens
			{
				FontPixelByte = _ptrFont[ Font.uiIndex++ ]; //Ein Byte des Zeichens holen

				if( ( y % 8 ) != 0 || pixels != 8 )
    21ac:	b8 e0       	ldi	r27, 0x08	; 8
    21ae:	7b 12       	cpse	r7, r27
    21b0:	fa cf       	rjmp	.-12     	; 0x21a6 <Ssd1306PutChar+0x316>
    21b2:	19 c0       	rjmp	.+50     	; 0x21e6 <Ssd1306PutChar+0x356>
				{
					mask = tmpmask;

					for( j = 0 ; j < pixels ; j++ )
    21b4:	49 80       	ldd	r4, Y+1	; 0x01
    21b6:	5a 80       	ldd	r5, Y+2	; 0x02
    21b8:	3b 80       	ldd	r3, Y+3	; 0x03
					{
						if ( FontPixelByte & mask )
    21ba:	82 2d       	mov	r24, r2
    21bc:	83 21       	and	r24, r3
    21be:	31 f0       	breq	.+12     	; 0x21cc <Ssd1306PutChar+0x33c>
						{
							Ssd1306DrawPixel( y + j, PosX );
    21c0:	68 85       	ldd	r22, Y+8	; 0x08
    21c2:	79 85       	ldd	r23, Y+9	; 0x09
    21c4:	c2 01       	movw	r24, r4
    21c6:	0e 94 bc 0e 	call	0x1d78	; 0x1d78 <Ssd1306DrawPixel>
    21ca:	05 c0       	rjmp	.+10     	; 0x21d6 <Ssd1306PutChar+0x346>
						}
						else
						{
							Ssd1306ClearPixel( y + j, PosX );
    21cc:	68 85       	ldd	r22, Y+8	; 0x08
    21ce:	79 85       	ldd	r23, Y+9	; 0x09
    21d0:	c2 01       	movw	r24, r4
    21d2:	0e 94 ec 0e 	call	0x1dd8	; 0x1dd8 <Ssd1306ClearPixel>
						}
						
						mask<<=1; //Nchstes Bit
    21d6:	33 0c       	add	r3, r3
    21d8:	ff ef       	ldi	r31, 0xFF	; 255
    21da:	4f 1a       	sub	r4, r31
    21dc:	5f 0a       	sbc	r5, r31

				if( ( y % 8 ) != 0 || pixels != 8 )
				{
					mask = tmpmask;

					for( j = 0 ; j < pixels ; j++ )
    21de:	04 15       	cp	r16, r4
    21e0:	15 05       	cpc	r17, r5
    21e2:	59 f7       	brne	.-42     	; 0x21ba <Ssd1306PutChar+0x32a>
    21e4:	02 c0       	rjmp	.+4      	; 0x21ea <Ssd1306PutChar+0x35a>
	 DisplayRam[ x + ( y / 8 ) * SSD1306_LCD_Width ] |=  ( 1 << ( y & 7 ) );
}

void		Ssd1306DrawByte( uint16_t y , uint16_t x , uint8_t Byte )
{
	DisplayRam[ x + ( y / 8 ) * SSD1306_LCD_Width ] = Byte;
    21e6:	d6 01       	movw	r26, r12
    21e8:	2c 92       	st	X, r2
				else
				{
					Ssd1306DrawByte( y , PosX , FontPixelByte );
				}

				PosX++;
    21ea:	e8 85       	ldd	r30, Y+8	; 0x08
    21ec:	f9 85       	ldd	r31, Y+9	; 0x09
    21ee:	31 96       	adiw	r30, 0x01	; 1
    21f0:	f9 87       	std	Y+9, r31	; 0x09
    21f2:	e8 87       	std	Y+8, r30	; 0x08
				tmpmask <<= ( 8 - pixels ); // Restpixel sind verschoben !
			}
		 
			uint16_t PosX = x;

			for( i = 0 ; i < Font.uiWidht ; i++ ) //ber die Breite des Zeichens
    21f4:	ff ef       	ldi	r31, 0xFF	; 255
    21f6:	ef 1a       	sub	r14, r31
    21f8:	ff 0a       	sbc	r15, r31
    21fa:	2f ef       	ldi	r18, 0xFF	; 255
    21fc:	c2 1a       	sub	r12, r18
    21fe:	d2 0a       	sbc	r13, r18
    2200:	d4 01       	movw	r26, r8
    2202:	12 96       	adiw	r26, 0x02	; 2
    2204:	8d 91       	ld	r24, X+
    2206:	9c 91       	ld	r25, X
    2208:	13 97       	sbiw	r26, 0x03	; 3
    220a:	e8 16       	cp	r14, r24
    220c:	f9 06       	cpc	r15, r25
    220e:	08 f4       	brcc	.+2      	; 0x2212 <Ssd1306PutChar+0x382>
    2210:	b7 cf       	rjmp	.-146    	; 0x2180 <Ssd1306PutChar+0x2f0>
    2212:	69 80       	ldd	r6, Y+1	; 0x01
    2214:	7a 80       	ldd	r7, Y+2	; 0x02
    2216:	04 c0       	rjmp	.+8      	; 0x2220 <Ssd1306PutChar+0x390>
			if( pixels != 8 ) 
			{
				tmpmask <<= ( 8 - pixels ); // Restpixel sind verschoben !
			}
		 
			uint16_t PosX = x;
    2218:	2e 81       	ldd	r18, Y+6	; 0x06
    221a:	3f 81       	ldd	r19, Y+7	; 0x07
    221c:	39 87       	std	Y+9, r19	; 0x09
    221e:	28 87       	std	Y+8, r18	; 0x08
				}

				PosX++;
			}//for i

			if( ( y % 8 ) != 0 || pixels != 8 )
    2220:	c3 01       	movw	r24, r6
    2222:	87 70       	andi	r24, 0x07	; 7
    2224:	99 27       	eor	r25, r25
    2226:	89 2b       	or	r24, r25
    2228:	21 f0       	breq	.+8      	; 0x2232 <Ssd1306PutChar+0x3a2>
			{
				for( j = 0 ; j < pixels ; j++ ) // virtual spacing Spalte, 1 Leerpixel zeichnen
    222a:	3c 81       	ldd	r19, Y+4	; 0x04
    222c:	31 11       	cpse	r19, r1
    222e:	05 c0       	rjmp	.+10     	; 0x223a <Ssd1306PutChar+0x3aa>
    2230:	1d c0       	rjmp	.+58     	; 0x226c <Ssd1306PutChar+0x3dc>
				}

				PosX++;
			}//for i

			if( ( y % 8 ) != 0 || pixels != 8 )
    2232:	4c 81       	ldd	r20, Y+4	; 0x04
    2234:	48 30       	cpi	r20, 0x08	; 8
    2236:	c9 f7       	brne	.-14     	; 0x222a <Ssd1306PutChar+0x39a>
    2238:	14 c0       	rjmp	.+40     	; 0x2262 <Ssd1306PutChar+0x3d2>
    223a:	8c 81       	ldd	r24, Y+4	; 0x04
    223c:	81 50       	subi	r24, 0x01	; 1
    223e:	83 01       	movw	r16, r6
    2240:	0f 5f       	subi	r16, 0xFF	; 255
    2242:	1f 4f       	sbci	r17, 0xFF	; 255
    2244:	08 0f       	add	r16, r24
    2246:	11 1d       	adc	r17, r1
			{
				for( j = 0 ; j < pixels ; j++ ) // virtual spacing Spalte, 1 Leerpixel zeichnen
    2248:	73 01       	movw	r14, r6
				{
					Ssd1306ClearPixel( y + j , PosX );
    224a:	68 85       	ldd	r22, Y+8	; 0x08
    224c:	79 85       	ldd	r23, Y+9	; 0x09
    224e:	c7 01       	movw	r24, r14
    2250:	0e 94 ec 0e 	call	0x1dd8	; 0x1dd8 <Ssd1306ClearPixel>
    2254:	9f ef       	ldi	r25, 0xFF	; 255
    2256:	e9 1a       	sub	r14, r25
    2258:	f9 0a       	sbc	r15, r25
				PosX++;
			}//for i

			if( ( y % 8 ) != 0 || pixels != 8 )
			{
				for( j = 0 ; j < pixels ; j++ ) // virtual spacing Spalte, 1 Leerpixel zeichnen
    225a:	0e 15       	cp	r16, r14
    225c:	1f 05       	cpc	r17, r15
    225e:	a9 f7       	brne	.-22     	; 0x224a <Ssd1306PutChar+0x3ba>
    2260:	05 c0       	rjmp	.+10     	; 0x226c <Ssd1306PutChar+0x3dc>
					Ssd1306ClearPixel( y + j , PosX );
				}//for j
			}
			else
			{
				Ssd1306ClearByte( y , PosX );
    2262:	68 85       	ldd	r22, Y+8	; 0x08
    2264:	79 85       	ldd	r23, Y+9	; 0x09
    2266:	c3 01       	movw	r24, r6
    2268:	0e 94 da 0e 	call	0x1db4	; 0x1db4 <Ssd1306ClearByte>
			}

			y += 8 ;
    226c:	a8 e0       	ldi	r26, 0x08	; 8
    226e:	6a 0e       	add	r6, r26
    2270:	71 1c       	adc	r7, r1
			uiLastWidht+=Font.uiWidht;
		}
	}
	else
	{
		for( k = 0 ; k < Font.uiHeightInBytes ; k++)
    2272:	bd 81       	ldd	r27, Y+5	; 0x05
    2274:	bf 5f       	subi	r27, 0xFF	; 255
    2276:	bd 83       	std	Y+5, r27	; 0x05
    2278:	f4 01       	movw	r30, r8
    227a:	86 81       	ldd	r24, Z+6	; 0x06
    227c:	b8 17       	cp	r27, r24
    227e:	08 f4       	brcc	.+2      	; 0x2282 <Ssd1306PutChar+0x3f2>
    2280:	2b cf       	rjmp	.-426    	; 0x20d8 <Ssd1306PutChar+0x248>

			y += 8 ;
		}//for k		
	}
	
	return ( Font.uiWidht + 1 );
    2282:	80 91 af 05 	lds	r24, 0x05AF	; 0x8005af <Font+0x2>
    2286:	90 91 b0 05 	lds	r25, 0x05B0	; 0x8005b0 <Font+0x3>
}
    228a:	01 96       	adiw	r24, 0x01	; 1
    228c:	29 96       	adiw	r28, 0x09	; 9
    228e:	0f b6       	in	r0, 0x3f	; 63
    2290:	f8 94       	cli
    2292:	de bf       	out	0x3e, r29	; 62
    2294:	0f be       	out	0x3f, r0	; 63
    2296:	cd bf       	out	0x3d, r28	; 61
    2298:	df 91       	pop	r29
    229a:	cf 91       	pop	r28
    229c:	1f 91       	pop	r17
    229e:	0f 91       	pop	r16
    22a0:	ff 90       	pop	r15
    22a2:	ef 90       	pop	r14
    22a4:	df 90       	pop	r13
    22a6:	cf 90       	pop	r12
    22a8:	bf 90       	pop	r11
    22aa:	af 90       	pop	r10
    22ac:	9f 90       	pop	r9
    22ae:	8f 90       	pop	r8
    22b0:	7f 90       	pop	r7
    22b2:	6f 90       	pop	r6
    22b4:	5f 90       	pop	r5
    22b6:	4f 90       	pop	r4
    22b8:	3f 90       	pop	r3
    22ba:	2f 90       	pop	r2
    22bc:	08 95       	ret

000022be <Ssd1306PutString>:

void		Ssd1306PutString( char *msg , uint8_t y , uint8_t x )
{
    22be:	cf 92       	push	r12
    22c0:	df 92       	push	r13
    22c2:	ef 92       	push	r14
    22c4:	ff 92       	push	r15
    22c6:	0f 93       	push	r16
    22c8:	1f 93       	push	r17
    22ca:	cf 93       	push	r28
    22cc:	df 93       	push	r29
    22ce:	fc 01       	movw	r30, r24
	uint16_t Width = 0;
	
	while( *msg )
    22d0:	80 81       	ld	r24, Z
    22d2:	88 23       	and	r24, r24
    22d4:	b1 f0       	breq	.+44     	; 0x2302 <Ssd1306PutString+0x44>
    22d6:	8f 01       	movw	r16, r30
    22d8:	0f 5f       	subi	r16, 0xFF	; 255
    22da:	1f 4f       	sbci	r17, 0xFF	; 255
    22dc:	c0 e0       	ldi	r28, 0x00	; 0
    22de:	d0 e0       	ldi	r29, 0x00	; 0
	{
		Width += Ssd1306PutChar( *msg++ , y , x + Width );
    22e0:	c4 2e       	mov	r12, r20
    22e2:	d1 2c       	mov	r13, r1
    22e4:	e6 2e       	mov	r14, r22
    22e6:	f1 2c       	mov	r15, r1
    22e8:	a6 01       	movw	r20, r12
    22ea:	4c 0f       	add	r20, r28
    22ec:	5d 1f       	adc	r21, r29
    22ee:	b7 01       	movw	r22, r14
    22f0:	0e 94 48 0f 	call	0x1e90	; 0x1e90 <Ssd1306PutChar>
    22f4:	c8 0f       	add	r28, r24
    22f6:	d9 1f       	adc	r29, r25

void		Ssd1306PutString( char *msg , uint8_t y , uint8_t x )
{
	uint16_t Width = 0;
	
	while( *msg )
    22f8:	f8 01       	movw	r30, r16
    22fa:	81 91       	ld	r24, Z+
    22fc:	8f 01       	movw	r16, r30
    22fe:	81 11       	cpse	r24, r1
    2300:	f3 cf       	rjmp	.-26     	; 0x22e8 <Ssd1306PutString+0x2a>
	{
		Width += Ssd1306PutChar( *msg++ , y , x + Width );
	}
    2302:	df 91       	pop	r29
    2304:	cf 91       	pop	r28
    2306:	1f 91       	pop	r17
    2308:	0f 91       	pop	r16
    230a:	ff 90       	pop	r15
    230c:	ef 90       	pop	r14
    230e:	df 90       	pop	r13
    2310:	cf 90       	pop	r12
    2312:	08 95       	ret

00002314 <menueExit>:
	Ssd1306PutString( output , pos + 10 , 0 );
				
	Ssd1306SendRam();
				
	return 0;
}
    2314:	e4 e3       	ldi	r30, 0x34	; 52
    2316:	f6 e0       	ldi	r31, 0x06	; 6
    2318:	10 82       	st	Z, r1
    231a:	11 82       	std	Z+1, r1	; 0x01
    231c:	8f ef       	ldi	r24, 0xFF	; 255
    231e:	08 95       	ret

00002320 <reboot>:
    2320:	0e 94 b1 0e 	call	0x1d62	; 0x1d62 <Ssd1306ClearScreen>
    2324:	8c e3       	ldi	r24, 0x3C	; 60
    2326:	96 e0       	ldi	r25, 0x06	; 6
    2328:	0e 94 ac 0e 	call	0x1d58	; 0x1d58 <Ssd1306SetFont>
    232c:	40 e0       	ldi	r20, 0x00	; 0
    232e:	69 e1       	ldi	r22, 0x19	; 25
    2330:	89 ed       	ldi	r24, 0xD9	; 217
    2332:	94 e0       	ldi	r25, 0x04	; 4
    2334:	0e 94 5f 11 	call	0x22be	; 0x22be <Ssd1306PutString>
    2338:	0e 94 0b 0f 	call	0x1e16	; 0x1e16 <Ssd1306SendRam>
    233c:	2f ef       	ldi	r18, 0xFF	; 255
    233e:	88 e0       	ldi	r24, 0x08	; 8
    2340:	9d e3       	ldi	r25, 0x3D	; 61
    2342:	21 50       	subi	r18, 0x01	; 1
    2344:	80 40       	sbci	r24, 0x00	; 0
    2346:	90 40       	sbci	r25, 0x00	; 0
    2348:	e1 f7       	brne	.-8      	; 0x2342 <reboot+0x22>
    234a:	00 c0       	rjmp	.+0      	; 0x234c <reboot+0x2c>
    234c:	00 00       	nop
    234e:	e0 e0       	ldi	r30, 0x00	; 0
    2350:	f0 e0       	ldi	r31, 0x00	; 0
    2352:	09 95       	icall
    2354:	80 e0       	ldi	r24, 0x00	; 0
    2356:	08 95       	ret

00002358 <clearLine>:
    2358:	0f 93       	push	r16
    235a:	1f 93       	push	r17
    235c:	cf 93       	push	r28
    235e:	df 93       	push	r29
    2360:	98 e0       	ldi	r25, 0x08	; 8
    2362:	89 9f       	mul	r24, r25
    2364:	80 01       	movw	r16, r0
    2366:	11 24       	eor	r1, r1
    2368:	c0 e0       	ldi	r28, 0x00	; 0
    236a:	d0 e0       	ldi	r29, 0x00	; 0
    236c:	be 01       	movw	r22, r28
    236e:	c8 01       	movw	r24, r16
    2370:	0e 94 da 0e 	call	0x1db4	; 0x1db4 <Ssd1306ClearByte>
    2374:	21 96       	adiw	r28, 0x01	; 1
    2376:	c0 38       	cpi	r28, 0x80	; 128
    2378:	d1 05       	cpc	r29, r1
    237a:	c1 f7       	brne	.-16     	; 0x236c <clearLine+0x14>
    237c:	df 91       	pop	r29
    237e:	cf 91       	pop	r28
    2380:	1f 91       	pop	r17
    2382:	0f 91       	pop	r16
    2384:	08 95       	ret

00002386 <checkMinMax>:
    2386:	0f 93       	push	r16
    2388:	1f 93       	push	r17
    238a:	cf 93       	push	r28
    238c:	df 93       	push	r29
    238e:	8c 01       	movw	r16, r24
    2390:	eb 01       	movw	r28, r22
    2392:	fc 01       	movw	r30, r24
    2394:	65 85       	ldd	r22, Z+13	; 0x0d
    2396:	76 85       	ldd	r23, Z+14	; 0x0e
    2398:	87 85       	ldd	r24, Z+15	; 0x0f
    239a:	90 89       	ldd	r25, Z+16	; 0x10
    239c:	24 e6       	ldi	r18, 0x64	; 100
    239e:	30 e0       	ldi	r19, 0x00	; 0
    23a0:	40 e0       	ldi	r20, 0x00	; 0
    23a2:	50 e0       	ldi	r21, 0x00	; 0
    23a4:	0e 94 d1 1b 	call	0x37a2	; 0x37a2 <__udivmodsi4>
    23a8:	8c 85       	ldd	r24, Y+12	; 0x0c
    23aa:	9d 85       	ldd	r25, Y+13	; 0x0d
    23ac:	09 2e       	mov	r0, r25
    23ae:	00 0c       	add	r0, r0
    23b0:	aa 0b       	sbc	r26, r26
    23b2:	bb 0b       	sbc	r27, r27
    23b4:	82 17       	cp	r24, r18
    23b6:	93 07       	cpc	r25, r19
    23b8:	a4 07       	cpc	r26, r20
    23ba:	b5 07       	cpc	r27, r21
    23bc:	6c f4       	brge	.+26     	; 0x23d8 <checkMinMax+0x52>
    23be:	f8 01       	movw	r30, r16
    23c0:	65 85       	ldd	r22, Z+13	; 0x0d
    23c2:	76 85       	ldd	r23, Z+14	; 0x0e
    23c4:	87 85       	ldd	r24, Z+15	; 0x0f
    23c6:	90 89       	ldd	r25, Z+16	; 0x10
    23c8:	24 e6       	ldi	r18, 0x64	; 100
    23ca:	30 e0       	ldi	r19, 0x00	; 0
    23cc:	40 e0       	ldi	r20, 0x00	; 0
    23ce:	50 e0       	ldi	r21, 0x00	; 0
    23d0:	0e 94 f3 1b 	call	0x37e6	; 0x37e6 <__divmodsi4>
    23d4:	3d 87       	std	Y+13, r19	; 0x0d
    23d6:	2c 87       	std	Y+12, r18	; 0x0c
    23d8:	f8 01       	movw	r30, r16
    23da:	65 85       	ldd	r22, Z+13	; 0x0d
    23dc:	76 85       	ldd	r23, Z+14	; 0x0e
    23de:	87 85       	ldd	r24, Z+15	; 0x0f
    23e0:	90 89       	ldd	r25, Z+16	; 0x10
    23e2:	24 e6       	ldi	r18, 0x64	; 100
    23e4:	30 e0       	ldi	r19, 0x00	; 0
    23e6:	40 e0       	ldi	r20, 0x00	; 0
    23e8:	50 e0       	ldi	r21, 0x00	; 0
    23ea:	0e 94 d1 1b 	call	0x37a2	; 0x37a2 <__udivmodsi4>
    23ee:	8e 85       	ldd	r24, Y+14	; 0x0e
    23f0:	9f 85       	ldd	r25, Y+15	; 0x0f
    23f2:	09 2e       	mov	r0, r25
    23f4:	00 0c       	add	r0, r0
    23f6:	aa 0b       	sbc	r26, r26
    23f8:	bb 0b       	sbc	r27, r27
    23fa:	28 17       	cp	r18, r24
    23fc:	39 07       	cpc	r19, r25
    23fe:	4a 07       	cpc	r20, r26
    2400:	5b 07       	cpc	r21, r27
    2402:	6c f4       	brge	.+26     	; 0x241e <checkMinMax+0x98>
    2404:	f8 01       	movw	r30, r16
    2406:	65 85       	ldd	r22, Z+13	; 0x0d
    2408:	76 85       	ldd	r23, Z+14	; 0x0e
    240a:	87 85       	ldd	r24, Z+15	; 0x0f
    240c:	90 89       	ldd	r25, Z+16	; 0x10
    240e:	24 e6       	ldi	r18, 0x64	; 100
    2410:	30 e0       	ldi	r19, 0x00	; 0
    2412:	40 e0       	ldi	r20, 0x00	; 0
    2414:	50 e0       	ldi	r21, 0x00	; 0
    2416:	0e 94 f3 1b 	call	0x37e6	; 0x37e6 <__divmodsi4>
    241a:	3f 87       	std	Y+15, r19	; 0x0f
    241c:	2e 87       	std	Y+14, r18	; 0x0e
    241e:	f8 01       	movw	r30, r16
    2420:	61 85       	ldd	r22, Z+9	; 0x09
    2422:	72 85       	ldd	r23, Z+10	; 0x0a
    2424:	83 85       	ldd	r24, Z+11	; 0x0b
    2426:	94 85       	ldd	r25, Z+12	; 0x0c
    2428:	2a e0       	ldi	r18, 0x0A	; 10
    242a:	30 e0       	ldi	r19, 0x00	; 0
    242c:	40 e0       	ldi	r20, 0x00	; 0
    242e:	50 e0       	ldi	r21, 0x00	; 0
    2430:	0e 94 f3 1b 	call	0x37e6	; 0x37e6 <__divmodsi4>
    2434:	8c 81       	ldd	r24, Y+4	; 0x04
    2436:	9d 81       	ldd	r25, Y+5	; 0x05
    2438:	09 2e       	mov	r0, r25
    243a:	00 0c       	add	r0, r0
    243c:	aa 0b       	sbc	r26, r26
    243e:	bb 0b       	sbc	r27, r27
    2440:	82 17       	cp	r24, r18
    2442:	93 07       	cpc	r25, r19
    2444:	a4 07       	cpc	r26, r20
    2446:	b5 07       	cpc	r27, r21
    2448:	6c f4       	brge	.+26     	; 0x2464 <checkMinMax+0xde>
    244a:	f8 01       	movw	r30, r16
    244c:	61 85       	ldd	r22, Z+9	; 0x09
    244e:	72 85       	ldd	r23, Z+10	; 0x0a
    2450:	83 85       	ldd	r24, Z+11	; 0x0b
    2452:	94 85       	ldd	r25, Z+12	; 0x0c
    2454:	2a e0       	ldi	r18, 0x0A	; 10
    2456:	30 e0       	ldi	r19, 0x00	; 0
    2458:	40 e0       	ldi	r20, 0x00	; 0
    245a:	50 e0       	ldi	r21, 0x00	; 0
    245c:	0e 94 f3 1b 	call	0x37e6	; 0x37e6 <__divmodsi4>
    2460:	3d 83       	std	Y+5, r19	; 0x05
    2462:	2c 83       	std	Y+4, r18	; 0x04
    2464:	f8 01       	movw	r30, r16
    2466:	61 85       	ldd	r22, Z+9	; 0x09
    2468:	72 85       	ldd	r23, Z+10	; 0x0a
    246a:	83 85       	ldd	r24, Z+11	; 0x0b
    246c:	94 85       	ldd	r25, Z+12	; 0x0c
    246e:	2a e0       	ldi	r18, 0x0A	; 10
    2470:	30 e0       	ldi	r19, 0x00	; 0
    2472:	40 e0       	ldi	r20, 0x00	; 0
    2474:	50 e0       	ldi	r21, 0x00	; 0
    2476:	0e 94 f3 1b 	call	0x37e6	; 0x37e6 <__divmodsi4>
    247a:	8e 81       	ldd	r24, Y+6	; 0x06
    247c:	9f 81       	ldd	r25, Y+7	; 0x07
    247e:	09 2e       	mov	r0, r25
    2480:	00 0c       	add	r0, r0
    2482:	aa 0b       	sbc	r26, r26
    2484:	bb 0b       	sbc	r27, r27
    2486:	28 17       	cp	r18, r24
    2488:	39 07       	cpc	r19, r25
    248a:	4a 07       	cpc	r20, r26
    248c:	5b 07       	cpc	r21, r27
    248e:	6c f4       	brge	.+26     	; 0x24aa <checkMinMax+0x124>
    2490:	f8 01       	movw	r30, r16
    2492:	61 85       	ldd	r22, Z+9	; 0x09
    2494:	72 85       	ldd	r23, Z+10	; 0x0a
    2496:	83 85       	ldd	r24, Z+11	; 0x0b
    2498:	94 85       	ldd	r25, Z+12	; 0x0c
    249a:	2a e0       	ldi	r18, 0x0A	; 10
    249c:	30 e0       	ldi	r19, 0x00	; 0
    249e:	40 e0       	ldi	r20, 0x00	; 0
    24a0:	50 e0       	ldi	r21, 0x00	; 0
    24a2:	0e 94 f3 1b 	call	0x37e6	; 0x37e6 <__divmodsi4>
    24a6:	3f 83       	std	Y+7, r19	; 0x07
    24a8:	2e 83       	std	Y+6, r18	; 0x06
    24aa:	f8 01       	movw	r30, r16
    24ac:	43 8d       	ldd	r20, Z+27	; 0x1b
    24ae:	54 8d       	ldd	r21, Z+28	; 0x1c
    24b0:	65 8d       	ldd	r22, Z+29	; 0x1d
    24b2:	76 8d       	ldd	r23, Z+30	; 0x1e
    24b4:	8c 8d       	ldd	r24, Y+28	; 0x1c
    24b6:	9d 8d       	ldd	r25, Y+29	; 0x1d
    24b8:	09 2e       	mov	r0, r25
    24ba:	00 0c       	add	r0, r0
    24bc:	aa 0b       	sbc	r26, r26
    24be:	bb 0b       	sbc	r27, r27
    24c0:	84 17       	cp	r24, r20
    24c2:	95 07       	cpc	r25, r21
    24c4:	a6 07       	cpc	r26, r22
    24c6:	b7 07       	cpc	r27, r23
    24c8:	34 f4       	brge	.+12     	; 0x24d6 <checkMinMax+0x150>
    24ca:	83 8d       	ldd	r24, Z+27	; 0x1b
    24cc:	94 8d       	ldd	r25, Z+28	; 0x1c
    24ce:	a5 8d       	ldd	r26, Z+29	; 0x1d
    24d0:	b6 8d       	ldd	r27, Z+30	; 0x1e
    24d2:	9d 8f       	std	Y+29, r25	; 0x1d
    24d4:	8c 8f       	std	Y+28, r24	; 0x1c
    24d6:	f8 01       	movw	r30, r16
    24d8:	43 8d       	ldd	r20, Z+27	; 0x1b
    24da:	54 8d       	ldd	r21, Z+28	; 0x1c
    24dc:	65 8d       	ldd	r22, Z+29	; 0x1d
    24de:	76 8d       	ldd	r23, Z+30	; 0x1e
    24e0:	8e 8d       	ldd	r24, Y+30	; 0x1e
    24e2:	9f 8d       	ldd	r25, Y+31	; 0x1f
    24e4:	09 2e       	mov	r0, r25
    24e6:	00 0c       	add	r0, r0
    24e8:	aa 0b       	sbc	r26, r26
    24ea:	bb 0b       	sbc	r27, r27
    24ec:	48 17       	cp	r20, r24
    24ee:	59 07       	cpc	r21, r25
    24f0:	6a 07       	cpc	r22, r26
    24f2:	7b 07       	cpc	r23, r27
    24f4:	34 f4       	brge	.+12     	; 0x2502 <checkMinMax+0x17c>
    24f6:	83 8d       	ldd	r24, Z+27	; 0x1b
    24f8:	94 8d       	ldd	r25, Z+28	; 0x1c
    24fa:	a5 8d       	ldd	r26, Z+29	; 0x1d
    24fc:	b6 8d       	ldd	r27, Z+30	; 0x1e
    24fe:	9f 8f       	std	Y+31, r25	; 0x1f
    2500:	8e 8f       	std	Y+30, r24	; 0x1e
    2502:	f8 01       	movw	r30, r16
    2504:	21 8d       	ldd	r18, Z+25	; 0x19
    2506:	32 8d       	ldd	r19, Z+26	; 0x1a
    2508:	8c 89       	ldd	r24, Y+20	; 0x14
    250a:	9d 89       	ldd	r25, Y+21	; 0x15
    250c:	82 17       	cp	r24, r18
    250e:	93 07       	cpc	r25, r19
    2510:	24 f4       	brge	.+8      	; 0x251a <checkMinMax+0x194>
    2512:	81 8d       	ldd	r24, Z+25	; 0x19
    2514:	92 8d       	ldd	r25, Z+26	; 0x1a
    2516:	9d 8b       	std	Y+21, r25	; 0x15
    2518:	8c 8b       	std	Y+20, r24	; 0x14
    251a:	f8 01       	movw	r30, r16
    251c:	21 8d       	ldd	r18, Z+25	; 0x19
    251e:	32 8d       	ldd	r19, Z+26	; 0x1a
    2520:	8e 89       	ldd	r24, Y+22	; 0x16
    2522:	9f 89       	ldd	r25, Y+23	; 0x17
    2524:	28 17       	cp	r18, r24
    2526:	39 07       	cpc	r19, r25
    2528:	24 f4       	brge	.+8      	; 0x2532 <checkMinMax+0x1ac>
    252a:	81 8d       	ldd	r24, Z+25	; 0x19
    252c:	92 8d       	ldd	r25, Z+26	; 0x1a
    252e:	9f 8b       	std	Y+23, r25	; 0x17
    2530:	8e 8b       	std	Y+22, r24	; 0x16
    2532:	df 91       	pop	r29
    2534:	cf 91       	pop	r28
    2536:	1f 91       	pop	r17
    2538:	0f 91       	pop	r16
    253a:	08 95       	ret

0000253c <cnfgSystemTimee_>:
    253c:	4f 92       	push	r4
    253e:	5f 92       	push	r5
    2540:	6f 92       	push	r6
    2542:	7f 92       	push	r7
    2544:	8f 92       	push	r8
    2546:	9f 92       	push	r9
    2548:	af 92       	push	r10
    254a:	bf 92       	push	r11
    254c:	cf 92       	push	r12
    254e:	df 92       	push	r13
    2550:	ef 92       	push	r14
    2552:	ff 92       	push	r15
    2554:	0f 93       	push	r16
    2556:	1f 93       	push	r17
    2558:	cf 93       	push	r28
    255a:	df 93       	push	r29
    255c:	00 d0       	rcall	.+0      	; 0x255e <cnfgSystemTimee_+0x22>
    255e:	1f 92       	push	r1
    2560:	cd b7       	in	r28, 0x3d	; 61
    2562:	de b7       	in	r29, 0x3e	; 62
    2564:	8c 01       	movw	r16, r24
    2566:	87 e1       	ldi	r24, 0x17	; 23
    2568:	89 83       	std	Y+1, r24	; 0x01
    256a:	8b e3       	ldi	r24, 0x3B	; 59
    256c:	8a 83       	std	Y+2, r24	; 0x02
    256e:	8b 83       	std	Y+3, r24	; 0x03
    2570:	86 e5       	ldi	r24, 0x56	; 86
    2572:	96 e0       	ldi	r25, 0x06	; 6
    2574:	0e 94 c3 0c 	call	0x1986	; 0x1986 <rtcGetData>
    2578:	0f 2e       	mov	r0, r31
    257a:	f6 e5       	ldi	r31, 0x56	; 86
    257c:	ef 2e       	mov	r14, r31
    257e:	f6 e0       	ldi	r31, 0x06	; 6
    2580:	ff 2e       	mov	r15, r31
    2582:	f0 2d       	mov	r31, r0
    2584:	f7 01       	movw	r30, r14
    2586:	82 81       	ldd	r24, Z+2	; 0x02
    2588:	0e 94 36 0c 	call	0x186c	; 0x186c <bcdToDec>
    258c:	f8 01       	movw	r30, r16
    258e:	80 83       	st	Z, r24
    2590:	f7 01       	movw	r30, r14
    2592:	81 81       	ldd	r24, Z+1	; 0x01
    2594:	0e 94 36 0c 	call	0x186c	; 0x186c <bcdToDec>
    2598:	f8 01       	movw	r30, r16
    259a:	81 83       	std	Z+1, r24	; 0x01
    259c:	f7 01       	movw	r30, r14
    259e:	80 81       	ld	r24, Z
    25a0:	0e 94 36 0c 	call	0x186c	; 0x186c <bcdToDec>
    25a4:	f8 01       	movw	r30, r16
    25a6:	82 83       	std	Z+2, r24	; 0x02
    25a8:	84 e5       	ldi	r24, 0x54	; 84
    25aa:	90 e0       	ldi	r25, 0x00	; 0
    25ac:	0e 94 ac 0e 	call	0x1d58	; 0x1d58 <Ssd1306SetFont>
    25b0:	40 e0       	ldi	r20, 0x00	; 0
    25b2:	60 e0       	ldi	r22, 0x00	; 0
    25b4:	82 ee       	ldi	r24, 0xE2	; 226
    25b6:	94 e0       	ldi	r25, 0x04	; 4
    25b8:	0e 94 5f 11 	call	0x22be	; 0x22be <Ssd1306PutString>
    25bc:	8a e3       	ldi	r24, 0x3A	; 58
    25be:	92 e0       	ldi	r25, 0x02	; 2
    25c0:	0e 94 ac 0e 	call	0x1d58	; 0x1d58 <Ssd1306SetFont>
    25c4:	f8 01       	movw	r30, r16
    25c6:	42 81       	ldd	r20, Z+2	; 0x02
    25c8:	61 81       	ldd	r22, Z+1	; 0x01
    25ca:	80 81       	ld	r24, Z
    25cc:	0e 94 c4 19 	call	0x3388	; 0x3388 <dec_ttostr>
    25d0:	40 e0       	ldi	r20, 0x00	; 0
    25d2:	69 e1       	ldi	r22, 0x19	; 25
    25d4:	0e 94 5f 11 	call	0x22be	; 0x22be <Ssd1306PutString>
    25d8:	80 91 2d 06 	lds	r24, 0x062D	; 0x80062d <flag>
    25dc:	80 fd       	sbrc	r24, 0
    25de:	dd c0       	rjmp	.+442    	; 0x279a <cnfgSystemTimee_+0x25e>
    25e0:	38 01       	movw	r6, r16
    25e2:	ce 01       	movw	r24, r28
    25e4:	01 96       	adiw	r24, 0x01	; 1
    25e6:	5c 01       	movw	r10, r24
    25e8:	41 2c       	mov	r4, r1
    25ea:	0f 2e       	mov	r0, r31
    25ec:	fd ea       	ldi	r31, 0xAD	; 173
    25ee:	cf 2e       	mov	r12, r31
    25f0:	f4 e0       	ldi	r31, 0x04	; 4
    25f2:	df 2e       	mov	r13, r31
    25f4:	f0 2d       	mov	r31, r0
    25f6:	0f 2e       	mov	r0, r31
    25f8:	f4 e3       	ldi	r31, 0x34	; 52
    25fa:	ef 2e       	mov	r14, r31
    25fc:	f6 e0       	ldi	r31, 0x06	; 6
    25fe:	ff 2e       	mov	r15, r31
    2600:	f0 2d       	mov	r31, r0
    2602:	43 01       	movw	r8, r6
    2604:	f3 01       	movw	r30, r6
    2606:	80 81       	ld	r24, Z
    2608:	f6 01       	movw	r30, r12
    260a:	50 88       	ldd	r5, Z+16	; 0x10
    260c:	58 0e       	add	r5, r24
    260e:	10 8a       	std	Z+16, r1	; 0x10
    2610:	f7 01       	movw	r30, r14
    2612:	80 81       	ld	r24, Z
    2614:	81 11       	cpse	r24, r1
    2616:	04 c0       	rjmp	.+8      	; 0x2620 <cnfgSystemTimee_+0xe4>
    2618:	81 81       	ldd	r24, Z+1	; 0x01
    261a:	81 11       	cpse	r24, r1
    261c:	08 c0       	rjmp	.+16     	; 0x262e <cnfgSystemTimee_+0xf2>
    261e:	0f c0       	rjmp	.+30     	; 0x263e <cnfgSystemTimee_+0x102>
    2620:	f7 01       	movw	r30, r14
    2622:	10 82       	st	Z, r1
    2624:	ac c0       	rjmp	.+344    	; 0x277e <cnfgSystemTimee_+0x242>
    2626:	f7 01       	movw	r30, r14
    2628:	81 81       	ldd	r24, Z+1	; 0x01
    262a:	88 23       	and	r24, r24
    262c:	41 f0       	breq	.+16     	; 0x263e <cnfgSystemTimee_+0x102>
    262e:	f7 01       	movw	r30, r14
    2630:	11 82       	std	Z+1, r1	; 0x01
    2632:	80 91 2d 06 	lds	r24, 0x062D	; 0x80062d <flag>
    2636:	81 60       	ori	r24, 0x01	; 1
    2638:	80 93 2d 06 	sts	0x062D, r24	; 0x80062d <flag>
    263c:	a0 c0       	rjmp	.+320    	; 0x277e <cnfgSystemTimee_+0x242>
    263e:	f5 01       	movw	r30, r10
    2640:	80 81       	ld	r24, Z
    2642:	58 16       	cp	r5, r24
    2644:	20 f0       	brcs	.+8      	; 0x264e <cnfgSystemTimee_+0x112>
    2646:	f4 01       	movw	r30, r8
    2648:	10 82       	st	Z, r1
    264a:	51 2c       	mov	r5, r1
    264c:	02 c0       	rjmp	.+4      	; 0x2652 <cnfgSystemTimee_+0x116>
    264e:	f4 01       	movw	r30, r8
    2650:	50 82       	st	Z, r5
    2652:	f8 94       	cli
    2654:	f1 e0       	ldi	r31, 0x01	; 1
    2656:	4f 16       	cp	r4, r31
    2658:	91 f1       	breq	.+100    	; 0x26be <cnfgSystemTimee_+0x182>
    265a:	4f 16       	cp	r4, r31
    265c:	28 f0       	brcs	.+10     	; 0x2668 <cnfgSystemTimee_+0x12c>
    265e:	22 e0       	ldi	r18, 0x02	; 2
    2660:	42 16       	cp	r4, r18
    2662:	09 f4       	brne	.+2      	; 0x2666 <cnfgSystemTimee_+0x12a>
    2664:	57 c0       	rjmp	.+174    	; 0x2714 <cnfgSystemTimee_+0x1d8>
    2666:	80 c0       	rjmp	.+256    	; 0x2768 <cnfgSystemTimee_+0x22c>
    2668:	f8 01       	movw	r30, r16
    266a:	42 81       	ldd	r20, Z+2	; 0x02
    266c:	61 81       	ldd	r22, Z+1	; 0x01
    266e:	80 81       	ld	r24, Z
    2670:	0e 94 c4 19 	call	0x3388	; 0x3388 <dec_ttostr>
    2674:	40 e0       	ldi	r20, 0x00	; 0
    2676:	69 e1       	ldi	r22, 0x19	; 25
    2678:	0e 94 5f 11 	call	0x22be	; 0x22be <Ssd1306PutString>
    267c:	0e 94 0b 0f 	call	0x1e16	; 0x1e16 <Ssd1306SendRam>
    2680:	ff ef       	ldi	r31, 0xFF	; 255
    2682:	20 e7       	ldi	r18, 0x70	; 112
    2684:	82 e0       	ldi	r24, 0x02	; 2
    2686:	f1 50       	subi	r31, 0x01	; 1
    2688:	20 40       	sbci	r18, 0x00	; 0
    268a:	80 40       	sbci	r24, 0x00	; 0
    268c:	e1 f7       	brne	.-8      	; 0x2686 <cnfgSystemTimee_+0x14a>
    268e:	00 c0       	rjmp	.+0      	; 0x2690 <cnfgSystemTimee_+0x154>
    2690:	00 00       	nop
    2692:	f8 01       	movw	r30, r16
    2694:	42 81       	ldd	r20, Z+2	; 0x02
    2696:	61 81       	ldd	r22, Z+1	; 0x01
    2698:	8f ef       	ldi	r24, 0xFF	; 255
    269a:	0e 94 c4 19 	call	0x3388	; 0x3388 <dec_ttostr>
    269e:	40 e0       	ldi	r20, 0x00	; 0
    26a0:	69 e1       	ldi	r22, 0x19	; 25
    26a2:	0e 94 5f 11 	call	0x22be	; 0x22be <Ssd1306PutString>
    26a6:	0e 94 0b 0f 	call	0x1e16	; 0x1e16 <Ssd1306SendRam>
    26aa:	ff ef       	ldi	r31, 0xFF	; 255
    26ac:	20 e7       	ldi	r18, 0x70	; 112
    26ae:	82 e0       	ldi	r24, 0x02	; 2
    26b0:	f1 50       	subi	r31, 0x01	; 1
    26b2:	20 40       	sbci	r18, 0x00	; 0
    26b4:	80 40       	sbci	r24, 0x00	; 0
    26b6:	e1 f7       	brne	.-8      	; 0x26b0 <cnfgSystemTimee_+0x174>
    26b8:	00 c0       	rjmp	.+0      	; 0x26ba <cnfgSystemTimee_+0x17e>
    26ba:	00 00       	nop
    26bc:	55 c0       	rjmp	.+170    	; 0x2768 <cnfgSystemTimee_+0x22c>
    26be:	f8 01       	movw	r30, r16
    26c0:	42 81       	ldd	r20, Z+2	; 0x02
    26c2:	61 81       	ldd	r22, Z+1	; 0x01
    26c4:	80 81       	ld	r24, Z
    26c6:	0e 94 c4 19 	call	0x3388	; 0x3388 <dec_ttostr>
    26ca:	40 e0       	ldi	r20, 0x00	; 0
    26cc:	69 e1       	ldi	r22, 0x19	; 25
    26ce:	0e 94 5f 11 	call	0x22be	; 0x22be <Ssd1306PutString>
    26d2:	0e 94 0b 0f 	call	0x1e16	; 0x1e16 <Ssd1306SendRam>
    26d6:	ff ef       	ldi	r31, 0xFF	; 255
    26d8:	20 e7       	ldi	r18, 0x70	; 112
    26da:	82 e0       	ldi	r24, 0x02	; 2
    26dc:	f1 50       	subi	r31, 0x01	; 1
    26de:	20 40       	sbci	r18, 0x00	; 0
    26e0:	80 40       	sbci	r24, 0x00	; 0
    26e2:	e1 f7       	brne	.-8      	; 0x26dc <cnfgSystemTimee_+0x1a0>
    26e4:	00 c0       	rjmp	.+0      	; 0x26e6 <cnfgSystemTimee_+0x1aa>
    26e6:	00 00       	nop
    26e8:	f8 01       	movw	r30, r16
    26ea:	42 81       	ldd	r20, Z+2	; 0x02
    26ec:	6f ef       	ldi	r22, 0xFF	; 255
    26ee:	80 81       	ld	r24, Z
    26f0:	0e 94 c4 19 	call	0x3388	; 0x3388 <dec_ttostr>
    26f4:	40 e0       	ldi	r20, 0x00	; 0
    26f6:	69 e1       	ldi	r22, 0x19	; 25
    26f8:	0e 94 5f 11 	call	0x22be	; 0x22be <Ssd1306PutString>
    26fc:	0e 94 0b 0f 	call	0x1e16	; 0x1e16 <Ssd1306SendRam>
    2700:	ff ef       	ldi	r31, 0xFF	; 255
    2702:	20 e7       	ldi	r18, 0x70	; 112
    2704:	82 e0       	ldi	r24, 0x02	; 2
    2706:	f1 50       	subi	r31, 0x01	; 1
    2708:	20 40       	sbci	r18, 0x00	; 0
    270a:	80 40       	sbci	r24, 0x00	; 0
    270c:	e1 f7       	brne	.-8      	; 0x2706 <cnfgSystemTimee_+0x1ca>
    270e:	00 c0       	rjmp	.+0      	; 0x2710 <cnfgSystemTimee_+0x1d4>
    2710:	00 00       	nop
    2712:	2a c0       	rjmp	.+84     	; 0x2768 <cnfgSystemTimee_+0x22c>
    2714:	f8 01       	movw	r30, r16
    2716:	42 81       	ldd	r20, Z+2	; 0x02
    2718:	61 81       	ldd	r22, Z+1	; 0x01
    271a:	80 81       	ld	r24, Z
    271c:	0e 94 c4 19 	call	0x3388	; 0x3388 <dec_ttostr>
    2720:	40 e0       	ldi	r20, 0x00	; 0
    2722:	69 e1       	ldi	r22, 0x19	; 25
    2724:	0e 94 5f 11 	call	0x22be	; 0x22be <Ssd1306PutString>
    2728:	0e 94 0b 0f 	call	0x1e16	; 0x1e16 <Ssd1306SendRam>
    272c:	ff ef       	ldi	r31, 0xFF	; 255
    272e:	20 e7       	ldi	r18, 0x70	; 112
    2730:	82 e0       	ldi	r24, 0x02	; 2
    2732:	f1 50       	subi	r31, 0x01	; 1
    2734:	20 40       	sbci	r18, 0x00	; 0
    2736:	80 40       	sbci	r24, 0x00	; 0
    2738:	e1 f7       	brne	.-8      	; 0x2732 <cnfgSystemTimee_+0x1f6>
    273a:	00 c0       	rjmp	.+0      	; 0x273c <cnfgSystemTimee_+0x200>
    273c:	00 00       	nop
    273e:	4f ef       	ldi	r20, 0xFF	; 255
    2740:	f8 01       	movw	r30, r16
    2742:	61 81       	ldd	r22, Z+1	; 0x01
    2744:	80 81       	ld	r24, Z
    2746:	0e 94 c4 19 	call	0x3388	; 0x3388 <dec_ttostr>
    274a:	40 e0       	ldi	r20, 0x00	; 0
    274c:	69 e1       	ldi	r22, 0x19	; 25
    274e:	0e 94 5f 11 	call	0x22be	; 0x22be <Ssd1306PutString>
    2752:	0e 94 0b 0f 	call	0x1e16	; 0x1e16 <Ssd1306SendRam>
    2756:	ff ef       	ldi	r31, 0xFF	; 255
    2758:	20 e7       	ldi	r18, 0x70	; 112
    275a:	82 e0       	ldi	r24, 0x02	; 2
    275c:	f1 50       	subi	r31, 0x01	; 1
    275e:	20 40       	sbci	r18, 0x00	; 0
    2760:	80 40       	sbci	r24, 0x00	; 0
    2762:	e1 f7       	brne	.-8      	; 0x275c <cnfgSystemTimee_+0x220>
    2764:	00 c0       	rjmp	.+0      	; 0x2766 <cnfgSystemTimee_+0x22a>
    2766:	00 00       	nop
    2768:	78 94       	sei
    276a:	f6 01       	movw	r30, r12
    276c:	80 89       	ldd	r24, Z+16	; 0x10
    276e:	58 0e       	add	r5, r24
    2770:	10 8a       	std	Z+16, r1	; 0x10
    2772:	f7 01       	movw	r30, r14
    2774:	80 81       	ld	r24, Z
    2776:	88 23       	and	r24, r24
    2778:	09 f4       	brne	.+2      	; 0x277c <cnfgSystemTimee_+0x240>
    277a:	55 cf       	rjmp	.-342    	; 0x2626 <cnfgSystemTimee_+0xea>
    277c:	51 cf       	rjmp	.-350    	; 0x2620 <cnfgSystemTimee_+0xe4>
    277e:	43 94       	inc	r4
    2780:	f3 e0       	ldi	r31, 0x03	; 3
    2782:	4f 16       	cp	r4, r31
    2784:	51 f0       	breq	.+20     	; 0x279a <cnfgSystemTimee_+0x25e>
    2786:	80 91 2d 06 	lds	r24, 0x062D	; 0x80062d <flag>
    278a:	2f ef       	ldi	r18, 0xFF	; 255
    278c:	62 1a       	sub	r6, r18
    278e:	72 0a       	sbc	r7, r18
    2790:	9f ef       	ldi	r25, 0xFF	; 255
    2792:	a9 1a       	sub	r10, r25
    2794:	b9 0a       	sbc	r11, r25
    2796:	80 ff       	sbrs	r24, 0
    2798:	34 cf       	rjmp	.-408    	; 0x2602 <cnfgSystemTimee_+0xc6>
    279a:	f8 01       	movw	r30, r16
    279c:	42 81       	ldd	r20, Z+2	; 0x02
    279e:	61 81       	ldd	r22, Z+1	; 0x01
    27a0:	80 81       	ld	r24, Z
    27a2:	0e 94 83 0c 	call	0x1906	; 0x1906 <rtcSetTime>
    27a6:	80 e0       	ldi	r24, 0x00	; 0
    27a8:	0f 90       	pop	r0
    27aa:	0f 90       	pop	r0
    27ac:	0f 90       	pop	r0
    27ae:	df 91       	pop	r29
    27b0:	cf 91       	pop	r28
    27b2:	1f 91       	pop	r17
    27b4:	0f 91       	pop	r16
    27b6:	ff 90       	pop	r15
    27b8:	ef 90       	pop	r14
    27ba:	df 90       	pop	r13
    27bc:	cf 90       	pop	r12
    27be:	bf 90       	pop	r11
    27c0:	af 90       	pop	r10
    27c2:	9f 90       	pop	r9
    27c4:	8f 90       	pop	r8
    27c6:	7f 90       	pop	r7
    27c8:	6f 90       	pop	r6
    27ca:	5f 90       	pop	r5
    27cc:	4f 90       	pop	r4
    27ce:	08 95       	ret

000027d0 <menueSystemTime>:
    27d0:	87 e8       	ldi	r24, 0x87	; 135
    27d2:	94 e0       	ldi	r25, 0x04	; 4
    27d4:	0e 94 9e 12 	call	0x253c	; 0x253c <cnfgSystemTimee_>
    27d8:	80 e0       	ldi	r24, 0x00	; 0
    27da:	08 95       	ret

000027dc <showMenue>:
    27dc:	3f 92       	push	r3
    27de:	4f 92       	push	r4
    27e0:	5f 92       	push	r5
    27e2:	6f 92       	push	r6
    27e4:	7f 92       	push	r7
    27e6:	8f 92       	push	r8
    27e8:	9f 92       	push	r9
    27ea:	af 92       	push	r10
    27ec:	bf 92       	push	r11
    27ee:	cf 92       	push	r12
    27f0:	df 92       	push	r13
    27f2:	ef 92       	push	r14
    27f4:	ff 92       	push	r15
    27f6:	1f 93       	push	r17
    27f8:	cf 93       	push	r28
    27fa:	df 93       	push	r29
    27fc:	00 d0       	rcall	.+0      	; 0x27fe <showMenue+0x22>
    27fe:	00 d0       	rcall	.+0      	; 0x2800 <showMenue+0x24>
    2800:	00 d0       	rcall	.+0      	; 0x2802 <showMenue+0x26>
    2802:	cd b7       	in	r28, 0x3d	; 61
    2804:	de b7       	in	r29, 0x3e	; 62
    2806:	6c 01       	movw	r12, r24
    2808:	7b 01       	movw	r14, r22
    280a:	5a 83       	std	Y+2, r21	; 0x02
    280c:	49 83       	std	Y+1, r20	; 0x01
    280e:	84 e5       	ldi	r24, 0x54	; 84
    2810:	90 e0       	ldi	r25, 0x00	; 0
    2812:	0e 94 ac 0e 	call	0x1d58	; 0x1d58 <Ssd1306SetFont>
    2816:	80 91 2d 06 	lds	r24, 0x062D	; 0x80062d <flag>
    281a:	8e 7f       	andi	r24, 0xFE	; 254
    281c:	80 93 2d 06 	sts	0x062D, r24	; 0x80062d <flag>
    2820:	41 2c       	mov	r4, r1
    2822:	89 80       	ldd	r8, Y+1	; 0x01
    2824:	9a 80       	ldd	r9, Y+2	; 0x02
    2826:	21 e0       	ldi	r18, 0x01	; 1
    2828:	82 1a       	sub	r8, r18
    282a:	91 08       	sbc	r9, r1
    282c:	39 81       	ldd	r19, Y+1	; 0x01
    282e:	31 50       	subi	r19, 0x01	; 1
    2830:	3c 83       	std	Y+4, r19	; 0x04
    2832:	49 81       	ldd	r20, Y+1	; 0x01
    2834:	45 50       	subi	r20, 0x05	; 5
    2836:	4b 83       	std	Y+3, r20	; 0x03
    2838:	51 2c       	mov	r5, r1
    283a:	0f 2e       	mov	r0, r31
    283c:	f6 e6       	ldi	r31, 0x66	; 102
    283e:	6f 2e       	mov	r6, r31
    2840:	f6 e0       	ldi	r31, 0x06	; 6
    2842:	7f 2e       	mov	r7, r31
    2844:	f0 2d       	mov	r31, r0
    2846:	0f 2e       	mov	r0, r31
    2848:	f4 e3       	ldi	r31, 0x34	; 52
    284a:	af 2e       	mov	r10, r31
    284c:	f6 e0       	ldi	r31, 0x06	; 6
    284e:	bf 2e       	mov	r11, r31
    2850:	f0 2d       	mov	r31, r0
    2852:	e4 c0       	rjmp	.+456    	; 0x2a1c <showMenue+0x240>
    2854:	d7 01       	movw	r26, r14
    2856:	50 96       	adiw	r26, 0x10	; 16
    2858:	8c 91       	ld	r24, X
    285a:	50 97       	sbiw	r26, 0x10	; 16
    285c:	82 30       	cpi	r24, 0x02	; 2
    285e:	24 f4       	brge	.+8      	; 0x2868 <showMenue+0x8c>
    2860:	e1 e0       	ldi	r30, 0x01	; 1
    2862:	50 96       	adiw	r26, 0x10	; 16
    2864:	ec 93       	st	X, r30
    2866:	0a c0       	rjmp	.+20     	; 0x287c <showMenue+0xa0>
    2868:	08 2e       	mov	r0, r24
    286a:	00 0c       	add	r0, r0
    286c:	99 0b       	sbc	r25, r25
    286e:	88 16       	cp	r8, r24
    2870:	99 06       	cpc	r9, r25
    2872:	20 f4       	brcc	.+8      	; 0x287c <showMenue+0xa0>
    2874:	ec 81       	ldd	r30, Y+4	; 0x04
    2876:	d7 01       	movw	r26, r14
    2878:	50 96       	adiw	r26, 0x10	; 16
    287a:	ec 93       	st	X, r30
    287c:	d7 01       	movw	r26, r14
    287e:	50 96       	adiw	r26, 0x10	; 16
    2880:	2c 91       	ld	r18, X
    2882:	3d ef       	ldi	r19, 0xFD	; 253
    2884:	32 0f       	add	r19, r18
    2886:	83 2f       	mov	r24, r19
    2888:	03 2e       	mov	r0, r19
    288a:	00 0c       	add	r0, r0
    288c:	99 0b       	sbc	r25, r25
    288e:	05 96       	adiw	r24, 0x05	; 5
    2890:	e9 81       	ldd	r30, Y+1	; 0x01
    2892:	fa 81       	ldd	r31, Y+2	; 0x02
    2894:	8e 17       	cp	r24, r30
    2896:	9f 07       	cpc	r25, r31
    2898:	08 f0       	brcs	.+2      	; 0x289c <showMenue+0xc0>
    289a:	3b 81       	ldd	r19, Y+3	; 0x03
    289c:	33 2e       	mov	r3, r19
    289e:	33 23       	and	r19, r19
    28a0:	0c f4       	brge	.+2      	; 0x28a4 <showMenue+0xc8>
    28a2:	35 2c       	mov	r3, r5
    28a4:	80 91 ca 05 	lds	r24, 0x05CA	; 0x8005ca <encWasMoved.2788>
    28a8:	90 e0       	ldi	r25, 0x00	; 0
    28aa:	42 2f       	mov	r20, r18
    28ac:	02 2e       	mov	r0, r18
    28ae:	00 0c       	add	r0, r0
    28b0:	55 0b       	sbc	r21, r21
    28b2:	84 17       	cp	r24, r20
    28b4:	95 07       	cpc	r25, r21
    28b6:	31 f0       	breq	.+12     	; 0x28c4 <showMenue+0xe8>
    28b8:	20 93 ca 05 	sts	0x05CA, r18	; 0x8005ca <encWasMoved.2788>
    28bc:	d3 01       	movw	r26, r6
    28be:	11 96       	adiw	r26, 0x01	; 1
    28c0:	1c 92       	st	X, r1
    28c2:	1e 92       	st	-X, r1
    28c4:	0e 94 b1 0e 	call	0x1d62	; 0x1d62 <Ssd1306ClearScreen>
    28c8:	45 2d       	mov	r20, r5
    28ca:	65 2d       	mov	r22, r5
    28cc:	f6 01       	movw	r30, r12
    28ce:	80 81       	ld	r24, Z
    28d0:	91 81       	ldd	r25, Z+1	; 0x01
    28d2:	0e 94 5f 11 	call	0x22be	; 0x22be <Ssd1306PutString>
    28d6:	0e 94 72 06 	call	0xce4	; 0xce4 <buildVer>
    28da:	45 2d       	mov	r20, r5
    28dc:	62 e3       	ldi	r22, 0x32	; 50
    28de:	0e 94 5f 11 	call	0x22be	; 0x22be <Ssd1306PutString>
    28e2:	33 94       	inc	r3
    28e4:	10 e1       	ldi	r17, 0x10	; 16
    28e6:	23 2d       	mov	r18, r3
    28e8:	30 e0       	ldi	r19, 0x00	; 0
    28ea:	3e 83       	std	Y+6, r19	; 0x06
    28ec:	2d 83       	std	Y+5, r18	; 0x05
    28ee:	49 81       	ldd	r20, Y+1	; 0x01
    28f0:	5a 81       	ldd	r21, Y+2	; 0x02
    28f2:	24 17       	cp	r18, r20
    28f4:	35 07       	cpc	r19, r21
    28f6:	c8 f5       	brcc	.+114    	; 0x296a <showMenue+0x18e>
    28f8:	d7 01       	movw	r26, r14
    28fa:	50 96       	adiw	r26, 0x10	; 16
    28fc:	2c 91       	ld	r18, X
    28fe:	83 2d       	mov	r24, r3
    2900:	90 e0       	ldi	r25, 0x00	; 0
    2902:	42 2f       	mov	r20, r18
    2904:	02 2e       	mov	r0, r18
    2906:	00 0c       	add	r0, r0
    2908:	55 0b       	sbc	r21, r21
    290a:	84 17       	cp	r24, r20
    290c:	95 07       	cpc	r25, r21
    290e:	d1 f4       	brne	.+52     	; 0x2944 <showMenue+0x168>
    2910:	42 2e       	mov	r4, r18
    2912:	45 2d       	mov	r20, r5
    2914:	61 2f       	mov	r22, r17
    2916:	85 ef       	ldi	r24, 0xF5	; 245
    2918:	94 e0       	ldi	r25, 0x04	; 4
    291a:	0e 94 5f 11 	call	0x22be	; 0x22be <Ssd1306PutString>
    291e:	8d 81       	ldd	r24, Y+5	; 0x05
    2920:	9e 81       	ldd	r25, Y+6	; 0x06
    2922:	88 0f       	add	r24, r24
    2924:	99 1f       	adc	r25, r25
    2926:	88 0f       	add	r24, r24
    2928:	99 1f       	adc	r25, r25
    292a:	ed 81       	ldd	r30, Y+5	; 0x05
    292c:	fe 81       	ldd	r31, Y+6	; 0x06
    292e:	e8 0f       	add	r30, r24
    2930:	f9 1f       	adc	r31, r25
    2932:	ec 0d       	add	r30, r12
    2934:	fd 1d       	adc	r31, r13
    2936:	4a e0       	ldi	r20, 0x0A	; 10
    2938:	61 2f       	mov	r22, r17
    293a:	80 81       	ld	r24, Z
    293c:	91 81       	ldd	r25, Z+1	; 0x01
    293e:	0e 94 5f 11 	call	0x22be	; 0x22be <Ssd1306PutString>
    2942:	13 c0       	rjmp	.+38     	; 0x296a <showMenue+0x18e>
    2944:	8d 81       	ldd	r24, Y+5	; 0x05
    2946:	9e 81       	ldd	r25, Y+6	; 0x06
    2948:	88 0f       	add	r24, r24
    294a:	99 1f       	adc	r25, r25
    294c:	88 0f       	add	r24, r24
    294e:	99 1f       	adc	r25, r25
    2950:	2d 81       	ldd	r18, Y+5	; 0x05
    2952:	3e 81       	ldd	r19, Y+6	; 0x06
    2954:	28 0f       	add	r18, r24
    2956:	39 1f       	adc	r19, r25
    2958:	2c 0d       	add	r18, r12
    295a:	3d 1d       	adc	r19, r13
    295c:	45 2d       	mov	r20, r5
    295e:	61 2f       	mov	r22, r17
    2960:	d9 01       	movw	r26, r18
    2962:	8d 91       	ld	r24, X+
    2964:	9c 91       	ld	r25, X
    2966:	0e 94 5f 11 	call	0x22be	; 0x22be <Ssd1306PutString>
    296a:	33 94       	inc	r3
    296c:	18 5f       	subi	r17, 0xF8	; 248
    296e:	10 33       	cpi	r17, 0x30	; 48
    2970:	09 f0       	breq	.+2      	; 0x2974 <showMenue+0x198>
    2972:	b9 cf       	rjmp	.-142    	; 0x28e6 <showMenue+0x10a>
    2974:	0e 94 0b 0f 	call	0x1e16	; 0x1e16 <Ssd1306SendRam>
    2978:	f5 01       	movw	r30, r10
    297a:	80 81       	ld	r24, Z
    297c:	88 23       	and	r24, r24
    297e:	09 f4       	brne	.+2      	; 0x2982 <showMenue+0x1a6>
    2980:	4d c0       	rjmp	.+154    	; 0x2a1c <showMenue+0x240>
    2982:	10 82       	st	Z, r1
    2984:	11 82       	std	Z+1, r1	; 0x01
    2986:	80 91 2d 06 	lds	r24, 0x062D	; 0x80062d <flag>
    298a:	8e 7f       	andi	r24, 0xFE	; 254
    298c:	80 93 2d 06 	sts	0x062D, r24	; 0x80062d <flag>
    2990:	0e 94 b1 0e 	call	0x1d62	; 0x1d62 <Ssd1306ClearScreen>
    2994:	0e 94 0b 0f 	call	0x1e16	; 0x1e16 <Ssd1306SendRam>
    2998:	84 2d       	mov	r24, r4
    299a:	90 e0       	ldi	r25, 0x00	; 0
    299c:	9c 01       	movw	r18, r24
    299e:	22 0f       	add	r18, r18
    29a0:	33 1f       	adc	r19, r19
    29a2:	22 0f       	add	r18, r18
    29a4:	33 1f       	adc	r19, r19
    29a6:	28 0f       	add	r18, r24
    29a8:	39 1f       	adc	r19, r25
    29aa:	2c 0d       	add	r18, r12
    29ac:	3d 1d       	adc	r19, r13
    29ae:	3e 83       	std	Y+6, r19	; 0x06
    29b0:	2d 83       	std	Y+5, r18	; 0x05
    29b2:	d9 01       	movw	r26, r18
    29b4:	12 96       	adiw	r26, 0x02	; 2
    29b6:	8d 91       	ld	r24, X+
    29b8:	9c 91       	ld	r25, X
    29ba:	13 97       	sbiw	r26, 0x03	; 3
    29bc:	89 2b       	or	r24, r25
    29be:	b9 f0       	breq	.+46     	; 0x29ee <showMenue+0x212>
    29c0:	f7 01       	movw	r30, r14
    29c2:	10 8a       	std	Z+16, r1	; 0x10
    29c4:	12 96       	adiw	r26, 0x02	; 2
    29c6:	ed 91       	ld	r30, X+
    29c8:	fc 91       	ld	r31, X
    29ca:	13 97       	sbiw	r26, 0x03	; 3
    29cc:	09 95       	icall
    29ce:	8f 3f       	cpi	r24, 0xFF	; 255
    29d0:	71 f4       	brne	.+28     	; 0x29ee <showMenue+0x212>
    29d2:	84 e5       	ldi	r24, 0x54	; 84
    29d4:	90 e0       	ldi	r25, 0x00	; 0
    29d6:	0e 94 ac 0e 	call	0x1d58	; 0x1d58 <Ssd1306SetFont>
    29da:	80 91 2d 06 	lds	r24, 0x062D	; 0x80062d <flag>
    29de:	8e 7f       	andi	r24, 0xFE	; 254
    29e0:	80 93 2d 06 	sts	0x062D, r24	; 0x80062d <flag>
    29e4:	e4 e3       	ldi	r30, 0x34	; 52
    29e6:	f6 e0       	ldi	r31, 0x06	; 6
    29e8:	10 82       	st	Z, r1
    29ea:	11 82       	std	Z+1, r1	; 0x01
    29ec:	1b c0       	rjmp	.+54     	; 0x2a24 <showMenue+0x248>
    29ee:	84 e5       	ldi	r24, 0x54	; 84
    29f0:	90 e0       	ldi	r25, 0x00	; 0
    29f2:	0e 94 ac 0e 	call	0x1d58	; 0x1d58 <Ssd1306SetFont>
    29f6:	80 91 2d 06 	lds	r24, 0x062D	; 0x80062d <flag>
    29fa:	8e 7f       	andi	r24, 0xFE	; 254
    29fc:	80 93 2d 06 	sts	0x062D, r24	; 0x80062d <flag>
    2a00:	d5 01       	movw	r26, r10
    2a02:	1c 92       	st	X, r1
    2a04:	11 96       	adiw	r26, 0x01	; 1
    2a06:	1c 92       	st	X, r1
    2a08:	0e 94 b1 0e 	call	0x1d62	; 0x1d62 <Ssd1306ClearScreen>
    2a0c:	0e 94 0b 0f 	call	0x1e16	; 0x1e16 <Ssd1306SendRam>
    2a10:	ed 81       	ldd	r30, Y+5	; 0x05
    2a12:	fe 81       	ldd	r31, Y+6	; 0x06
    2a14:	84 81       	ldd	r24, Z+4	; 0x04
    2a16:	d7 01       	movw	r26, r14
    2a18:	50 96       	adiw	r26, 0x10	; 16
    2a1a:	8c 93       	st	X, r24
    2a1c:	80 91 2d 06 	lds	r24, 0x062D	; 0x80062d <flag>
    2a20:	80 ff       	sbrs	r24, 0
    2a22:	18 cf       	rjmp	.-464    	; 0x2854 <showMenue+0x78>
    2a24:	0e 94 b1 0e 	call	0x1d62	; 0x1d62 <Ssd1306ClearScreen>
    2a28:	0e 94 0b 0f 	call	0x1e16	; 0x1e16 <Ssd1306SendRam>
    2a2c:	10 92 ed 05 	sts	0x05ED, r1	; 0x8005ed <showNewValues>
    2a30:	81 e0       	ldi	r24, 0x01	; 1
    2a32:	80 93 ec 05 	sts	0x05EC, r24	; 0x8005ec <showNewValues_>
    2a36:	80 e0       	ldi	r24, 0x00	; 0
    2a38:	26 96       	adiw	r28, 0x06	; 6
    2a3a:	0f b6       	in	r0, 0x3f	; 63
    2a3c:	f8 94       	cli
    2a3e:	de bf       	out	0x3e, r29	; 62
    2a40:	0f be       	out	0x3f, r0	; 63
    2a42:	cd bf       	out	0x3d, r28	; 61
    2a44:	df 91       	pop	r29
    2a46:	cf 91       	pop	r28
    2a48:	1f 91       	pop	r17
    2a4a:	ff 90       	pop	r15
    2a4c:	ef 90       	pop	r14
    2a4e:	df 90       	pop	r13
    2a50:	cf 90       	pop	r12
    2a52:	bf 90       	pop	r11
    2a54:	af 90       	pop	r10
    2a56:	9f 90       	pop	r9
    2a58:	8f 90       	pop	r8
    2a5a:	7f 90       	pop	r7
    2a5c:	6f 90       	pop	r6
    2a5e:	5f 90       	pop	r5
    2a60:	4f 90       	pop	r4
    2a62:	3f 90       	pop	r3
    2a64:	08 95       	ret

00002a66 <refreshDisplay>:
    2a66:	4f 92       	push	r4
    2a68:	5f 92       	push	r5
    2a6a:	6f 92       	push	r6
    2a6c:	7f 92       	push	r7
    2a6e:	8f 92       	push	r8
    2a70:	9f 92       	push	r9
    2a72:	af 92       	push	r10
    2a74:	bf 92       	push	r11
    2a76:	cf 92       	push	r12
    2a78:	df 92       	push	r13
    2a7a:	ef 92       	push	r14
    2a7c:	ff 92       	push	r15
    2a7e:	0f 93       	push	r16
    2a80:	1f 93       	push	r17
    2a82:	cf 93       	push	r28
    2a84:	df 93       	push	r29
    2a86:	80 91 55 06 	lds	r24, 0x0655	; 0x800655 <Sensor+0x1f>
    2a8a:	82 ff       	sbrs	r24, 2
    2a8c:	2e c1       	rjmp	.+604    	; 0x2cea <refreshDisplay+0x284>
    2a8e:	66 ed       	ldi	r22, 0xD6	; 214
    2a90:	75 e0       	ldi	r23, 0x05	; 5
    2a92:	84 ed       	ldi	r24, 0xD4	; 212
    2a94:	95 e0       	ldi	r25, 0x05	; 5
    2a96:	0e 94 16 0d 	call	0x1a2c	; 0x1a2c <Sht21Read>
    2a9a:	0e 94 2d 0a 	call	0x145a	; 0x145a <bmp180_get_uncomp_pressure>
    2a9e:	60 93 d0 05 	sts	0x05D0, r22	; 0x8005d0 <pressRaw>
    2aa2:	70 93 d1 05 	sts	0x05D1, r23	; 0x8005d1 <pressRaw+0x1>
    2aa6:	80 93 d2 05 	sts	0x05D2, r24	; 0x8005d2 <pressRaw+0x2>
    2aaa:	90 93 d3 05 	sts	0x05D3, r25	; 0x8005d3 <pressRaw+0x3>
    2aae:	0e 94 82 08 	call	0x1104	; 0x1104 <bmp180_get_pressure>
    2ab2:	60 93 d0 05 	sts	0x05D0, r22	; 0x8005d0 <pressRaw>
    2ab6:	70 93 d1 05 	sts	0x05D1, r23	; 0x8005d1 <pressRaw+0x1>
    2aba:	80 93 d2 05 	sts	0x05D2, r24	; 0x8005d2 <pressRaw+0x2>
    2abe:	90 93 d3 05 	sts	0x05D3, r25	; 0x8005d3 <pressRaw+0x3>
    2ac2:	0e 94 e3 09 	call	0x13c6	; 0x13c6 <bmp180_get_uncomp_temperature>
    2ac6:	bc 01       	movw	r22, r24
    2ac8:	80 e0       	ldi	r24, 0x00	; 0
    2aca:	90 e0       	ldi	r25, 0x00	; 0
    2acc:	60 93 cc 05 	sts	0x05CC, r22	; 0x8005cc <tempRaw>
    2ad0:	70 93 cd 05 	sts	0x05CD, r23	; 0x8005cd <tempRaw+0x1>
    2ad4:	80 93 ce 05 	sts	0x05CE, r24	; 0x8005ce <tempRaw+0x2>
    2ad8:	90 93 cf 05 	sts	0x05CF, r25	; 0x8005cf <tempRaw+0x3>
    2adc:	0e 94 16 08 	call	0x102c	; 0x102c <bmp180_get_temperature>
    2ae0:	09 2e       	mov	r0, r25
    2ae2:	00 0c       	add	r0, r0
    2ae4:	aa 0b       	sbc	r26, r26
    2ae6:	bb 0b       	sbc	r27, r27
    2ae8:	80 93 cc 05 	sts	0x05CC, r24	; 0x8005cc <tempRaw>
    2aec:	90 93 cd 05 	sts	0x05CD, r25	; 0x8005cd <tempRaw+0x1>
    2af0:	a0 93 ce 05 	sts	0x05CE, r26	; 0x8005ce <tempRaw+0x2>
    2af4:	b0 93 cf 05 	sts	0x05CF, r27	; 0x8005cf <tempRaw+0x3>
    2af8:	20 91 c9 05 	lds	r18, 0x05C9	; 0x8005c9 <avg.2807>
    2afc:	31 e0       	ldi	r19, 0x01	; 1
    2afe:	32 0f       	add	r19, r18
    2b00:	30 93 c9 05 	sts	0x05C9, r19	; 0x8005c9 <avg.2807>
    2b04:	25 30       	cpi	r18, 0x05	; 5
    2b06:	09 f0       	breq	.+2      	; 0x2b0a <refreshDisplay+0xa4>
    2b08:	a5 c0       	rjmp	.+330    	; 0x2c54 <refreshDisplay+0x1ee>
    2b0a:	10 92 c9 05 	sts	0x05C9, r1	; 0x8005c9 <avg.2807>
    2b0e:	c6 e3       	ldi	r28, 0x36	; 54
    2b10:	d6 e0       	ldi	r29, 0x06	; 6
    2b12:	69 81       	ldd	r22, Y+1	; 0x01
    2b14:	7a 81       	ldd	r23, Y+2	; 0x02
    2b16:	8b 81       	ldd	r24, Y+3	; 0x03
    2b18:	9c 81       	ldd	r25, Y+4	; 0x04
    2b1a:	2d ec       	ldi	r18, 0xCD	; 205
    2b1c:	3c ec       	ldi	r19, 0xCC	; 204
    2b1e:	4c ec       	ldi	r20, 0xCC	; 204
    2b20:	5c ec       	ldi	r21, 0xCC	; 204
    2b22:	0e 94 34 1c 	call	0x3868	; 0x3868 <__umulsidi3>
    2b26:	00 e2       	ldi	r16, 0x20	; 32
    2b28:	0e 94 61 1c 	call	0x38c2	; 0x38c2 <__lshrdi3>
    2b2c:	82 2e       	mov	r8, r18
    2b2e:	93 2e       	mov	r9, r19
    2b30:	a4 2e       	mov	r10, r20
    2b32:	b5 2e       	mov	r11, r21
    2b34:	b6 94       	lsr	r11
    2b36:	a7 94       	ror	r10
    2b38:	97 94       	ror	r9
    2b3a:	87 94       	ror	r8
    2b3c:	b6 94       	lsr	r11
    2b3e:	a7 94       	ror	r10
    2b40:	97 94       	ror	r9
    2b42:	87 94       	ror	r8
    2b44:	89 82       	std	Y+1, r8	; 0x01
    2b46:	9a 82       	std	Y+2, r9	; 0x02
    2b48:	ab 82       	std	Y+3, r10	; 0x03
    2b4a:	bc 82       	std	Y+4, r11	; 0x04
    2b4c:	6d 81       	ldd	r22, Y+5	; 0x05
    2b4e:	7e 81       	ldd	r23, Y+6	; 0x06
    2b50:	8f 81       	ldd	r24, Y+7	; 0x07
    2b52:	98 85       	ldd	r25, Y+8	; 0x08
    2b54:	0f 2e       	mov	r0, r31
    2b56:	f5 e0       	ldi	r31, 0x05	; 5
    2b58:	4f 2e       	mov	r4, r31
    2b5a:	51 2c       	mov	r5, r1
    2b5c:	61 2c       	mov	r6, r1
    2b5e:	71 2c       	mov	r7, r1
    2b60:	f0 2d       	mov	r31, r0
    2b62:	a3 01       	movw	r20, r6
    2b64:	92 01       	movw	r18, r4
    2b66:	0e 94 f3 1b 	call	0x37e6	; 0x37e6 <__divmodsi4>
    2b6a:	2d 83       	std	Y+5, r18	; 0x05
    2b6c:	3e 83       	std	Y+6, r19	; 0x06
    2b6e:	4f 83       	std	Y+7, r20	; 0x07
    2b70:	58 87       	std	Y+8, r21	; 0x08
    2b72:	6d 89       	ldd	r22, Y+21	; 0x15
    2b74:	7e 89       	ldd	r23, Y+22	; 0x16
    2b76:	8f 89       	ldd	r24, Y+23	; 0x17
    2b78:	98 8d       	ldd	r25, Y+24	; 0x18
    2b7a:	2d ec       	ldi	r18, 0xCD	; 205
    2b7c:	3c ec       	ldi	r19, 0xCC	; 204
    2b7e:	4c ec       	ldi	r20, 0xCC	; 204
    2b80:	5c ec       	ldi	r21, 0xCC	; 204
    2b82:	0e 94 34 1c 	call	0x3868	; 0x3868 <__umulsidi3>
    2b86:	0e 94 61 1c 	call	0x38c2	; 0x38c2 <__lshrdi3>
    2b8a:	82 2e       	mov	r8, r18
    2b8c:	93 2e       	mov	r9, r19
    2b8e:	a4 2e       	mov	r10, r20
    2b90:	b5 2e       	mov	r11, r21
    2b92:	b6 94       	lsr	r11
    2b94:	a7 94       	ror	r10
    2b96:	97 94       	ror	r9
    2b98:	87 94       	ror	r8
    2b9a:	b6 94       	lsr	r11
    2b9c:	a7 94       	ror	r10
    2b9e:	97 94       	ror	r9
    2ba0:	87 94       	ror	r8
    2ba2:	8d 8a       	std	Y+21, r8	; 0x15
    2ba4:	9e 8a       	std	Y+22, r9	; 0x16
    2ba6:	af 8a       	std	Y+23, r10	; 0x17
    2ba8:	b8 8e       	std	Y+24, r11	; 0x18
    2baa:	69 89       	ldd	r22, Y+17	; 0x11
    2bac:	7a 89       	ldd	r23, Y+18	; 0x12
    2bae:	8b 89       	ldd	r24, Y+19	; 0x13
    2bb0:	9c 89       	ldd	r25, Y+20	; 0x14
    2bb2:	a3 01       	movw	r20, r6
    2bb4:	92 01       	movw	r18, r4
    2bb6:	0e 94 f3 1b 	call	0x37e6	; 0x37e6 <__divmodsi4>
    2bba:	29 8b       	std	Y+17, r18	; 0x11
    2bbc:	3a 8b       	std	Y+18, r19	; 0x12
    2bbe:	4b 8b       	std	Y+19, r20	; 0x13
    2bc0:	5c 8b       	std	Y+20, r21	; 0x14
    2bc2:	89 81       	ldd	r24, Y+1	; 0x01
    2bc4:	9a 81       	ldd	r25, Y+2	; 0x02
    2bc6:	ab 81       	ldd	r26, Y+3	; 0x03
    2bc8:	bc 81       	ldd	r27, Y+4	; 0x04
    2bca:	8d 87       	std	Y+13, r24	; 0x0d
    2bcc:	9e 87       	std	Y+14, r25	; 0x0e
    2bce:	af 87       	std	Y+15, r26	; 0x0f
    2bd0:	b8 8b       	std	Y+16, r27	; 0x10
    2bd2:	8d 81       	ldd	r24, Y+5	; 0x05
    2bd4:	9e 81       	ldd	r25, Y+6	; 0x06
    2bd6:	af 81       	ldd	r26, Y+7	; 0x07
    2bd8:	b8 85       	ldd	r27, Y+8	; 0x08
    2bda:	89 87       	std	Y+9, r24	; 0x09
    2bdc:	9a 87       	std	Y+10, r25	; 0x0a
    2bde:	ab 87       	std	Y+11, r26	; 0x0b
    2be0:	bc 87       	std	Y+12, r27	; 0x0c
    2be2:	8d 89       	ldd	r24, Y+21	; 0x15
    2be4:	9e 89       	ldd	r25, Y+22	; 0x16
    2be6:	af 89       	ldd	r26, Y+23	; 0x17
    2be8:	b8 8d       	ldd	r27, Y+24	; 0x18
    2bea:	aa 27       	eor	r26, r26
    2bec:	bb 27       	eor	r27, r27
    2bee:	8b 8f       	std	Y+27, r24	; 0x1b
    2bf0:	9c 8f       	std	Y+28, r25	; 0x1c
    2bf2:	ad 8f       	std	Y+29, r26	; 0x1d
    2bf4:	be 8f       	std	Y+30, r27	; 0x1e
    2bf6:	89 89       	ldd	r24, Y+17	; 0x11
    2bf8:	9a 89       	ldd	r25, Y+18	; 0x12
    2bfa:	ab 89       	ldd	r26, Y+19	; 0x13
    2bfc:	bc 89       	ldd	r27, Y+20	; 0x14
    2bfe:	9a 8f       	std	Y+26, r25	; 0x1a
    2c00:	89 8f       	std	Y+25, r24	; 0x19
    2c02:	19 82       	std	Y+1, r1	; 0x01
    2c04:	1a 82       	std	Y+2, r1	; 0x02
    2c06:	1b 82       	std	Y+3, r1	; 0x03
    2c08:	1c 82       	std	Y+4, r1	; 0x04
    2c0a:	1d 82       	std	Y+5, r1	; 0x05
    2c0c:	1e 82       	std	Y+6, r1	; 0x06
    2c0e:	1f 82       	std	Y+7, r1	; 0x07
    2c10:	18 86       	std	Y+8, r1	; 0x08
    2c12:	1d 8a       	std	Y+21, r1	; 0x15
    2c14:	1e 8a       	std	Y+22, r1	; 0x16
    2c16:	1f 8a       	std	Y+23, r1	; 0x17
    2c18:	18 8e       	std	Y+24, r1	; 0x18
    2c1a:	19 8a       	std	Y+17, r1	; 0x11
    2c1c:	1a 8a       	std	Y+18, r1	; 0x12
    2c1e:	1b 8a       	std	Y+19, r1	; 0x13
    2c20:	1c 8a       	std	Y+20, r1	; 0x14
    2c22:	80 91 c8 05 	lds	r24, 0x05C8	; 0x8005c8 <firstRead.2808>
    2c26:	82 30       	cpi	r24, 0x02	; 2
    2c28:	20 f4       	brcc	.+8      	; 0x2c32 <refreshDisplay+0x1cc>
    2c2a:	8f 5f       	subi	r24, 0xFF	; 255
    2c2c:	80 93 c8 05 	sts	0x05C8, r24	; 0x8005c8 <firstRead.2808>
    2c30:	57 c0       	rjmp	.+174    	; 0x2ce0 <refreshDisplay+0x27a>
    2c32:	6d e8       	ldi	r22, 0x8D	; 141
    2c34:	74 e0       	ldi	r23, 0x04	; 4
    2c36:	86 e3       	ldi	r24, 0x36	; 54
    2c38:	96 e0       	ldi	r25, 0x06	; 6
    2c3a:	0e 94 c3 11 	call	0x2386	; 0x2386 <checkMinMax>
    2c3e:	10 92 ed 05 	sts	0x05ED, r1	; 0x8005ed <showNewValues>
    2c42:	81 e0       	ldi	r24, 0x01	; 1
    2c44:	80 93 ec 05 	sts	0x05EC, r24	; 0x8005ec <showNewValues_>
    2c48:	e6 e3       	ldi	r30, 0x36	; 54
    2c4a:	f6 e0       	ldi	r31, 0x06	; 6
    2c4c:	87 8d       	ldd	r24, Z+31	; 0x1f
    2c4e:	88 63       	ori	r24, 0x38	; 56
    2c50:	87 8f       	std	Z+31, r24	; 0x1f
    2c52:	46 c0       	rjmp	.+140    	; 0x2ce0 <refreshDisplay+0x27a>
    2c54:	e6 e3       	ldi	r30, 0x36	; 54
    2c56:	f6 e0       	ldi	r31, 0x06	; 6
    2c58:	01 81       	ldd	r16, Z+1	; 0x01
    2c5a:	12 81       	ldd	r17, Z+2	; 0x02
    2c5c:	23 81       	ldd	r18, Z+3	; 0x03
    2c5e:	34 81       	ldd	r19, Z+4	; 0x04
    2c60:	40 91 d0 05 	lds	r20, 0x05D0	; 0x8005d0 <pressRaw>
    2c64:	50 91 d1 05 	lds	r21, 0x05D1	; 0x8005d1 <pressRaw+0x1>
    2c68:	60 91 d2 05 	lds	r22, 0x05D2	; 0x8005d2 <pressRaw+0x2>
    2c6c:	70 91 d3 05 	lds	r23, 0x05D3	; 0x8005d3 <pressRaw+0x3>
    2c70:	40 0f       	add	r20, r16
    2c72:	51 1f       	adc	r21, r17
    2c74:	62 1f       	adc	r22, r18
    2c76:	73 1f       	adc	r23, r19
    2c78:	41 83       	std	Z+1, r20	; 0x01
    2c7a:	52 83       	std	Z+2, r21	; 0x02
    2c7c:	63 83       	std	Z+3, r22	; 0x03
    2c7e:	74 83       	std	Z+4, r23	; 0x04
    2c80:	45 81       	ldd	r20, Z+5	; 0x05
    2c82:	56 81       	ldd	r21, Z+6	; 0x06
    2c84:	67 81       	ldd	r22, Z+7	; 0x07
    2c86:	70 85       	ldd	r23, Z+8	; 0x08
    2c88:	84 0f       	add	r24, r20
    2c8a:	95 1f       	adc	r25, r21
    2c8c:	a6 1f       	adc	r26, r22
    2c8e:	b7 1f       	adc	r27, r23
    2c90:	85 83       	std	Z+5, r24	; 0x05
    2c92:	96 83       	std	Z+6, r25	; 0x06
    2c94:	a7 83       	std	Z+7, r26	; 0x07
    2c96:	b0 87       	std	Z+8, r27	; 0x08
    2c98:	85 89       	ldd	r24, Z+21	; 0x15
    2c9a:	96 89       	ldd	r25, Z+22	; 0x16
    2c9c:	a7 89       	ldd	r26, Z+23	; 0x17
    2c9e:	b0 8d       	ldd	r27, Z+24	; 0x18
    2ca0:	20 91 d6 05 	lds	r18, 0x05D6	; 0x8005d6 <humidity_>
    2ca4:	30 91 d7 05 	lds	r19, 0x05D7	; 0x8005d7 <humidity_+0x1>
    2ca8:	82 0f       	add	r24, r18
    2caa:	93 1f       	adc	r25, r19
    2cac:	a1 1d       	adc	r26, r1
    2cae:	b1 1d       	adc	r27, r1
    2cb0:	85 8b       	std	Z+21, r24	; 0x15
    2cb2:	96 8b       	std	Z+22, r25	; 0x16
    2cb4:	a7 8b       	std	Z+23, r26	; 0x17
    2cb6:	b0 8f       	std	Z+24, r27	; 0x18
    2cb8:	41 89       	ldd	r20, Z+17	; 0x11
    2cba:	52 89       	ldd	r21, Z+18	; 0x12
    2cbc:	63 89       	ldd	r22, Z+19	; 0x13
    2cbe:	74 89       	ldd	r23, Z+20	; 0x14
    2cc0:	80 91 d4 05 	lds	r24, 0x05D4	; 0x8005d4 <temp_>
    2cc4:	90 91 d5 05 	lds	r25, 0x05D5	; 0x8005d5 <temp_+0x1>
    2cc8:	09 2e       	mov	r0, r25
    2cca:	00 0c       	add	r0, r0
    2ccc:	aa 0b       	sbc	r26, r26
    2cce:	bb 0b       	sbc	r27, r27
    2cd0:	84 0f       	add	r24, r20
    2cd2:	95 1f       	adc	r25, r21
    2cd4:	a6 1f       	adc	r26, r22
    2cd6:	b7 1f       	adc	r27, r23
    2cd8:	81 8b       	std	Z+17, r24	; 0x11
    2cda:	92 8b       	std	Z+18, r25	; 0x12
    2cdc:	a3 8b       	std	Z+19, r26	; 0x13
    2cde:	b4 8b       	std	Z+20, r27	; 0x14
    2ce0:	e6 e3       	ldi	r30, 0x36	; 54
    2ce2:	f6 e0       	ldi	r31, 0x06	; 6
    2ce4:	87 8d       	ldd	r24, Z+31	; 0x1f
    2ce6:	8b 7f       	andi	r24, 0xFB	; 251
    2ce8:	87 8f       	std	Z+31, r24	; 0x1f
    2cea:	80 91 55 06 	lds	r24, 0x0655	; 0x800655 <Sensor+0x1f>
    2cee:	84 ff       	sbrs	r24, 4
    2cf0:	bd c0       	rjmp	.+378    	; 0x2e6c <refreshDisplay+0x406>
    2cf2:	80 91 8c 04 	lds	r24, 0x048C	; 0x80048c <clearNew>
    2cf6:	90 91 ee 05 	lds	r25, 0x05EE	; 0x8005ee <clearOld>
    2cfa:	98 17       	cp	r25, r24
    2cfc:	59 f0       	breq	.+22     	; 0x2d14 <refreshDisplay+0x2ae>
    2cfe:	80 93 ee 05 	sts	0x05EE, r24	; 0x8005ee <clearOld>
    2d02:	85 e0       	ldi	r24, 0x05	; 5
    2d04:	0e 94 ac 11 	call	0x2358	; 0x2358 <clearLine>
    2d08:	86 e0       	ldi	r24, 0x06	; 6
    2d0a:	0e 94 ac 11 	call	0x2358	; 0x2358 <clearLine>
    2d0e:	87 e0       	ldi	r24, 0x07	; 7
    2d10:	0e 94 ac 11 	call	0x2358	; 0x2358 <clearLine>
    2d14:	80 91 ec 05 	lds	r24, 0x05EC	; 0x8005ec <showNewValues_>
    2d18:	90 91 ed 05 	lds	r25, 0x05ED	; 0x8005ed <showNewValues>
    2d1c:	98 17       	cp	r25, r24
    2d1e:	09 f4       	brne	.+2      	; 0x2d22 <refreshDisplay+0x2bc>
    2d20:	b6 c0       	rjmp	.+364    	; 0x2e8e <refreshDisplay+0x428>
    2d22:	80 93 ed 05 	sts	0x05ED, r24	; 0x8005ed <showNewValues>
    2d26:	84 e5       	ldi	r24, 0x54	; 84
    2d28:	90 e0       	ldi	r25, 0x00	; 0
    2d2a:	0e 94 ac 0e 	call	0x1d58	; 0x1d58 <Ssd1306SetFont>
    2d2e:	80 91 51 06 	lds	r24, 0x0651	; 0x800651 <Sensor+0x1b>
    2d32:	90 91 52 06 	lds	r25, 0x0652	; 0x800652 <Sensor+0x1c>
    2d36:	a0 91 53 06 	lds	r26, 0x0653	; 0x800653 <Sensor+0x1d>
    2d3a:	b0 91 54 06 	lds	r27, 0x0654	; 0x800654 <Sensor+0x1e>
    2d3e:	84 36       	cpi	r24, 0x64	; 100
    2d40:	91 05       	cpc	r25, r1
    2d42:	a1 05       	cpc	r26, r1
    2d44:	b1 05       	cpc	r27, r1
    2d46:	60 f0       	brcs	.+24     	; 0x2d60 <refreshDisplay+0x2fa>
    2d48:	84 e6       	ldi	r24, 0x64	; 100
    2d4a:	90 e0       	ldi	r25, 0x00	; 0
    2d4c:	a0 e0       	ldi	r26, 0x00	; 0
    2d4e:	b0 e0       	ldi	r27, 0x00	; 0
    2d50:	80 93 51 06 	sts	0x0651, r24	; 0x800651 <Sensor+0x1b>
    2d54:	90 93 52 06 	sts	0x0652, r25	; 0x800652 <Sensor+0x1c>
    2d58:	a0 93 53 06 	sts	0x0653, r26	; 0x800653 <Sensor+0x1d>
    2d5c:	b0 93 54 06 	sts	0x0654, r27	; 0x800654 <Sensor+0x1e>
    2d60:	06 e3       	ldi	r16, 0x36	; 54
    2d62:	16 e0       	ldi	r17, 0x06	; 6
    2d64:	f8 01       	movw	r30, r16
    2d66:	65 85       	ldd	r22, Z+13	; 0x0d
    2d68:	76 85       	ldd	r23, Z+14	; 0x0e
    2d6a:	87 85       	ldd	r24, Z+15	; 0x0f
    2d6c:	90 89       	ldd	r25, Z+16	; 0x10
    2d6e:	24 e6       	ldi	r18, 0x64	; 100
    2d70:	30 e0       	ldi	r19, 0x00	; 0
    2d72:	40 e0       	ldi	r20, 0x00	; 0
    2d74:	50 e0       	ldi	r21, 0x00	; 0
    2d76:	0e 94 d1 1b 	call	0x37a2	; 0x37a2 <__udivmodsi4>
    2d7a:	da 01       	movw	r26, r20
    2d7c:	c9 01       	movw	r24, r18
    2d7e:	4a e0       	ldi	r20, 0x0A	; 10
    2d80:	60 ec       	ldi	r22, 0xC0	; 192
    2d82:	75 e0       	ldi	r23, 0x05	; 5
    2d84:	0e 94 91 1c 	call	0x3922	; 0x3922 <__itoa_ncheck>
    2d88:	c8 ed       	ldi	r28, 0xD8	; 216
    2d8a:	d5 e0       	ldi	r29, 0x05	; 5
    2d8c:	8c e0       	ldi	r24, 0x0C	; 12
    2d8e:	e8 ef       	ldi	r30, 0xF8	; 248
    2d90:	f4 e0       	ldi	r31, 0x04	; 4
    2d92:	de 01       	movw	r26, r28
    2d94:	01 90       	ld	r0, Z+
    2d96:	0d 92       	st	X+, r0
    2d98:	8a 95       	dec	r24
    2d9a:	e1 f7       	brne	.-8      	; 0x2d94 <refreshDisplay+0x32e>
    2d9c:	60 ec       	ldi	r22, 0xC0	; 192
    2d9e:	75 e0       	ldi	r23, 0x05	; 5
    2da0:	ce 01       	movw	r24, r28
    2da2:	0e 94 86 1c 	call	0x390c	; 0x390c <strcat>
    2da6:	de 01       	movw	r26, r28
    2da8:	0d 90       	ld	r0, X+
    2daa:	00 20       	and	r0, r0
    2dac:	e9 f7       	brne	.-6      	; 0x2da8 <refreshDisplay+0x342>
    2dae:	11 97       	sbiw	r26, 0x01	; 1
    2db0:	85 e0       	ldi	r24, 0x05	; 5
    2db2:	e4 e0       	ldi	r30, 0x04	; 4
    2db4:	f5 e0       	ldi	r31, 0x05	; 5
    2db6:	01 90       	ld	r0, Z+
    2db8:	0d 92       	st	X+, r0
    2dba:	8a 95       	dec	r24
    2dbc:	e1 f7       	brne	.-8      	; 0x2db6 <refreshDisplay+0x350>
    2dbe:	40 e0       	ldi	r20, 0x00	; 0
    2dc0:	63 e2       	ldi	r22, 0x23	; 35
    2dc2:	ce 01       	movw	r24, r28
    2dc4:	0e 94 5f 11 	call	0x22be	; 0x22be <Ssd1306PutString>
    2dc8:	f8 01       	movw	r30, r16
    2dca:	83 8d       	ldd	r24, Z+27	; 0x1b
    2dcc:	94 8d       	ldd	r25, Z+28	; 0x1c
    2dce:	a5 8d       	ldd	r26, Z+29	; 0x1d
    2dd0:	b6 8d       	ldd	r27, Z+30	; 0x1e
    2dd2:	4a e0       	ldi	r20, 0x0A	; 10
    2dd4:	60 ec       	ldi	r22, 0xC0	; 192
    2dd6:	75 e0       	ldi	r23, 0x05	; 5
    2dd8:	0e 94 91 1c 	call	0x3922	; 0x3922 <__itoa_ncheck>
    2ddc:	8c e0       	ldi	r24, 0x0C	; 12
    2dde:	e9 e0       	ldi	r30, 0x09	; 9
    2de0:	f5 e0       	ldi	r31, 0x05	; 5
    2de2:	de 01       	movw	r26, r28
    2de4:	01 90       	ld	r0, Z+
    2de6:	0d 92       	st	X+, r0
    2de8:	8a 95       	dec	r24
    2dea:	e1 f7       	brne	.-8      	; 0x2de4 <refreshDisplay+0x37e>
    2dec:	60 ec       	ldi	r22, 0xC0	; 192
    2dee:	75 e0       	ldi	r23, 0x05	; 5
    2df0:	ce 01       	movw	r24, r28
    2df2:	0e 94 86 1c 	call	0x390c	; 0x390c <strcat>
    2df6:	fe 01       	movw	r30, r28
    2df8:	01 90       	ld	r0, Z+
    2dfa:	00 20       	and	r0, r0
    2dfc:	e9 f7       	brne	.-6      	; 0x2df8 <refreshDisplay+0x392>
    2dfe:	31 97       	sbiw	r30, 0x01	; 1
    2e00:	80 e2       	ldi	r24, 0x20	; 32
    2e02:	95 e2       	ldi	r25, 0x25	; 37
    2e04:	91 83       	std	Z+1, r25	; 0x01
    2e06:	80 83       	st	Z, r24
    2e08:	80 e2       	ldi	r24, 0x20	; 32
    2e0a:	90 e0       	ldi	r25, 0x00	; 0
    2e0c:	93 83       	std	Z+3, r25	; 0x03
    2e0e:	82 83       	std	Z+2, r24	; 0x02
    2e10:	40 e0       	ldi	r20, 0x00	; 0
    2e12:	6d e2       	ldi	r22, 0x2D	; 45
    2e14:	ce 01       	movw	r24, r28
    2e16:	0e 94 5f 11 	call	0x22be	; 0x22be <Ssd1306PutString>
    2e1a:	f8 01       	movw	r30, r16
    2e1c:	81 8d       	ldd	r24, Z+25	; 0x19
    2e1e:	92 8d       	ldd	r25, Z+26	; 0x1a
    2e20:	4a e0       	ldi	r20, 0x0A	; 10
    2e22:	60 ec       	ldi	r22, 0xC0	; 192
    2e24:	75 e0       	ldi	r23, 0x05	; 5
    2e26:	0e 94 91 1c 	call	0x3922	; 0x3922 <__itoa_ncheck>
    2e2a:	8c e0       	ldi	r24, 0x0C	; 12
    2e2c:	e5 e1       	ldi	r30, 0x15	; 21
    2e2e:	f5 e0       	ldi	r31, 0x05	; 5
    2e30:	de 01       	movw	r26, r28
    2e32:	01 90       	ld	r0, Z+
    2e34:	0d 92       	st	X+, r0
    2e36:	8a 95       	dec	r24
    2e38:	e1 f7       	brne	.-8      	; 0x2e32 <refreshDisplay+0x3cc>
    2e3a:	60 ec       	ldi	r22, 0xC0	; 192
    2e3c:	75 e0       	ldi	r23, 0x05	; 5
    2e3e:	ce 01       	movw	r24, r28
    2e40:	0e 94 86 1c 	call	0x390c	; 0x390c <strcat>
    2e44:	de 01       	movw	r26, r28
    2e46:	0d 90       	ld	r0, X+
    2e48:	00 20       	and	r0, r0
    2e4a:	e9 f7       	brne	.-6      	; 0x2e46 <refreshDisplay+0x3e0>
    2e4c:	11 97       	sbiw	r26, 0x01	; 1
    2e4e:	87 e0       	ldi	r24, 0x07	; 7
    2e50:	e1 e2       	ldi	r30, 0x21	; 33
    2e52:	f5 e0       	ldi	r31, 0x05	; 5
    2e54:	01 90       	ld	r0, Z+
    2e56:	0d 92       	st	X+, r0
    2e58:	8a 95       	dec	r24
    2e5a:	e1 f7       	brne	.-8      	; 0x2e54 <refreshDisplay+0x3ee>
    2e5c:	40 e0       	ldi	r20, 0x00	; 0
    2e5e:	67 e3       	ldi	r22, 0x37	; 55
    2e60:	ce 01       	movw	r24, r28
    2e62:	0e 94 5f 11 	call	0x22be	; 0x22be <Ssd1306PutString>
    2e66:	0e 94 0b 0f 	call	0x1e16	; 0x1e16 <Ssd1306SendRam>
    2e6a:	11 c0       	rjmp	.+34     	; 0x2e8e <refreshDisplay+0x428>
    2e6c:	84 e5       	ldi	r24, 0x54	; 84
    2e6e:	90 e0       	ldi	r25, 0x00	; 0
    2e70:	0e 94 ac 0e 	call	0x1d58	; 0x1d58 <Ssd1306SetFont>
    2e74:	44 e1       	ldi	r20, 0x14	; 20
    2e76:	62 e3       	ldi	r22, 0x32	; 50
    2e78:	88 e2       	ldi	r24, 0x28	; 40
    2e7a:	95 e0       	ldi	r25, 0x05	; 5
    2e7c:	0e 94 5f 11 	call	0x22be	; 0x22be <Ssd1306PutString>
    2e80:	0e 94 0b 0f 	call	0x1e16	; 0x1e16 <Ssd1306SendRam>
    2e84:	10 92 ee 05 	sts	0x05EE, r1	; 0x8005ee <clearOld>
    2e88:	81 e0       	ldi	r24, 0x01	; 1
    2e8a:	80 93 8c 04 	sts	0x048C, r24	; 0x80048c <clearNew>
    2e8e:	df 91       	pop	r29
    2e90:	cf 91       	pop	r28
    2e92:	1f 91       	pop	r17
    2e94:	0f 91       	pop	r16
    2e96:	ff 90       	pop	r15
    2e98:	ef 90       	pop	r14
    2e9a:	df 90       	pop	r13
    2e9c:	cf 90       	pop	r12
    2e9e:	bf 90       	pop	r11
    2ea0:	af 90       	pop	r10
    2ea2:	9f 90       	pop	r9
    2ea4:	8f 90       	pop	r8
    2ea6:	7f 90       	pop	r7
    2ea8:	6f 90       	pop	r6
    2eaa:	5f 90       	pop	r5
    2eac:	4f 90       	pop	r4
    2eae:	08 95       	ret

00002eb0 <get_key_press>:
    2eb0:	f8 94       	cli
    2eb2:	e2 e6       	ldi	r30, 0x62	; 98
    2eb4:	f6 e0       	ldi	r31, 0x06	; 6
    2eb6:	90 81       	ld	r25, Z
    2eb8:	89 23       	and	r24, r25
    2eba:	90 81       	ld	r25, Z
    2ebc:	98 27       	eor	r25, r24
    2ebe:	90 83       	st	Z, r25
    2ec0:	78 94       	sei
    2ec2:	08 95       	ret

00002ec4 <get_key_rpt>:
    2ec4:	f8 94       	cli
    2ec6:	e2 e6       	ldi	r30, 0x62	; 98
    2ec8:	f6 e0       	ldi	r31, 0x06	; 6
    2eca:	92 81       	ldd	r25, Z+2	; 0x02
    2ecc:	89 23       	and	r24, r25
    2ece:	92 81       	ldd	r25, Z+2	; 0x02
    2ed0:	98 27       	eor	r25, r24
    2ed2:	92 83       	std	Z+2, r25	; 0x02
    2ed4:	78 94       	sei
    2ed6:	08 95       	ret

00002ed8 <eepIsInit>:
	return MENUE_EXIT;
}

uint8_t eepIsInit				( void )
{
	if ( eeprom_read_byte( &eepInit) == 0xAA )
    2ed8:	80 e0       	ldi	r24, 0x00	; 0
    2eda:	90 e0       	ldi	r25, 0x00	; 0
    2edc:	0e 94 c6 1c 	call	0x398c	; 0x398c <eeprom_read_byte>
    2ee0:	91 e0       	ldi	r25, 0x01	; 1
    2ee2:	8a 3a       	cpi	r24, 0xAA	; 170
    2ee4:	09 f4       	brne	.+2      	; 0x2ee8 <eepIsInit+0x10>
    2ee6:	90 e0       	ldi	r25, 0x00	; 0
	{
		return 0;
	}
	
	return 1;
}
    2ee8:	89 2f       	mov	r24, r25
    2eea:	08 95       	ret

00002eec <eepReload>:

void	eepReload				( void )
{
	if ( eepIsInit() )
    2eec:	0e 94 6c 17 	call	0x2ed8	; 0x2ed8 <eepIsInit>
    2ef0:	88 23       	and	r24, r24
    2ef2:	59 f0       	breq	.+22     	; 0x2f0a <eepReload+0x1e>
	{
		eeprom_write_word( &operatingEEP.hours , 0 );
    2ef4:	60 e0       	ldi	r22, 0x00	; 0
    2ef6:	70 e0       	ldi	r23, 0x00	; 0
    2ef8:	82 e0       	ldi	r24, 0x02	; 2
    2efa:	90 e0       	ldi	r25, 0x00	; 0
    2efc:	0e 94 e7 1c 	call	0x39ce	; 0x39ce <eeprom_write_word>
		eeprom_write_byte( &eepInit , 0xAA );
    2f00:	6a ea       	ldi	r22, 0xAA	; 170
    2f02:	80 e0       	ldi	r24, 0x00	; 0
    2f04:	90 e0       	ldi	r25, 0x00	; 0
    2f06:	0e 94 da 1c 	call	0x39b4	; 0x39b4 <eeprom_write_byte>
	}
	
	operating.hours = eeprom_read_word( &operatingEEP.hours );
    2f0a:	82 e0       	ldi	r24, 0x02	; 2
    2f0c:	90 e0       	ldi	r25, 0x00	; 0
    2f0e:	0e 94 ce 1c 	call	0x399c	; 0x399c <eeprom_read_word>
    2f12:	90 93 2f 06 	sts	0x062F, r25	; 0x80062f <operating+0x1>
    2f16:	80 93 2e 06 	sts	0x062E, r24	; 0x80062e <operating>
	ram.brightness	= eeprom_read_byte( &eep.brightness );
    2f1a:	81 e0       	ldi	r24, 0x01	; 1
    2f1c:	90 e0       	ldi	r25, 0x00	; 0
    2f1e:	0e 94 c6 1c 	call	0x398c	; 0x398c <eeprom_read_byte>
    2f22:	80 93 65 06 	sts	0x0665, r24	; 0x800665 <ram>
    2f26:	08 95       	ret

00002f28 <updateLiveLed>:

void	updateLiveLed			( uint16_t *mil )
{
	#define CALC_LIVE(x) (x*1)
	
	if ( *mil < CALC_LIVE(2) )
    2f28:	fc 01       	movw	r30, r24
    2f2a:	20 81       	ld	r18, Z
    2f2c:	31 81       	ldd	r19, Z+1	; 0x01
    2f2e:	22 30       	cpi	r18, 0x02	; 2
    2f30:	31 05       	cpc	r19, r1
    2f32:	10 f4       	brcc	.+4      	; 0x2f38 <updateLiveLed+0x10>
	{
		STATE_LED_ON;
    2f34:	d9 98       	cbi	0x1b, 1	; 27
    2f36:	08 95       	ret
	}
	else if ( *mil > CALC_LIVE(2) && *mil < CALC_LIVE(4) )
    2f38:	23 30       	cpi	r18, 0x03	; 3
    2f3a:	31 05       	cpc	r19, r1
    2f3c:	11 f4       	brne	.+4      	; 0x2f42 <updateLiveLed+0x1a>
	{
		STATE_LED_OFF;
    2f3e:	d9 9a       	sbi	0x1b, 1	; 27
    2f40:	08 95       	ret
	}
	else if ( *mil > CALC_LIVE(8) && *mil < CALC_LIVE(10) )
    2f42:	29 30       	cpi	r18, 0x09	; 9
    2f44:	31 05       	cpc	r19, r1
    2f46:	11 f4       	brne	.+4      	; 0x2f4c <updateLiveLed+0x24>
	{
		STATE_LED_ON;
    2f48:	d9 98       	cbi	0x1b, 1	; 27
    2f4a:	08 95       	ret
	}
	else if ( *mil > CALC_LIVE(10) && *mil < CALC_LIVE(12) )
    2f4c:	2b 30       	cpi	r18, 0x0B	; 11
    2f4e:	31 05       	cpc	r19, r1
    2f50:	11 f4       	brne	.+4      	; 0x2f56 <updateLiveLed+0x2e>
	{
		STATE_LED_OFF;
    2f52:	d9 9a       	sbi	0x1b, 1	; 27
    2f54:	08 95       	ret
	}
	else if ( *mil > 500 )
    2f56:	25 3f       	cpi	r18, 0xF5	; 245
    2f58:	31 40       	sbci	r19, 0x01	; 1
    2f5a:	18 f0       	brcs	.+6      	; 0x2f62 <updateLiveLed+0x3a>
	{
		*mil = 0;
    2f5c:	fc 01       	movw	r30, r24
    2f5e:	11 82       	std	Z+1, r1	; 0x01
    2f60:	10 82       	st	Z, r1
    2f62:	08 95       	ret

00002f64 <main>:
}


int main(void)
{
    DDRx( STATE_LED_PORT )	|= 1<<STATE_LED_bp;
    2f64:	d1 9a       	sbi	0x1a, 1	; 26
	STATE_LED_PORT			|= (1<<STATE_LED_bp);
    2f66:	d9 9a       	sbi	0x1b, 1	; 27
	
	eepReload();
    2f68:	0e 94 76 17 	call	0x2eec	; 0x2eec <eepReload>
	i2c_init();
    2f6c:	0e 94 67 0b 	call	0x16ce	; 0x16ce <i2c_init>
	Ssd1306Init();
    2f70:	0e 94 50 0e 	call	0x1ca0	; 0x1ca0 <Ssd1306Init>
	bmp180_init( &bmp180 );	
    2f74:	8f ef       	ldi	r24, 0xFF	; 255
    2f76:	95 e0       	ldi	r25, 0x05	; 5
    2f78:	0e 94 be 07 	call	0xf7c	; 0xf7c <bmp180_init>
	
	/*	SystemTimeer 1 ( 16 Bit ) 
	*	Wird auf CompareMatch eingestellt
	*	Auslseintervall.: 100ms
	*/
	TCCR1B	= ( ( 1<<CS11 ) | ( 1<<CS10 ) | ( 1<<WGM12 ) ); // Prescaler : 64 
    2f7c:	8b e0       	ldi	r24, 0x0B	; 11
    2f7e:	8e bd       	out	0x2e, r24	; 46
	TIMSK   = ( ( 1<<OCIE1A ) | ( 1<<OCIE2 ) );
    2f80:	80 e9       	ldi	r24, 0x90	; 144
    2f82:	89 bf       	out	0x39, r24	; 57
	OCR1A	= ((F_CPU / 64 / 100 ) - 1 );
    2f84:	81 ee       	ldi	r24, 0xE1	; 225
    2f86:	94 e0       	ldi	r25, 0x04	; 4
    2f88:	9b bd       	out	0x2b, r25	; 43
    2f8a:	8a bd       	out	0x2a, r24	; 42
	
	/*	SystemTimeer 2 
	*	Wird auf CompareMatch eingestellt
	*	Auslseintervall.: 1ms
	*/
	TCCR2  |= ((1<<CS22) | (1<<WGM21)); // Prescaler : 64
    2f8c:	85 b5       	in	r24, 0x25	; 37
    2f8e:	8c 60       	ori	r24, 0x0C	; 12
    2f90:	85 bd       	out	0x25, r24	; 37
	OCR2   = 0x7C; 
    2f92:	8c e7       	ldi	r24, 0x7C	; 124
    2f94:	83 bd       	out	0x23, r24	; 35
	
	/*	Interrupts
	*	Interrupts global freigeben
	*/
	sei();
    2f96:	78 94       	sei
	
	Ssd1306ClearScreen();
    2f98:	0e 94 b1 0e 	call	0x1d62	; 0x1d62 <Ssd1306ClearScreen>
	Ssd1306SendRam();
    2f9c:	0e 94 0b 0f 	call	0x1e16	; 0x1e16 <Ssd1306SendRam>
	
	button.enterRpt = 0;	
    2fa0:	e4 e3       	ldi	r30, 0x34	; 52
    2fa2:	f6 e0       	ldi	r31, 0x06	; 6
    2fa4:	11 82       	std	Z+1, r1	; 0x01
	button.enter	= 0;
    2fa6:	10 82       	st	Z, r1
			
			
    while (1) 
    {	
 		if ( button.enterRpt )
    2fa8:	8f 01       	movw	r16, r30
			Ssd1306ClearScreen();
			Ssd1306SendRam();
			showMenue( menueStructMain , (enc_t*)&enc , sizeof(menueStructMain) / sizeof(menueStructMain[0]) );
 		}
		
		if ( operating.dispAutoOff > DISPLAY_AUTO_OFF )
    2faa:	0f 2e       	mov	r0, r31
    2fac:	fe e2       	ldi	r31, 0x2E	; 46
    2fae:	ef 2e       	mov	r14, r31
    2fb0:	f6 e0       	ldi	r31, 0x06	; 6
    2fb2:	ff 2e       	mov	r15, r31
    2fb4:	f0 2d       	mov	r31, r0
			flag.dispIsOff = 0;
			button.enter = 0;
			//Ssd1306DisplayState( DISPLAY_ON );
		}
		
		if ( Sensor.Ready & 1 << RTC_IS_RDY_TO_RD )
    2fb6:	c6 e3       	ldi	r28, 0x36	; 54
    2fb8:	d6 e0       	ldi	r29, 0x06	; 6
	button.enter	= 0;
			
			
    while (1) 
    {	
 		if ( button.enterRpt )
    2fba:	f8 01       	movw	r30, r16
    2fbc:	81 81       	ldd	r24, Z+1	; 0x01
    2fbe:	88 23       	and	r24, r24
    2fc0:	71 f0       	breq	.+28     	; 0x2fde <main+0x7a>
 		{
			button.enterRpt = 0;
    2fc2:	11 82       	std	Z+1, r1	; 0x01
			button.enter	= 0;
    2fc4:	10 82       	st	Z, r1
 			
			Ssd1306ClearScreen();
    2fc6:	0e 94 b1 0e 	call	0x1d62	; 0x1d62 <Ssd1306ClearScreen>
			Ssd1306SendRam();
    2fca:	0e 94 0b 0f 	call	0x1e16	; 0x1e16 <Ssd1306SendRam>
			showMenue( menueStructMain , (enc_t*)&enc , sizeof(menueStructMain) / sizeof(menueStructMain[0]) );
    2fce:	44 e0       	ldi	r20, 0x04	; 4
    2fd0:	50 e0       	ldi	r21, 0x00	; 0
    2fd2:	6d ea       	ldi	r22, 0xAD	; 173
    2fd4:	74 e0       	ldi	r23, 0x04	; 4
    2fd6:	83 e7       	ldi	r24, 0x73	; 115
    2fd8:	94 e0       	ldi	r25, 0x04	; 4
    2fda:	0e 94 ee 13 	call	0x27dc	; 0x27dc <showMenue>
 		}
		
		if ( operating.dispAutoOff > DISPLAY_AUTO_OFF )
    2fde:	f7 01       	movw	r30, r14
    2fe0:	84 81       	ldd	r24, Z+4	; 0x04
    2fe2:	95 81       	ldd	r25, Z+5	; 0x05
    2fe4:	8c 3c       	cpi	r24, 0xCC	; 204
    2fe6:	98 42       	sbci	r25, 0x28	; 40
    2fe8:	40 f0       	brcs	.+16     	; 0x2ffa <main+0x96>
		{
			operating.dispAutoOff = 0;
    2fea:	f7 01       	movw	r30, r14
    2fec:	15 82       	std	Z+5, r1	; 0x05
    2fee:	14 82       	std	Z+4, r1	; 0x04
			flag.dispIsOff = 1;
    2ff0:	80 91 2d 06 	lds	r24, 0x062D	; 0x80062d <flag>
    2ff4:	82 60       	ori	r24, 0x02	; 2
    2ff6:	80 93 2d 06 	sts	0x062D, r24	; 0x80062d <flag>
			//Ssd1306DisplayState( DISPLAY_OFF );
		}
		
		if ( flag.dispIsOff && button.enter )
    2ffa:	80 91 2d 06 	lds	r24, 0x062D	; 0x80062d <flag>
    2ffe:	81 ff       	sbrs	r24, 1
    3000:	0a c0       	rjmp	.+20     	; 0x3016 <main+0xb2>
    3002:	f8 01       	movw	r30, r16
    3004:	80 81       	ld	r24, Z
    3006:	88 23       	and	r24, r24
    3008:	31 f0       	breq	.+12     	; 0x3016 <main+0xb2>
		{
			flag.dispIsOff = 0;
    300a:	80 91 2d 06 	lds	r24, 0x062D	; 0x80062d <flag>
    300e:	8d 7f       	andi	r24, 0xFD	; 253
    3010:	80 93 2d 06 	sts	0x062D, r24	; 0x80062d <flag>
			button.enter = 0;
    3014:	10 82       	st	Z, r1
			//Ssd1306DisplayState( DISPLAY_ON );
		}
		
		if ( Sensor.Ready & 1 << RTC_IS_RDY_TO_RD )
    3016:	8f 8d       	ldd	r24, Y+31	; 0x1f
    3018:	80 ff       	sbrs	r24, 0
    301a:	0a c0       	rjmp	.+20     	; 0x3030 <main+0xcc>
		{
			rtcGetData( &rtc );
    301c:	86 e5       	ldi	r24, 0x56	; 86
    301e:	96 e0       	ldi	r25, 0x06	; 6
    3020:	0e 94 c3 0c 	call	0x1986	; 0x1986 <rtcGetData>
			Sensor.Ready &= ~( 1 << RTC_IS_RDY_TO_RD );
    3024:	8f 8d       	ldd	r24, Y+31	; 0x1f
    3026:	8e 7f       	andi	r24, 0xFE	; 254
    3028:	8f 8f       	std	Y+31, r24	; 0x1f
			Sensor.Ready |= ( 1 << RTC_IS_RDY_TO_SHOW_SystemTimeE );
    302a:	8f 8d       	ldd	r24, Y+31	; 0x1f
    302c:	82 60       	ori	r24, 0x02	; 2
    302e:	8f 8f       	std	Y+31, r24	; 0x1f
		}
		
		static uint8_t SecoundOld = 0;
				
		if ( Sensor.Ready & ( 1 << RTC_IS_RDY_TO_SHOW_SystemTimeE ) )
    3030:	8f 8d       	ldd	r24, Y+31	; 0x1f
    3032:	81 ff       	sbrs	r24, 1
    3034:	1d c0       	rjmp	.+58     	; 0x3070 <main+0x10c>
		{					
			if ( SecoundOld != rtc.second )
    3036:	80 91 56 06 	lds	r24, 0x0656	; 0x800656 <rtc>
    303a:	90 91 bf 05 	lds	r25, 0x05BF	; 0x8005bf <SecoundOld.2835>
    303e:	89 17       	cp	r24, r25
    3040:	a1 f0       	breq	.+40     	; 0x306a <main+0x106>
			{
				SecoundOld = rtc.second;
    3042:	80 93 bf 05 	sts	0x05BF, r24	; 0x8005bf <SecoundOld.2835>
				Ssd1306SetFont( fixednums15x31 );
    3046:	8a e3       	ldi	r24, 0x3A	; 58
    3048:	92 e0       	ldi	r25, 0x02	; 2
    304a:	0e 94 ac 0e 	call	0x1d58	; 0x1d58 <Ssd1306SetFont>
				Ssd1306PutString( bcd_ttostr( rtc.hour , rtc.minute , rtc.second , TTOSTR_HH_MM ) , 0 , 22 );
    304e:	e6 e5       	ldi	r30, 0x56	; 86
    3050:	f6 e0       	ldi	r31, 0x06	; 6
    3052:	23 e0       	ldi	r18, 0x03	; 3
    3054:	40 81       	ld	r20, Z
    3056:	61 81       	ldd	r22, Z+1	; 0x01
    3058:	82 81       	ldd	r24, Z+2	; 0x02
    305a:	0e 94 4f 19 	call	0x329e	; 0x329e <bcd_ttostr>
    305e:	46 e1       	ldi	r20, 0x16	; 22
    3060:	60 e0       	ldi	r22, 0x00	; 0
    3062:	0e 94 5f 11 	call	0x22be	; 0x22be <Ssd1306PutString>
				Ssd1306SendRam();
    3066:	0e 94 0b 0f 	call	0x1e16	; 0x1e16 <Ssd1306SendRam>
			}
			Sensor.Ready &= ~( 1 << RTC_IS_RDY_TO_SHOW_SystemTimeE );	
    306a:	8f 8d       	ldd	r24, Y+31	; 0x1f
    306c:	8d 7f       	andi	r24, 0xFD	; 253
    306e:	8f 8f       	std	Y+31, r24	; 0x1f
		}
			
		refreshDisplay();		
    3070:	0e 94 33 15 	call	0x2a66	; 0x2a66 <refreshDisplay>
    }
    3074:	a2 cf       	rjmp	.-188    	; 0x2fba <main+0x56>

00003076 <__vector_7>:

/* SystemTimeer[1] -> Compare Match A
*	Wird ca. jede 10ms aufgerufen
*/
ISR( TIMER1_COMPA_vect )
{
    3076:	1f 92       	push	r1
    3078:	0f 92       	push	r0
    307a:	0f b6       	in	r0, 0x3f	; 63
    307c:	0f 92       	push	r0
    307e:	11 24       	eor	r1, r1
    3080:	2f 93       	push	r18
    3082:	3f 93       	push	r19
    3084:	4f 93       	push	r20
    3086:	5f 93       	push	r21
    3088:	6f 93       	push	r22
    308a:	7f 93       	push	r23
    308c:	8f 93       	push	r24
    308e:	9f 93       	push	r25
    3090:	af 93       	push	r26
    3092:	bf 93       	push	r27
    3094:	ef 93       	push	r30
    3096:	ff 93       	push	r31
	static uint16_t liveLed = 0;
	static uint8_t rtcRead = 0;
	static uint8_t sensorsRead = 0;
	
	liveLed++;
    3098:	80 91 bd 05 	lds	r24, 0x05BD	; 0x8005bd <liveLed.2842>
    309c:	90 91 be 05 	lds	r25, 0x05BE	; 0x8005be <liveLed.2842+0x1>
    30a0:	01 96       	adiw	r24, 0x01	; 1
    30a2:	90 93 be 05 	sts	0x05BE, r25	; 0x8005be <liveLed.2842+0x1>
    30a6:	80 93 bd 05 	sts	0x05BD, r24	; 0x8005bd <liveLed.2842>
 	updateLiveLed( &liveLed );
    30aa:	8d eb       	ldi	r24, 0xBD	; 189
    30ac:	95 e0       	ldi	r25, 0x05	; 5
    30ae:	0e 94 94 17 	call	0x2f28	; 0x2f28 <updateLiveLed>

	if ( SystemTime.Milisecound++ >= 1000 )
    30b2:	e6 e6       	ldi	r30, 0x66	; 102
    30b4:	f6 e0       	ldi	r31, 0x06	; 6
    30b6:	80 81       	ld	r24, Z
    30b8:	91 81       	ldd	r25, Z+1	; 0x01
    30ba:	9c 01       	movw	r18, r24
    30bc:	2f 5f       	subi	r18, 0xFF	; 255
    30be:	3f 4f       	sbci	r19, 0xFF	; 255
    30c0:	31 83       	std	Z+1, r19	; 0x01
    30c2:	20 83       	st	Z, r18
    30c4:	88 3e       	cpi	r24, 0xE8	; 232
    30c6:	93 40       	sbci	r25, 0x03	; 3
    30c8:	48 f0       	brcs	.+18     	; 0x30dc <__vector_7+0x66>
	{
		SystemTime.Milisecound = 0;
    30ca:	10 92 67 06 	sts	0x0667, r1	; 0x800667 <SystemTime+0x1>
    30ce:	10 92 66 06 	sts	0x0666, r1	; 0x800666 <SystemTime>
		flag.menueSystemTimeout = 1;
    30d2:	80 91 2d 06 	lds	r24, 0x062D	; 0x80062d <flag>
    30d6:	81 60       	ori	r24, 0x01	; 1
    30d8:	80 93 2d 06 	sts	0x062D, r24	; 0x80062d <flag>
	}

	if ( rtcRead++ > 150 )
    30dc:	80 91 bc 05 	lds	r24, 0x05BC	; 0x8005bc <rtcRead.2843>
    30e0:	87 39       	cpi	r24, 0x97	; 151
    30e2:	20 f4       	brcc	.+8      	; 0x30ec <__vector_7+0x76>
    30e4:	8f 5f       	subi	r24, 0xFF	; 255
    30e6:	80 93 bc 05 	sts	0x05BC, r24	; 0x8005bc <rtcRead.2843>
    30ea:	07 c0       	rjmp	.+14     	; 0x30fa <__vector_7+0x84>
	{		
		rtcRead = 0;
    30ec:	10 92 bc 05 	sts	0x05BC, r1	; 0x8005bc <rtcRead.2843>
		Sensor.Ready |= (1<<RTC_IS_RDY_TO_RD);
    30f0:	e6 e3       	ldi	r30, 0x36	; 54
    30f2:	f6 e0       	ldi	r31, 0x06	; 6
    30f4:	87 8d       	ldd	r24, Z+31	; 0x1f
    30f6:	81 60       	ori	r24, 0x01	; 1
    30f8:	87 8f       	std	Z+31, r24	; 0x1f
	}
	 
	if ( secoundCmp != rtc.second )
    30fa:	80 91 56 06 	lds	r24, 0x0656	; 0x800656 <rtc>
    30fe:	90 91 cb 05 	lds	r25, 0x05CB	; 0x8005cb <secoundCmp>
    3102:	89 17       	cp	r24, r25
    3104:	99 f1       	breq	.+102    	; 0x316c <__vector_7+0xf6>
	{
		secoundCmp = rtc.second;
    3106:	80 93 cb 05 	sts	0x05CB, r24	; 0x8005cb <secoundCmp>
		operating.dispAutoOff++;
    310a:	ee e2       	ldi	r30, 0x2E	; 46
    310c:	f6 e0       	ldi	r31, 0x06	; 6
    310e:	84 81       	ldd	r24, Z+4	; 0x04
    3110:	95 81       	ldd	r25, Z+5	; 0x05
    3112:	01 96       	adiw	r24, 0x01	; 1
    3114:	95 83       	std	Z+5, r25	; 0x05
    3116:	84 83       	std	Z+4, r24	; 0x04
		
		if ( sensorsRead++ > 5 )
    3118:	80 91 bb 05 	lds	r24, 0x05BB	; 0x8005bb <sensorsRead.2844>
    311c:	86 30       	cpi	r24, 0x06	; 6
    311e:	20 f4       	brcc	.+8      	; 0x3128 <__vector_7+0xb2>
    3120:	8f 5f       	subi	r24, 0xFF	; 255
    3122:	80 93 bb 05 	sts	0x05BB, r24	; 0x8005bb <sensorsRead.2844>
    3126:	07 c0       	rjmp	.+14     	; 0x3136 <__vector_7+0xc0>
		{
			sensorsRead = 0;
    3128:	10 92 bb 05 	sts	0x05BB, r1	; 0x8005bb <sensorsRead.2844>
			Sensor.Ready |= (1<<SENSORS_Ready);
    312c:	e6 e3       	ldi	r30, 0x36	; 54
    312e:	f6 e0       	ldi	r31, 0x06	; 6
    3130:	87 8d       	ldd	r24, Z+31	; 0x1f
    3132:	84 60       	ori	r24, 0x04	; 4
    3134:	87 8f       	std	Z+31, r24	; 0x1f
		}
		
		if ( operating.seconds++ > 59 )
    3136:	ee e2       	ldi	r30, 0x2E	; 46
    3138:	f6 e0       	ldi	r31, 0x06	; 6
    313a:	83 81       	ldd	r24, Z+3	; 0x03
    313c:	91 e0       	ldi	r25, 0x01	; 1
    313e:	98 0f       	add	r25, r24
    3140:	93 83       	std	Z+3, r25	; 0x03
    3142:	8c 33       	cpi	r24, 0x3C	; 60
    3144:	98 f0       	brcs	.+38     	; 0x316c <__vector_7+0xf6>
		{
			operating.seconds = 0;
    3146:	13 82       	std	Z+3, r1	; 0x03
			if ( operating.minutes++ > 59 )
    3148:	82 81       	ldd	r24, Z+2	; 0x02
    314a:	91 e0       	ldi	r25, 0x01	; 1
    314c:	98 0f       	add	r25, r24
    314e:	92 83       	std	Z+2, r25	; 0x02
    3150:	8c 33       	cpi	r24, 0x3C	; 60
    3152:	60 f0       	brcs	.+24     	; 0x316c <__vector_7+0xf6>
			{
				operating.minutes = 0;
    3154:	12 82       	std	Z+2, r1	; 0x02
				operating.hours++;
    3156:	80 81       	ld	r24, Z
    3158:	91 81       	ldd	r25, Z+1	; 0x01
    315a:	01 96       	adiw	r24, 0x01	; 1
    315c:	91 83       	std	Z+1, r25	; 0x01
    315e:	80 83       	st	Z, r24
				eeprom_update_word( &operatingEEP.hours , operating.hours );
    3160:	60 81       	ld	r22, Z
    3162:	71 81       	ldd	r23, Z+1	; 0x01
    3164:	82 e0       	ldi	r24, 0x02	; 2
    3166:	90 e0       	ldi	r25, 0x00	; 0
    3168:	0e 94 d4 1c 	call	0x39a8	; 0x39a8 <eeprom_update_word>
	
    static uint8_t ct0, ct1;
    static uint16_t rpt;
    uint8_t i;
    
    i =  internalKey.keyState ^ ~ENC_PIN;
    316c:	e2 e6       	ldi	r30, 0x62	; 98
    316e:	f6 e0       	ldi	r31, 0x06	; 6
    3170:	91 81       	ldd	r25, Z+1	; 0x01
    3172:	89 b3       	in	r24, 0x19	; 25
    3174:	80 95       	com	r24
    3176:	28 2f       	mov	r18, r24
    3178:	29 27       	eor	r18, r25
    ct0 = ~( ct0 & i );
    317a:	90 91 ba 05 	lds	r25, 0x05BA	; 0x8005ba <ct0.2845>
    317e:	92 23       	and	r25, r18
    3180:	89 2f       	mov	r24, r25
    3182:	80 95       	com	r24
    3184:	80 93 ba 05 	sts	0x05BA, r24	; 0x8005ba <ct0.2845>
    ct1 = ct0 ^ (ct1 & i);
    3188:	90 91 b9 05 	lds	r25, 0x05B9	; 0x8005b9 <ct1.2846>
    318c:	92 23       	and	r25, r18
    318e:	98 27       	eor	r25, r24
    3190:	90 93 b9 05 	sts	0x05B9, r25	; 0x8005b9 <ct1.2846>
    3194:	82 23       	and	r24, r18
    i &= ct0 & ct1;
    3196:	89 23       	and	r24, r25
    internalKey.keyState ^= i;
    3198:	91 81       	ldd	r25, Z+1	; 0x01
    319a:	98 27       	eor	r25, r24
    319c:	91 83       	std	Z+1, r25	; 0x01
    internalKey.keyPress |= internalKey.keyState & i;
    319e:	21 81       	ldd	r18, Z+1	; 0x01
    31a0:	90 81       	ld	r25, Z
    31a2:	82 23       	and	r24, r18
    31a4:	89 2b       	or	r24, r25
    31a6:	80 83       	st	Z, r24
    
    if( (internalKey.keyState & 1<<ENC_SWITCH_bp) == 0 )   // check repeat function
    31a8:	81 81       	ldd	r24, Z+1	; 0x01
    31aa:	88 23       	and	r24, r24
    31ac:	3c f0       	brlt	.+14     	; 0x31bc <__vector_7+0x146>
    rpt = 150;                               // start delay
    if(--rpt == 0 )
    31ae:	85 e9       	ldi	r24, 0x95	; 149
    31b0:	90 e0       	ldi	r25, 0x00	; 0
    31b2:	90 93 b8 05 	sts	0x05B8, r25	; 0x8005b8 <rpt.2847+0x1>
    31b6:	80 93 b7 05 	sts	0x05B7, r24	; 0x8005b7 <rpt.2847>
    31ba:	12 c0       	rjmp	.+36     	; 0x31e0 <__vector_7+0x16a>
    31bc:	80 91 b7 05 	lds	r24, 0x05B7	; 0x8005b7 <rpt.2847>
    31c0:	90 91 b8 05 	lds	r25, 0x05B8	; 0x8005b8 <rpt.2847+0x1>
    31c4:	01 97       	sbiw	r24, 0x01	; 1
    31c6:	90 93 b8 05 	sts	0x05B8, r25	; 0x8005b8 <rpt.2847+0x1>
    31ca:	80 93 b7 05 	sts	0x05B7, r24	; 0x8005b7 <rpt.2847>
    31ce:	89 2b       	or	r24, r25
    31d0:	39 f4       	brne	.+14     	; 0x31e0 <__vector_7+0x16a>
    {
		//rpt = 50;
	    internalKey.keyRpt |= internalKey.keyState & 1<<ENC_SWITCH_bp;
    31d2:	e2 e6       	ldi	r30, 0x62	; 98
    31d4:	f6 e0       	ldi	r31, 0x06	; 6
    31d6:	81 81       	ldd	r24, Z+1	; 0x01
    31d8:	92 81       	ldd	r25, Z+2	; 0x02
    31da:	80 78       	andi	r24, 0x80	; 128
    31dc:	89 2b       	or	r24, r25
    31de:	82 83       	std	Z+2, r24	; 0x02
    }
    
    if ( get_key_rpt( 1<<ENC_SWITCH_bp ) )
    31e0:	80 e8       	ldi	r24, 0x80	; 128
    31e2:	0e 94 62 17 	call	0x2ec4	; 0x2ec4 <get_key_rpt>
    31e6:	88 23       	and	r24, r24
    31e8:	19 f0       	breq	.+6      	; 0x31f0 <__vector_7+0x17a>
    {
	    button.enterRpt = 1;
    31ea:	81 e0       	ldi	r24, 0x01	; 1
    31ec:	80 93 35 06 	sts	0x0635, r24	; 0x800635 <button+0x1>
    }
    
    if ( get_key_press( 1<<ENC_SWITCH_bp ) )
    31f0:	80 e8       	ldi	r24, 0x80	; 128
    31f2:	0e 94 58 17 	call	0x2eb0	; 0x2eb0 <get_key_press>
    31f6:	88 23       	and	r24, r24
    31f8:	19 f0       	breq	.+6      	; 0x3200 <__vector_7+0x18a>
    {
	    button.enter = 1;
    31fa:	81 e0       	ldi	r24, 0x01	; 1
    31fc:	80 93 34 06 	sts	0x0634, r24	; 0x800634 <button>
    }	
}
    3200:	ff 91       	pop	r31
    3202:	ef 91       	pop	r30
    3204:	bf 91       	pop	r27
    3206:	af 91       	pop	r26
    3208:	9f 91       	pop	r25
    320a:	8f 91       	pop	r24
    320c:	7f 91       	pop	r23
    320e:	6f 91       	pop	r22
    3210:	5f 91       	pop	r21
    3212:	4f 91       	pop	r20
    3214:	3f 91       	pop	r19
    3216:	2f 91       	pop	r18
    3218:	0f 90       	pop	r0
    321a:	0f be       	out	0x3f, r0	; 63
    321c:	0f 90       	pop	r0
    321e:	1f 90       	pop	r1
    3220:	18 95       	reti

00003222 <__vector_4>:

/* SystemTimeer[2] -> Compare Match
*	Wird ca. jede 1ms aufgerufen
*/
ISR( TIMER2_COMP_vect )
{	
    3222:	1f 92       	push	r1
    3224:	0f 92       	push	r0
    3226:	0f b6       	in	r0, 0x3f	; 63
    3228:	0f 92       	push	r0
    322a:	11 24       	eor	r1, r1
    322c:	2f 93       	push	r18
    322e:	8f 93       	push	r24
    3230:	9f 93       	push	r25
    3232:	af 93       	push	r26
    3234:	bf 93       	push	r27
    3236:	ef 93       	push	r30
    3238:	ff 93       	push	r31
    /*
    *   Drehenc auswertung.
    */
    enc.last = ( ( enc.last << 2 ) & 0x0F );
    323a:	ed ea       	ldi	r30, 0xAD	; 173
    323c:	f4 e0       	ldi	r31, 0x04	; 4
    323e:	81 89       	ldd	r24, Z+17	; 0x11
    3240:	24 e0       	ldi	r18, 0x04	; 4
    3242:	82 02       	muls	r24, r18
    3244:	c0 01       	movw	r24, r0
    3246:	11 24       	eor	r1, r1
    3248:	8f 70       	andi	r24, 0x0F	; 15
    324a:	81 8b       	std	Z+17, r24	; 0x11
	
    if (ENC_PIN & 1<<ENC_PHASE_B_bp)
    324c:	ce 9b       	sbis	0x19, 6	; 25
    324e:	03 c0       	rjmp	.+6      	; 0x3256 <__vector_4+0x34>
    {
        enc.last |= 2;
    3250:	81 89       	ldd	r24, Z+17	; 0x11
    3252:	82 60       	ori	r24, 0x02	; 2
    3254:	81 8b       	std	Z+17, r24	; 0x11
    }
	
    if (ENC_PIN & 1<<ENC_PHASE_A_bp)
    3256:	cd 9b       	sbis	0x19, 5	; 25
    3258:	05 c0       	rjmp	.+10     	; 0x3264 <__vector_4+0x42>
    {
        enc.last |= 1;
    325a:	ed ea       	ldi	r30, 0xAD	; 173
    325c:	f4 e0       	ldi	r31, 0x04	; 4
    325e:	81 89       	ldd	r24, Z+17	; 0x11
    3260:	81 60       	ori	r24, 0x01	; 1
    3262:	81 8b       	std	Z+17, r24	; 0x11
    }   
	
    enc.result += enc.table[enc.last]; 	
    3264:	ad ea       	ldi	r26, 0xAD	; 173
    3266:	b4 e0       	ldi	r27, 0x04	; 4
    3268:	51 96       	adiw	r26, 0x11	; 17
    326a:	ec 91       	ld	r30, X
    326c:	51 97       	sbiw	r26, 0x11	; 17
    326e:	0e 2e       	mov	r0, r30
    3270:	00 0c       	add	r0, r0
    3272:	ff 0b       	sbc	r31, r31
    3274:	e3 55       	subi	r30, 0x53	; 83
    3276:	fb 4f       	sbci	r31, 0xFB	; 251
    3278:	80 81       	ld	r24, Z
    327a:	50 96       	adiw	r26, 0x10	; 16
    327c:	9c 91       	ld	r25, X
    327e:	50 97       	sbiw	r26, 0x10	; 16
    3280:	89 0f       	add	r24, r25
    3282:	50 96       	adiw	r26, 0x10	; 16
    3284:	8c 93       	st	X, r24
    3286:	ff 91       	pop	r31
    3288:	ef 91       	pop	r30
    328a:	bf 91       	pop	r27
    328c:	af 91       	pop	r26
    328e:	9f 91       	pop	r25
    3290:	8f 91       	pop	r24
    3292:	2f 91       	pop	r18
    3294:	0f 90       	pop	r0
    3296:	0f be       	out	0x3f, r0	; 63
    3298:	0f 90       	pop	r0
    329a:	1f 90       	pop	r1
    329c:	18 95       	reti

0000329e <bcd_ttostr>:
static TtStr_u TtStr;


char *bcd_ttostr( uint8_t Hour , uint8_t Minute , uint8_t Secound , enum TTOSTR_OPTIONS Options )
{
	if ( Options >  TTOSTR_HH_MM_SS )
    329e:	25 30       	cpi	r18, 0x05	; 5
    32a0:	08 f0       	brcs	.+2      	; 0x32a4 <bcd_ttostr+0x6>
    32a2:	6c c0       	rjmp	.+216    	; 0x337c <bcd_ttostr+0xde>
	{
		return NULL;
	}
	
	switch( Options )
    32a4:	22 30       	cpi	r18, 0x02	; 2
    32a6:	31 f1       	breq	.+76     	; 0x32f4 <bcd_ttostr+0x56>
    32a8:	28 f4       	brcc	.+10     	; 0x32b4 <bcd_ttostr+0x16>
    32aa:	22 23       	and	r18, r18
    32ac:	49 f0       	breq	.+18     	; 0x32c0 <bcd_ttostr+0x22>
    32ae:	21 30       	cpi	r18, 0x01	; 1
    32b0:	a1 f0       	breq	.+40     	; 0x32da <bcd_ttostr+0x3c>
    32b2:	67 c0       	rjmp	.+206    	; 0x3382 <bcd_ttostr+0xe4>
    32b4:	23 30       	cpi	r18, 0x03	; 3
    32b6:	59 f1       	breq	.+86     	; 0x330e <bcd_ttostr+0x70>
    32b8:	24 30       	cpi	r18, 0x04	; 4
    32ba:	09 f4       	brne	.+2      	; 0x32be <bcd_ttostr+0x20>
    32bc:	3f c0       	rjmp	.+126    	; 0x333c <bcd_ttostr+0x9e>
    32be:	61 c0       	rjmp	.+194    	; 0x3382 <bcd_ttostr+0xe4>
	{
		case TTOSTR_HH:
		{
			TtStr.Time[0] = ( Hour >> 4 ) + 48;
    32c0:	ef ee       	ldi	r30, 0xEF	; 239
    32c2:	f5 e0       	ldi	r31, 0x05	; 5
    32c4:	98 2f       	mov	r25, r24
    32c6:	92 95       	swap	r25
    32c8:	9f 70       	andi	r25, 0x0F	; 15
    32ca:	90 5d       	subi	r25, 0xD0	; 208
    32cc:	90 83       	st	Z, r25
			TtStr.Time[1] = ( Hour & 0x0F ) + 48;
    32ce:	8f 70       	andi	r24, 0x0F	; 15
    32d0:	80 5d       	subi	r24, 0xD0	; 208
    32d2:	81 83       	std	Z+1, r24	; 0x01
			TtStr.Time[2] = '\0';
    32d4:	12 82       	std	Z+2, r1	; 0x02
			TtStr.Time[8] = '\0';
		}break;
		
	}
	
	return TtStr.Time;
    32d6:	cf 01       	movw	r24, r30
		case TTOSTR_HH:
		{
			TtStr.Time[0] = ( Hour >> 4 ) + 48;
			TtStr.Time[1] = ( Hour & 0x0F ) + 48;
			TtStr.Time[2] = '\0';
		}break;
    32d8:	08 95       	ret
		
		case TTOSTR_MM:
		{
			TtStr.Time[0] = ( Minute >> 4 ) + 48;
    32da:	ef ee       	ldi	r30, 0xEF	; 239
    32dc:	f5 e0       	ldi	r31, 0x05	; 5
    32de:	86 2f       	mov	r24, r22
    32e0:	82 95       	swap	r24
    32e2:	8f 70       	andi	r24, 0x0F	; 15
    32e4:	80 5d       	subi	r24, 0xD0	; 208
    32e6:	80 83       	st	Z, r24
			TtStr.Time[1] = ( Minute & 0x0F ) + 48;
    32e8:	6f 70       	andi	r22, 0x0F	; 15
    32ea:	60 5d       	subi	r22, 0xD0	; 208
    32ec:	61 83       	std	Z+1, r22	; 0x01
			TtStr.Time[2] = '\0';
    32ee:	12 82       	std	Z+2, r1	; 0x02
			TtStr.Time[8] = '\0';
		}break;
		
	}
	
	return TtStr.Time;
    32f0:	cf 01       	movw	r24, r30
		case TTOSTR_MM:
		{
			TtStr.Time[0] = ( Minute >> 4 ) + 48;
			TtStr.Time[1] = ( Minute & 0x0F ) + 48;
			TtStr.Time[2] = '\0';
		}break;
    32f2:	08 95       	ret
		
		case TTOSTR_SS:
		{
			TtStr.Time[0] = ( Secound >> 4 ) + 48;
    32f4:	ef ee       	ldi	r30, 0xEF	; 239
    32f6:	f5 e0       	ldi	r31, 0x05	; 5
    32f8:	84 2f       	mov	r24, r20
    32fa:	82 95       	swap	r24
    32fc:	8f 70       	andi	r24, 0x0F	; 15
    32fe:	80 5d       	subi	r24, 0xD0	; 208
    3300:	80 83       	st	Z, r24
			TtStr.Time[1] = ( Secound & 0x0F ) + 48;
    3302:	4f 70       	andi	r20, 0x0F	; 15
    3304:	40 5d       	subi	r20, 0xD0	; 208
    3306:	41 83       	std	Z+1, r20	; 0x01
			TtStr.Time[2] = '\0';
    3308:	12 82       	std	Z+2, r1	; 0x02
			TtStr.Time[8] = '\0';
		}break;
		
	}
	
	return TtStr.Time;
    330a:	cf 01       	movw	r24, r30
		case TTOSTR_SS:
		{
			TtStr.Time[0] = ( Secound >> 4 ) + 48;
			TtStr.Time[1] = ( Secound & 0x0F ) + 48;
			TtStr.Time[2] = '\0';
		}break;
    330c:	08 95       	ret
		
		case TTOSTR_HH_MM:
		{
			TtStr.Time[0] = ( Hour >> 4) + 48;
    330e:	ef ee       	ldi	r30, 0xEF	; 239
    3310:	f5 e0       	ldi	r31, 0x05	; 5
    3312:	98 2f       	mov	r25, r24
    3314:	92 95       	swap	r25
    3316:	9f 70       	andi	r25, 0x0F	; 15
    3318:	90 5d       	subi	r25, 0xD0	; 208
    331a:	90 83       	st	Z, r25
			TtStr.Time[1] = ( Hour & 0x0F ) + 48;
    331c:	8f 70       	andi	r24, 0x0F	; 15
    331e:	80 5d       	subi	r24, 0xD0	; 208
    3320:	81 83       	std	Z+1, r24	; 0x01
			TtStr.Time[2] = ':';
    3322:	8a e3       	ldi	r24, 0x3A	; 58
    3324:	82 83       	std	Z+2, r24	; 0x02
			TtStr.Time[3] = ( Minute >> 4 ) + 48;
    3326:	86 2f       	mov	r24, r22
    3328:	82 95       	swap	r24
    332a:	8f 70       	andi	r24, 0x0F	; 15
    332c:	80 5d       	subi	r24, 0xD0	; 208
    332e:	83 83       	std	Z+3, r24	; 0x03
			TtStr.Time[4] = ( Minute & 0x0F ) + 48;
    3330:	6f 70       	andi	r22, 0x0F	; 15
    3332:	60 5d       	subi	r22, 0xD0	; 208
    3334:	64 83       	std	Z+4, r22	; 0x04
			TtStr.Time[5] = '\0';
    3336:	15 82       	std	Z+5, r1	; 0x05
			TtStr.Time[8] = '\0';
		}break;
		
	}
	
	return TtStr.Time;
    3338:	cf 01       	movw	r24, r30
			TtStr.Time[1] = ( Hour & 0x0F ) + 48;
			TtStr.Time[2] = ':';
			TtStr.Time[3] = ( Minute >> 4 ) + 48;
			TtStr.Time[4] = ( Minute & 0x0F ) + 48;
			TtStr.Time[5] = '\0';
		}break;
    333a:	08 95       	ret
		
		case TTOSTR_HH_MM_SS:
		{
			TtStr.Time[0] = ( Hour >> 4 ) + 48;
    333c:	ef ee       	ldi	r30, 0xEF	; 239
    333e:	f5 e0       	ldi	r31, 0x05	; 5
    3340:	98 2f       	mov	r25, r24
    3342:	92 95       	swap	r25
    3344:	9f 70       	andi	r25, 0x0F	; 15
    3346:	90 5d       	subi	r25, 0xD0	; 208
    3348:	90 83       	st	Z, r25
			TtStr.Time[1] = ( Hour & 0x0F ) + 48;
    334a:	8f 70       	andi	r24, 0x0F	; 15
    334c:	80 5d       	subi	r24, 0xD0	; 208
    334e:	81 83       	std	Z+1, r24	; 0x01
			TtStr.Time[2] = ':';
    3350:	9a e3       	ldi	r25, 0x3A	; 58
    3352:	92 83       	std	Z+2, r25	; 0x02
			TtStr.Time[3] = ( Minute >> 4 ) + 48;
    3354:	86 2f       	mov	r24, r22
    3356:	82 95       	swap	r24
    3358:	8f 70       	andi	r24, 0x0F	; 15
    335a:	80 5d       	subi	r24, 0xD0	; 208
    335c:	83 83       	std	Z+3, r24	; 0x03
			TtStr.Time[4] = ( Minute & 0x0F ) + 48;
    335e:	6f 70       	andi	r22, 0x0F	; 15
    3360:	60 5d       	subi	r22, 0xD0	; 208
    3362:	64 83       	std	Z+4, r22	; 0x04
			TtStr.Time[5] = ':';
    3364:	95 83       	std	Z+5, r25	; 0x05
			TtStr.Time[6] = ( Secound >> 4 ) + 48;
    3366:	84 2f       	mov	r24, r20
    3368:	82 95       	swap	r24
    336a:	8f 70       	andi	r24, 0x0F	; 15
    336c:	80 5d       	subi	r24, 0xD0	; 208
    336e:	86 83       	std	Z+6, r24	; 0x06
			TtStr.Time[7] = ( Secound & 0x0F ) + 48;
    3370:	4f 70       	andi	r20, 0x0F	; 15
    3372:	40 5d       	subi	r20, 0xD0	; 208
    3374:	47 83       	std	Z+7, r20	; 0x07
			TtStr.Time[8] = '\0';
    3376:	10 86       	std	Z+8, r1	; 0x08
		}break;
		
	}
	
	return TtStr.Time;
    3378:	cf 01       	movw	r24, r30
			TtStr.Time[4] = ( Minute & 0x0F ) + 48;
			TtStr.Time[5] = ':';
			TtStr.Time[6] = ( Secound >> 4 ) + 48;
			TtStr.Time[7] = ( Secound & 0x0F ) + 48;
			TtStr.Time[8] = '\0';
		}break;
    337a:	08 95       	ret

char *bcd_ttostr( uint8_t Hour , uint8_t Minute , uint8_t Secound , enum TTOSTR_OPTIONS Options )
{
	if ( Options >  TTOSTR_HH_MM_SS )
	{
		return NULL;
    337c:	80 e0       	ldi	r24, 0x00	; 0
    337e:	90 e0       	ldi	r25, 0x00	; 0
    3380:	08 95       	ret
			TtStr.Time[8] = '\0';
		}break;
		
	}
	
	return TtStr.Time;
    3382:	8f ee       	ldi	r24, 0xEF	; 239
    3384:	95 e0       	ldi	r25, 0x05	; 5
}
    3386:	08 95       	ret

00003388 <dec_ttostr>:

char *dec_ttostr( uint8_t Hour , uint8_t Minute , uint8_t Secound )
{
	/* DEC to ASCII */
	if ( Hour == 0xff )
    3388:	8f 3f       	cpi	r24, 0xFF	; 255
    338a:	31 f4       	brne	.+12     	; 0x3398 <dec_ttostr+0x10>
	{
		TtStr.Time[0] = '0';
    338c:	ef ee       	ldi	r30, 0xEF	; 239
    338e:	f5 e0       	ldi	r31, 0x05	; 5
    3390:	80 e3       	ldi	r24, 0x30	; 48
    3392:	80 83       	st	Z, r24
		TtStr.Time[1] = '0';
    3394:	81 83       	std	Z+1, r24	; 0x01
    3396:	14 c0       	rjmp	.+40     	; 0x33c0 <dec_ttostr+0x38>
	}else
	{
		TtStr.Time[0] = ( ( Hour / 10 ) ) + 48;
    3398:	ef ee       	ldi	r30, 0xEF	; 239
    339a:	f5 e0       	ldi	r31, 0x05	; 5
    339c:	9d ec       	ldi	r25, 0xCD	; 205
    339e:	89 9f       	mul	r24, r25
    33a0:	91 2d       	mov	r25, r1
    33a2:	11 24       	eor	r1, r1
    33a4:	96 95       	lsr	r25
    33a6:	96 95       	lsr	r25
    33a8:	96 95       	lsr	r25
    33aa:	20 e3       	ldi	r18, 0x30	; 48
    33ac:	29 0f       	add	r18, r25
    33ae:	20 83       	st	Z, r18
		TtStr.Time[1] = ( Hour % 10 ) + 48;		
    33b0:	99 0f       	add	r25, r25
    33b2:	29 2f       	mov	r18, r25
    33b4:	22 0f       	add	r18, r18
    33b6:	22 0f       	add	r18, r18
    33b8:	92 0f       	add	r25, r18
    33ba:	89 1b       	sub	r24, r25
    33bc:	80 5d       	subi	r24, 0xD0	; 208
    33be:	81 83       	std	Z+1, r24	; 0x01
	}
	
	TtStr.Time[2] = ':';	
    33c0:	8a e3       	ldi	r24, 0x3A	; 58
    33c2:	80 93 f1 05 	sts	0x05F1, r24	; 0x8005f1 <TtStr+0x2>
	
	if ( Minute == 0xff )
    33c6:	6f 3f       	cpi	r22, 0xFF	; 255
    33c8:	31 f4       	brne	.+12     	; 0x33d6 <dec_ttostr+0x4e>
	{
		TtStr.Time[3] = '0';
    33ca:	ef ee       	ldi	r30, 0xEF	; 239
    33cc:	f5 e0       	ldi	r31, 0x05	; 5
    33ce:	80 e3       	ldi	r24, 0x30	; 48
    33d0:	83 83       	std	Z+3, r24	; 0x03
		TtStr.Time[4] = '0';		
    33d2:	84 83       	std	Z+4, r24	; 0x04
    33d4:	14 c0       	rjmp	.+40     	; 0x33fe <dec_ttostr+0x76>
	}else
	{
		TtStr.Time[3] = ( ( Minute / 10 ) ) + 48;
    33d6:	ef ee       	ldi	r30, 0xEF	; 239
    33d8:	f5 e0       	ldi	r31, 0x05	; 5
    33da:	8d ec       	ldi	r24, 0xCD	; 205
    33dc:	68 9f       	mul	r22, r24
    33de:	81 2d       	mov	r24, r1
    33e0:	11 24       	eor	r1, r1
    33e2:	86 95       	lsr	r24
    33e4:	86 95       	lsr	r24
    33e6:	86 95       	lsr	r24
    33e8:	90 e3       	ldi	r25, 0x30	; 48
    33ea:	98 0f       	add	r25, r24
    33ec:	93 83       	std	Z+3, r25	; 0x03
		TtStr.Time[4] = ( Minute % 10 ) + 48;		
    33ee:	88 0f       	add	r24, r24
    33f0:	98 2f       	mov	r25, r24
    33f2:	99 0f       	add	r25, r25
    33f4:	99 0f       	add	r25, r25
    33f6:	89 0f       	add	r24, r25
    33f8:	68 1b       	sub	r22, r24
    33fa:	60 5d       	subi	r22, 0xD0	; 208
    33fc:	64 83       	std	Z+4, r22	; 0x04
	}
	
	TtStr.Time[5] = ':';
    33fe:	8a e3       	ldi	r24, 0x3A	; 58
    3400:	80 93 f4 05 	sts	0x05F4, r24	; 0x8005f4 <TtStr+0x5>
	
	if ( Secound == 0xff )
    3404:	4f 3f       	cpi	r20, 0xFF	; 255
    3406:	31 f4       	brne	.+12     	; 0x3414 <dec_ttostr+0x8c>
	{
		TtStr.Time[6] = '0';
    3408:	ef ee       	ldi	r30, 0xEF	; 239
    340a:	f5 e0       	ldi	r31, 0x05	; 5
    340c:	80 e3       	ldi	r24, 0x30	; 48
    340e:	86 83       	std	Z+6, r24	; 0x06
		TtStr.Time[7] = '0';	
    3410:	87 83       	std	Z+7, r24	; 0x07
    3412:	14 c0       	rjmp	.+40     	; 0x343c <dec_ttostr+0xb4>
	}else
	{
		TtStr.Time[6] = ( ( Secound / 10 ) ) + 48;
    3414:	ef ee       	ldi	r30, 0xEF	; 239
    3416:	f5 e0       	ldi	r31, 0x05	; 5
    3418:	8d ec       	ldi	r24, 0xCD	; 205
    341a:	48 9f       	mul	r20, r24
    341c:	81 2d       	mov	r24, r1
    341e:	11 24       	eor	r1, r1
    3420:	86 95       	lsr	r24
    3422:	86 95       	lsr	r24
    3424:	86 95       	lsr	r24
    3426:	90 e3       	ldi	r25, 0x30	; 48
    3428:	98 0f       	add	r25, r24
    342a:	96 83       	std	Z+6, r25	; 0x06
		TtStr.Time[7] = ( Secound % 10 ) + 48;
    342c:	88 0f       	add	r24, r24
    342e:	98 2f       	mov	r25, r24
    3430:	99 0f       	add	r25, r25
    3432:	99 0f       	add	r25, r25
    3434:	89 0f       	add	r24, r25
    3436:	48 1b       	sub	r20, r24
    3438:	40 5d       	subi	r20, 0xD0	; 208
    343a:	47 83       	std	Z+7, r20	; 0x07
	}
	
	TtStr.Time[8] = '\0';
    343c:	10 92 f7 05 	sts	0x05F7, r1	; 0x8005f7 <TtStr+0x8>
	
	return TtStr.Time;
}
    3440:	8f ee       	ldi	r24, 0xEF	; 239
    3442:	95 e0       	ldi	r25, 0x05	; 5
    3444:	08 95       	ret

00003446 <__subsf3>:
    3446:	50 58       	subi	r21, 0x80	; 128

00003448 <__addsf3>:
    3448:	bb 27       	eor	r27, r27
    344a:	aa 27       	eor	r26, r26
    344c:	0e 94 3b 1a 	call	0x3476	; 0x3476 <__addsf3x>
    3450:	0c 94 1a 1b 	jmp	0x3634	; 0x3634 <__fp_round>
    3454:	0e 94 0c 1b 	call	0x3618	; 0x3618 <__fp_pscA>
    3458:	38 f0       	brcs	.+14     	; 0x3468 <__addsf3+0x20>
    345a:	0e 94 13 1b 	call	0x3626	; 0x3626 <__fp_pscB>
    345e:	20 f0       	brcs	.+8      	; 0x3468 <__addsf3+0x20>
    3460:	39 f4       	brne	.+14     	; 0x3470 <__addsf3+0x28>
    3462:	9f 3f       	cpi	r25, 0xFF	; 255
    3464:	19 f4       	brne	.+6      	; 0x346c <__addsf3+0x24>
    3466:	26 f4       	brtc	.+8      	; 0x3470 <__addsf3+0x28>
    3468:	0c 94 09 1b 	jmp	0x3612	; 0x3612 <__fp_nan>
    346c:	0e f4       	brtc	.+2      	; 0x3470 <__addsf3+0x28>
    346e:	e0 95       	com	r30
    3470:	e7 fb       	bst	r30, 7
    3472:	0c 94 03 1b 	jmp	0x3606	; 0x3606 <__fp_inf>

00003476 <__addsf3x>:
    3476:	e9 2f       	mov	r30, r25
    3478:	0e 94 2b 1b 	call	0x3656	; 0x3656 <__fp_split3>
    347c:	58 f3       	brcs	.-42     	; 0x3454 <__addsf3+0xc>
    347e:	ba 17       	cp	r27, r26
    3480:	62 07       	cpc	r22, r18
    3482:	73 07       	cpc	r23, r19
    3484:	84 07       	cpc	r24, r20
    3486:	95 07       	cpc	r25, r21
    3488:	20 f0       	brcs	.+8      	; 0x3492 <__addsf3x+0x1c>
    348a:	79 f4       	brne	.+30     	; 0x34aa <__addsf3x+0x34>
    348c:	a6 f5       	brtc	.+104    	; 0x34f6 <__addsf3x+0x80>
    348e:	0c 94 4d 1b 	jmp	0x369a	; 0x369a <__fp_zero>
    3492:	0e f4       	brtc	.+2      	; 0x3496 <__addsf3x+0x20>
    3494:	e0 95       	com	r30
    3496:	0b 2e       	mov	r0, r27
    3498:	ba 2f       	mov	r27, r26
    349a:	a0 2d       	mov	r26, r0
    349c:	0b 01       	movw	r0, r22
    349e:	b9 01       	movw	r22, r18
    34a0:	90 01       	movw	r18, r0
    34a2:	0c 01       	movw	r0, r24
    34a4:	ca 01       	movw	r24, r20
    34a6:	a0 01       	movw	r20, r0
    34a8:	11 24       	eor	r1, r1
    34aa:	ff 27       	eor	r31, r31
    34ac:	59 1b       	sub	r21, r25
    34ae:	99 f0       	breq	.+38     	; 0x34d6 <__addsf3x+0x60>
    34b0:	59 3f       	cpi	r21, 0xF9	; 249
    34b2:	50 f4       	brcc	.+20     	; 0x34c8 <__addsf3x+0x52>
    34b4:	50 3e       	cpi	r21, 0xE0	; 224
    34b6:	68 f1       	brcs	.+90     	; 0x3512 <__addsf3x+0x9c>
    34b8:	1a 16       	cp	r1, r26
    34ba:	f0 40       	sbci	r31, 0x00	; 0
    34bc:	a2 2f       	mov	r26, r18
    34be:	23 2f       	mov	r18, r19
    34c0:	34 2f       	mov	r19, r20
    34c2:	44 27       	eor	r20, r20
    34c4:	58 5f       	subi	r21, 0xF8	; 248
    34c6:	f3 cf       	rjmp	.-26     	; 0x34ae <__addsf3x+0x38>
    34c8:	46 95       	lsr	r20
    34ca:	37 95       	ror	r19
    34cc:	27 95       	ror	r18
    34ce:	a7 95       	ror	r26
    34d0:	f0 40       	sbci	r31, 0x00	; 0
    34d2:	53 95       	inc	r21
    34d4:	c9 f7       	brne	.-14     	; 0x34c8 <__addsf3x+0x52>
    34d6:	7e f4       	brtc	.+30     	; 0x34f6 <__addsf3x+0x80>
    34d8:	1f 16       	cp	r1, r31
    34da:	ba 0b       	sbc	r27, r26
    34dc:	62 0b       	sbc	r22, r18
    34de:	73 0b       	sbc	r23, r19
    34e0:	84 0b       	sbc	r24, r20
    34e2:	ba f0       	brmi	.+46     	; 0x3512 <__addsf3x+0x9c>
    34e4:	91 50       	subi	r25, 0x01	; 1
    34e6:	a1 f0       	breq	.+40     	; 0x3510 <__addsf3x+0x9a>
    34e8:	ff 0f       	add	r31, r31
    34ea:	bb 1f       	adc	r27, r27
    34ec:	66 1f       	adc	r22, r22
    34ee:	77 1f       	adc	r23, r23
    34f0:	88 1f       	adc	r24, r24
    34f2:	c2 f7       	brpl	.-16     	; 0x34e4 <__addsf3x+0x6e>
    34f4:	0e c0       	rjmp	.+28     	; 0x3512 <__addsf3x+0x9c>
    34f6:	ba 0f       	add	r27, r26
    34f8:	62 1f       	adc	r22, r18
    34fa:	73 1f       	adc	r23, r19
    34fc:	84 1f       	adc	r24, r20
    34fe:	48 f4       	brcc	.+18     	; 0x3512 <__addsf3x+0x9c>
    3500:	87 95       	ror	r24
    3502:	77 95       	ror	r23
    3504:	67 95       	ror	r22
    3506:	b7 95       	ror	r27
    3508:	f7 95       	ror	r31
    350a:	9e 3f       	cpi	r25, 0xFE	; 254
    350c:	08 f0       	brcs	.+2      	; 0x3510 <__addsf3x+0x9a>
    350e:	b0 cf       	rjmp	.-160    	; 0x3470 <__addsf3+0x28>
    3510:	93 95       	inc	r25
    3512:	88 0f       	add	r24, r24
    3514:	08 f0       	brcs	.+2      	; 0x3518 <__addsf3x+0xa2>
    3516:	99 27       	eor	r25, r25
    3518:	ee 0f       	add	r30, r30
    351a:	97 95       	ror	r25
    351c:	87 95       	ror	r24
    351e:	08 95       	ret

00003520 <__fixsfsi>:
    3520:	0e 94 97 1a 	call	0x352e	; 0x352e <__fixunssfsi>
    3524:	68 94       	set
    3526:	b1 11       	cpse	r27, r1
    3528:	0c 94 4e 1b 	jmp	0x369c	; 0x369c <__fp_szero>
    352c:	08 95       	ret

0000352e <__fixunssfsi>:
    352e:	0e 94 33 1b 	call	0x3666	; 0x3666 <__fp_splitA>
    3532:	88 f0       	brcs	.+34     	; 0x3556 <__fixunssfsi+0x28>
    3534:	9f 57       	subi	r25, 0x7F	; 127
    3536:	98 f0       	brcs	.+38     	; 0x355e <__fixunssfsi+0x30>
    3538:	b9 2f       	mov	r27, r25
    353a:	99 27       	eor	r25, r25
    353c:	b7 51       	subi	r27, 0x17	; 23
    353e:	b0 f0       	brcs	.+44     	; 0x356c <__fixunssfsi+0x3e>
    3540:	e1 f0       	breq	.+56     	; 0x357a <__fixunssfsi+0x4c>
    3542:	66 0f       	add	r22, r22
    3544:	77 1f       	adc	r23, r23
    3546:	88 1f       	adc	r24, r24
    3548:	99 1f       	adc	r25, r25
    354a:	1a f0       	brmi	.+6      	; 0x3552 <__fixunssfsi+0x24>
    354c:	ba 95       	dec	r27
    354e:	c9 f7       	brne	.-14     	; 0x3542 <__fixunssfsi+0x14>
    3550:	14 c0       	rjmp	.+40     	; 0x357a <__fixunssfsi+0x4c>
    3552:	b1 30       	cpi	r27, 0x01	; 1
    3554:	91 f0       	breq	.+36     	; 0x357a <__fixunssfsi+0x4c>
    3556:	0e 94 4d 1b 	call	0x369a	; 0x369a <__fp_zero>
    355a:	b1 e0       	ldi	r27, 0x01	; 1
    355c:	08 95       	ret
    355e:	0c 94 4d 1b 	jmp	0x369a	; 0x369a <__fp_zero>
    3562:	67 2f       	mov	r22, r23
    3564:	78 2f       	mov	r23, r24
    3566:	88 27       	eor	r24, r24
    3568:	b8 5f       	subi	r27, 0xF8	; 248
    356a:	39 f0       	breq	.+14     	; 0x357a <__fixunssfsi+0x4c>
    356c:	b9 3f       	cpi	r27, 0xF9	; 249
    356e:	cc f3       	brlt	.-14     	; 0x3562 <__fixunssfsi+0x34>
    3570:	86 95       	lsr	r24
    3572:	77 95       	ror	r23
    3574:	67 95       	ror	r22
    3576:	b3 95       	inc	r27
    3578:	d9 f7       	brne	.-10     	; 0x3570 <__fixunssfsi+0x42>
    357a:	3e f4       	brtc	.+14     	; 0x358a <__fixunssfsi+0x5c>
    357c:	90 95       	com	r25
    357e:	80 95       	com	r24
    3580:	70 95       	com	r23
    3582:	61 95       	neg	r22
    3584:	7f 4f       	sbci	r23, 0xFF	; 255
    3586:	8f 4f       	sbci	r24, 0xFF	; 255
    3588:	9f 4f       	sbci	r25, 0xFF	; 255
    358a:	08 95       	ret

0000358c <__floatunsisf>:
    358c:	e8 94       	clt
    358e:	09 c0       	rjmp	.+18     	; 0x35a2 <__floatsisf+0x12>

00003590 <__floatsisf>:
    3590:	97 fb       	bst	r25, 7
    3592:	3e f4       	brtc	.+14     	; 0x35a2 <__floatsisf+0x12>
    3594:	90 95       	com	r25
    3596:	80 95       	com	r24
    3598:	70 95       	com	r23
    359a:	61 95       	neg	r22
    359c:	7f 4f       	sbci	r23, 0xFF	; 255
    359e:	8f 4f       	sbci	r24, 0xFF	; 255
    35a0:	9f 4f       	sbci	r25, 0xFF	; 255
    35a2:	99 23       	and	r25, r25
    35a4:	a9 f0       	breq	.+42     	; 0x35d0 <__floatsisf+0x40>
    35a6:	f9 2f       	mov	r31, r25
    35a8:	96 e9       	ldi	r25, 0x96	; 150
    35aa:	bb 27       	eor	r27, r27
    35ac:	93 95       	inc	r25
    35ae:	f6 95       	lsr	r31
    35b0:	87 95       	ror	r24
    35b2:	77 95       	ror	r23
    35b4:	67 95       	ror	r22
    35b6:	b7 95       	ror	r27
    35b8:	f1 11       	cpse	r31, r1
    35ba:	f8 cf       	rjmp	.-16     	; 0x35ac <__floatsisf+0x1c>
    35bc:	fa f4       	brpl	.+62     	; 0x35fc <__floatsisf+0x6c>
    35be:	bb 0f       	add	r27, r27
    35c0:	11 f4       	brne	.+4      	; 0x35c6 <__floatsisf+0x36>
    35c2:	60 ff       	sbrs	r22, 0
    35c4:	1b c0       	rjmp	.+54     	; 0x35fc <__floatsisf+0x6c>
    35c6:	6f 5f       	subi	r22, 0xFF	; 255
    35c8:	7f 4f       	sbci	r23, 0xFF	; 255
    35ca:	8f 4f       	sbci	r24, 0xFF	; 255
    35cc:	9f 4f       	sbci	r25, 0xFF	; 255
    35ce:	16 c0       	rjmp	.+44     	; 0x35fc <__floatsisf+0x6c>
    35d0:	88 23       	and	r24, r24
    35d2:	11 f0       	breq	.+4      	; 0x35d8 <__floatsisf+0x48>
    35d4:	96 e9       	ldi	r25, 0x96	; 150
    35d6:	11 c0       	rjmp	.+34     	; 0x35fa <__floatsisf+0x6a>
    35d8:	77 23       	and	r23, r23
    35da:	21 f0       	breq	.+8      	; 0x35e4 <__floatsisf+0x54>
    35dc:	9e e8       	ldi	r25, 0x8E	; 142
    35de:	87 2f       	mov	r24, r23
    35e0:	76 2f       	mov	r23, r22
    35e2:	05 c0       	rjmp	.+10     	; 0x35ee <__floatsisf+0x5e>
    35e4:	66 23       	and	r22, r22
    35e6:	71 f0       	breq	.+28     	; 0x3604 <__floatsisf+0x74>
    35e8:	96 e8       	ldi	r25, 0x86	; 134
    35ea:	86 2f       	mov	r24, r22
    35ec:	70 e0       	ldi	r23, 0x00	; 0
    35ee:	60 e0       	ldi	r22, 0x00	; 0
    35f0:	2a f0       	brmi	.+10     	; 0x35fc <__floatsisf+0x6c>
    35f2:	9a 95       	dec	r25
    35f4:	66 0f       	add	r22, r22
    35f6:	77 1f       	adc	r23, r23
    35f8:	88 1f       	adc	r24, r24
    35fa:	da f7       	brpl	.-10     	; 0x35f2 <__floatsisf+0x62>
    35fc:	88 0f       	add	r24, r24
    35fe:	96 95       	lsr	r25
    3600:	87 95       	ror	r24
    3602:	97 f9       	bld	r25, 7
    3604:	08 95       	ret

00003606 <__fp_inf>:
    3606:	97 f9       	bld	r25, 7
    3608:	9f 67       	ori	r25, 0x7F	; 127
    360a:	80 e8       	ldi	r24, 0x80	; 128
    360c:	70 e0       	ldi	r23, 0x00	; 0
    360e:	60 e0       	ldi	r22, 0x00	; 0
    3610:	08 95       	ret

00003612 <__fp_nan>:
    3612:	9f ef       	ldi	r25, 0xFF	; 255
    3614:	80 ec       	ldi	r24, 0xC0	; 192
    3616:	08 95       	ret

00003618 <__fp_pscA>:
    3618:	00 24       	eor	r0, r0
    361a:	0a 94       	dec	r0
    361c:	16 16       	cp	r1, r22
    361e:	17 06       	cpc	r1, r23
    3620:	18 06       	cpc	r1, r24
    3622:	09 06       	cpc	r0, r25
    3624:	08 95       	ret

00003626 <__fp_pscB>:
    3626:	00 24       	eor	r0, r0
    3628:	0a 94       	dec	r0
    362a:	12 16       	cp	r1, r18
    362c:	13 06       	cpc	r1, r19
    362e:	14 06       	cpc	r1, r20
    3630:	05 06       	cpc	r0, r21
    3632:	08 95       	ret

00003634 <__fp_round>:
    3634:	09 2e       	mov	r0, r25
    3636:	03 94       	inc	r0
    3638:	00 0c       	add	r0, r0
    363a:	11 f4       	brne	.+4      	; 0x3640 <__fp_round+0xc>
    363c:	88 23       	and	r24, r24
    363e:	52 f0       	brmi	.+20     	; 0x3654 <__fp_round+0x20>
    3640:	bb 0f       	add	r27, r27
    3642:	40 f4       	brcc	.+16     	; 0x3654 <__fp_round+0x20>
    3644:	bf 2b       	or	r27, r31
    3646:	11 f4       	brne	.+4      	; 0x364c <__fp_round+0x18>
    3648:	60 ff       	sbrs	r22, 0
    364a:	04 c0       	rjmp	.+8      	; 0x3654 <__fp_round+0x20>
    364c:	6f 5f       	subi	r22, 0xFF	; 255
    364e:	7f 4f       	sbci	r23, 0xFF	; 255
    3650:	8f 4f       	sbci	r24, 0xFF	; 255
    3652:	9f 4f       	sbci	r25, 0xFF	; 255
    3654:	08 95       	ret

00003656 <__fp_split3>:
    3656:	57 fd       	sbrc	r21, 7
    3658:	90 58       	subi	r25, 0x80	; 128
    365a:	44 0f       	add	r20, r20
    365c:	55 1f       	adc	r21, r21
    365e:	59 f0       	breq	.+22     	; 0x3676 <__fp_splitA+0x10>
    3660:	5f 3f       	cpi	r21, 0xFF	; 255
    3662:	71 f0       	breq	.+28     	; 0x3680 <__fp_splitA+0x1a>
    3664:	47 95       	ror	r20

00003666 <__fp_splitA>:
    3666:	88 0f       	add	r24, r24
    3668:	97 fb       	bst	r25, 7
    366a:	99 1f       	adc	r25, r25
    366c:	61 f0       	breq	.+24     	; 0x3686 <__fp_splitA+0x20>
    366e:	9f 3f       	cpi	r25, 0xFF	; 255
    3670:	79 f0       	breq	.+30     	; 0x3690 <__fp_splitA+0x2a>
    3672:	87 95       	ror	r24
    3674:	08 95       	ret
    3676:	12 16       	cp	r1, r18
    3678:	13 06       	cpc	r1, r19
    367a:	14 06       	cpc	r1, r20
    367c:	55 1f       	adc	r21, r21
    367e:	f2 cf       	rjmp	.-28     	; 0x3664 <__fp_split3+0xe>
    3680:	46 95       	lsr	r20
    3682:	f1 df       	rcall	.-30     	; 0x3666 <__fp_splitA>
    3684:	08 c0       	rjmp	.+16     	; 0x3696 <__fp_splitA+0x30>
    3686:	16 16       	cp	r1, r22
    3688:	17 06       	cpc	r1, r23
    368a:	18 06       	cpc	r1, r24
    368c:	99 1f       	adc	r25, r25
    368e:	f1 cf       	rjmp	.-30     	; 0x3672 <__fp_splitA+0xc>
    3690:	86 95       	lsr	r24
    3692:	71 05       	cpc	r23, r1
    3694:	61 05       	cpc	r22, r1
    3696:	08 94       	sec
    3698:	08 95       	ret

0000369a <__fp_zero>:
    369a:	e8 94       	clt

0000369c <__fp_szero>:
    369c:	bb 27       	eor	r27, r27
    369e:	66 27       	eor	r22, r22
    36a0:	77 27       	eor	r23, r23
    36a2:	cb 01       	movw	r24, r22
    36a4:	97 f9       	bld	r25, 7
    36a6:	08 95       	ret

000036a8 <__mulsf3>:
    36a8:	0e 94 67 1b 	call	0x36ce	; 0x36ce <__mulsf3x>
    36ac:	0c 94 1a 1b 	jmp	0x3634	; 0x3634 <__fp_round>
    36b0:	0e 94 0c 1b 	call	0x3618	; 0x3618 <__fp_pscA>
    36b4:	38 f0       	brcs	.+14     	; 0x36c4 <__mulsf3+0x1c>
    36b6:	0e 94 13 1b 	call	0x3626	; 0x3626 <__fp_pscB>
    36ba:	20 f0       	brcs	.+8      	; 0x36c4 <__mulsf3+0x1c>
    36bc:	95 23       	and	r25, r21
    36be:	11 f0       	breq	.+4      	; 0x36c4 <__mulsf3+0x1c>
    36c0:	0c 94 03 1b 	jmp	0x3606	; 0x3606 <__fp_inf>
    36c4:	0c 94 09 1b 	jmp	0x3612	; 0x3612 <__fp_nan>
    36c8:	11 24       	eor	r1, r1
    36ca:	0c 94 4e 1b 	jmp	0x369c	; 0x369c <__fp_szero>

000036ce <__mulsf3x>:
    36ce:	0e 94 2b 1b 	call	0x3656	; 0x3656 <__fp_split3>
    36d2:	70 f3       	brcs	.-36     	; 0x36b0 <__mulsf3+0x8>

000036d4 <__mulsf3_pse>:
    36d4:	95 9f       	mul	r25, r21
    36d6:	c1 f3       	breq	.-16     	; 0x36c8 <__mulsf3+0x20>
    36d8:	95 0f       	add	r25, r21
    36da:	50 e0       	ldi	r21, 0x00	; 0
    36dc:	55 1f       	adc	r21, r21
    36de:	62 9f       	mul	r22, r18
    36e0:	f0 01       	movw	r30, r0
    36e2:	72 9f       	mul	r23, r18
    36e4:	bb 27       	eor	r27, r27
    36e6:	f0 0d       	add	r31, r0
    36e8:	b1 1d       	adc	r27, r1
    36ea:	63 9f       	mul	r22, r19
    36ec:	aa 27       	eor	r26, r26
    36ee:	f0 0d       	add	r31, r0
    36f0:	b1 1d       	adc	r27, r1
    36f2:	aa 1f       	adc	r26, r26
    36f4:	64 9f       	mul	r22, r20
    36f6:	66 27       	eor	r22, r22
    36f8:	b0 0d       	add	r27, r0
    36fa:	a1 1d       	adc	r26, r1
    36fc:	66 1f       	adc	r22, r22
    36fe:	82 9f       	mul	r24, r18
    3700:	22 27       	eor	r18, r18
    3702:	b0 0d       	add	r27, r0
    3704:	a1 1d       	adc	r26, r1
    3706:	62 1f       	adc	r22, r18
    3708:	73 9f       	mul	r23, r19
    370a:	b0 0d       	add	r27, r0
    370c:	a1 1d       	adc	r26, r1
    370e:	62 1f       	adc	r22, r18
    3710:	83 9f       	mul	r24, r19
    3712:	a0 0d       	add	r26, r0
    3714:	61 1d       	adc	r22, r1
    3716:	22 1f       	adc	r18, r18
    3718:	74 9f       	mul	r23, r20
    371a:	33 27       	eor	r19, r19
    371c:	a0 0d       	add	r26, r0
    371e:	61 1d       	adc	r22, r1
    3720:	23 1f       	adc	r18, r19
    3722:	84 9f       	mul	r24, r20
    3724:	60 0d       	add	r22, r0
    3726:	21 1d       	adc	r18, r1
    3728:	82 2f       	mov	r24, r18
    372a:	76 2f       	mov	r23, r22
    372c:	6a 2f       	mov	r22, r26
    372e:	11 24       	eor	r1, r1
    3730:	9f 57       	subi	r25, 0x7F	; 127
    3732:	50 40       	sbci	r21, 0x00	; 0
    3734:	9a f0       	brmi	.+38     	; 0x375c <__mulsf3_pse+0x88>
    3736:	f1 f0       	breq	.+60     	; 0x3774 <__mulsf3_pse+0xa0>
    3738:	88 23       	and	r24, r24
    373a:	4a f0       	brmi	.+18     	; 0x374e <__mulsf3_pse+0x7a>
    373c:	ee 0f       	add	r30, r30
    373e:	ff 1f       	adc	r31, r31
    3740:	bb 1f       	adc	r27, r27
    3742:	66 1f       	adc	r22, r22
    3744:	77 1f       	adc	r23, r23
    3746:	88 1f       	adc	r24, r24
    3748:	91 50       	subi	r25, 0x01	; 1
    374a:	50 40       	sbci	r21, 0x00	; 0
    374c:	a9 f7       	brne	.-22     	; 0x3738 <__mulsf3_pse+0x64>
    374e:	9e 3f       	cpi	r25, 0xFE	; 254
    3750:	51 05       	cpc	r21, r1
    3752:	80 f0       	brcs	.+32     	; 0x3774 <__mulsf3_pse+0xa0>
    3754:	0c 94 03 1b 	jmp	0x3606	; 0x3606 <__fp_inf>
    3758:	0c 94 4e 1b 	jmp	0x369c	; 0x369c <__fp_szero>
    375c:	5f 3f       	cpi	r21, 0xFF	; 255
    375e:	e4 f3       	brlt	.-8      	; 0x3758 <__mulsf3_pse+0x84>
    3760:	98 3e       	cpi	r25, 0xE8	; 232
    3762:	d4 f3       	brlt	.-12     	; 0x3758 <__mulsf3_pse+0x84>
    3764:	86 95       	lsr	r24
    3766:	77 95       	ror	r23
    3768:	67 95       	ror	r22
    376a:	b7 95       	ror	r27
    376c:	f7 95       	ror	r31
    376e:	e7 95       	ror	r30
    3770:	9f 5f       	subi	r25, 0xFF	; 255
    3772:	c1 f7       	brne	.-16     	; 0x3764 <__mulsf3_pse+0x90>
    3774:	fe 2b       	or	r31, r30
    3776:	88 0f       	add	r24, r24
    3778:	91 1d       	adc	r25, r1
    377a:	96 95       	lsr	r25
    377c:	87 95       	ror	r24
    377e:	97 f9       	bld	r25, 7
    3780:	08 95       	ret

00003782 <__mulsi3>:
    3782:	db 01       	movw	r26, r22
    3784:	8f 93       	push	r24
    3786:	9f 93       	push	r25
    3788:	0e 94 21 1c 	call	0x3842	; 0x3842 <__muluhisi3>
    378c:	bf 91       	pop	r27
    378e:	af 91       	pop	r26
    3790:	a2 9f       	mul	r26, r18
    3792:	80 0d       	add	r24, r0
    3794:	91 1d       	adc	r25, r1
    3796:	a3 9f       	mul	r26, r19
    3798:	90 0d       	add	r25, r0
    379a:	b2 9f       	mul	r27, r18
    379c:	90 0d       	add	r25, r0
    379e:	11 24       	eor	r1, r1
    37a0:	08 95       	ret

000037a2 <__udivmodsi4>:
    37a2:	a1 e2       	ldi	r26, 0x21	; 33
    37a4:	1a 2e       	mov	r1, r26
    37a6:	aa 1b       	sub	r26, r26
    37a8:	bb 1b       	sub	r27, r27
    37aa:	fd 01       	movw	r30, r26
    37ac:	0d c0       	rjmp	.+26     	; 0x37c8 <__udivmodsi4_ep>

000037ae <__udivmodsi4_loop>:
    37ae:	aa 1f       	adc	r26, r26
    37b0:	bb 1f       	adc	r27, r27
    37b2:	ee 1f       	adc	r30, r30
    37b4:	ff 1f       	adc	r31, r31
    37b6:	a2 17       	cp	r26, r18
    37b8:	b3 07       	cpc	r27, r19
    37ba:	e4 07       	cpc	r30, r20
    37bc:	f5 07       	cpc	r31, r21
    37be:	20 f0       	brcs	.+8      	; 0x37c8 <__udivmodsi4_ep>
    37c0:	a2 1b       	sub	r26, r18
    37c2:	b3 0b       	sbc	r27, r19
    37c4:	e4 0b       	sbc	r30, r20
    37c6:	f5 0b       	sbc	r31, r21

000037c8 <__udivmodsi4_ep>:
    37c8:	66 1f       	adc	r22, r22
    37ca:	77 1f       	adc	r23, r23
    37cc:	88 1f       	adc	r24, r24
    37ce:	99 1f       	adc	r25, r25
    37d0:	1a 94       	dec	r1
    37d2:	69 f7       	brne	.-38     	; 0x37ae <__udivmodsi4_loop>
    37d4:	60 95       	com	r22
    37d6:	70 95       	com	r23
    37d8:	80 95       	com	r24
    37da:	90 95       	com	r25
    37dc:	9b 01       	movw	r18, r22
    37de:	ac 01       	movw	r20, r24
    37e0:	bd 01       	movw	r22, r26
    37e2:	cf 01       	movw	r24, r30
    37e4:	08 95       	ret

000037e6 <__divmodsi4>:
    37e6:	05 2e       	mov	r0, r21
    37e8:	97 fb       	bst	r25, 7
    37ea:	1e f4       	brtc	.+6      	; 0x37f2 <__divmodsi4+0xc>
    37ec:	00 94       	com	r0
    37ee:	0e 94 0a 1c 	call	0x3814	; 0x3814 <__negsi2>
    37f2:	57 fd       	sbrc	r21, 7
    37f4:	07 d0       	rcall	.+14     	; 0x3804 <__divmodsi4_neg2>
    37f6:	0e 94 d1 1b 	call	0x37a2	; 0x37a2 <__udivmodsi4>
    37fa:	07 fc       	sbrc	r0, 7
    37fc:	03 d0       	rcall	.+6      	; 0x3804 <__divmodsi4_neg2>
    37fe:	4e f4       	brtc	.+18     	; 0x3812 <__divmodsi4_exit>
    3800:	0c 94 0a 1c 	jmp	0x3814	; 0x3814 <__negsi2>

00003804 <__divmodsi4_neg2>:
    3804:	50 95       	com	r21
    3806:	40 95       	com	r20
    3808:	30 95       	com	r19
    380a:	21 95       	neg	r18
    380c:	3f 4f       	sbci	r19, 0xFF	; 255
    380e:	4f 4f       	sbci	r20, 0xFF	; 255
    3810:	5f 4f       	sbci	r21, 0xFF	; 255

00003812 <__divmodsi4_exit>:
    3812:	08 95       	ret

00003814 <__negsi2>:
    3814:	90 95       	com	r25
    3816:	80 95       	com	r24
    3818:	70 95       	com	r23
    381a:	61 95       	neg	r22
    381c:	7f 4f       	sbci	r23, 0xFF	; 255
    381e:	8f 4f       	sbci	r24, 0xFF	; 255
    3820:	9f 4f       	sbci	r25, 0xFF	; 255
    3822:	08 95       	ret

00003824 <__umulhisi3>:
    3824:	a2 9f       	mul	r26, r18
    3826:	b0 01       	movw	r22, r0
    3828:	b3 9f       	mul	r27, r19
    382a:	c0 01       	movw	r24, r0
    382c:	a3 9f       	mul	r26, r19
    382e:	70 0d       	add	r23, r0
    3830:	81 1d       	adc	r24, r1
    3832:	11 24       	eor	r1, r1
    3834:	91 1d       	adc	r25, r1
    3836:	b2 9f       	mul	r27, r18
    3838:	70 0d       	add	r23, r0
    383a:	81 1d       	adc	r24, r1
    383c:	11 24       	eor	r1, r1
    383e:	91 1d       	adc	r25, r1
    3840:	08 95       	ret

00003842 <__muluhisi3>:
    3842:	0e 94 12 1c 	call	0x3824	; 0x3824 <__umulhisi3>
    3846:	a5 9f       	mul	r26, r21
    3848:	90 0d       	add	r25, r0
    384a:	b4 9f       	mul	r27, r20
    384c:	90 0d       	add	r25, r0
    384e:	a4 9f       	mul	r26, r20
    3850:	80 0d       	add	r24, r0
    3852:	91 1d       	adc	r25, r1
    3854:	11 24       	eor	r1, r1
    3856:	08 95       	ret

00003858 <__mulshisi3>:
    3858:	b7 ff       	sbrs	r27, 7
    385a:	0c 94 21 1c 	jmp	0x3842	; 0x3842 <__muluhisi3>

0000385e <__mulohisi3>:
    385e:	0e 94 21 1c 	call	0x3842	; 0x3842 <__muluhisi3>
    3862:	82 1b       	sub	r24, r18
    3864:	93 0b       	sbc	r25, r19
    3866:	08 95       	ret

00003868 <__umulsidi3>:
    3868:	e8 94       	clt

0000386a <__umulsidi3_helper>:
    386a:	df 93       	push	r29
    386c:	cf 93       	push	r28
    386e:	fc 01       	movw	r30, r24
    3870:	db 01       	movw	r26, r22
    3872:	0e 94 12 1c 	call	0x3824	; 0x3824 <__umulhisi3>
    3876:	7f 93       	push	r23
    3878:	6f 93       	push	r22
    387a:	e9 01       	movw	r28, r18
    387c:	9a 01       	movw	r18, r20
    387e:	ac 01       	movw	r20, r24
    3880:	bf 93       	push	r27
    3882:	af 93       	push	r26
    3884:	3f 93       	push	r19
    3886:	2f 93       	push	r18
    3888:	df 01       	movw	r26, r30
    388a:	0e 94 12 1c 	call	0x3824	; 0x3824 <__umulhisi3>
    388e:	26 f4       	brtc	.+8      	; 0x3898 <__umulsidi3_helper+0x2e>
    3890:	6c 1b       	sub	r22, r28
    3892:	7d 0b       	sbc	r23, r29
    3894:	82 0b       	sbc	r24, r18
    3896:	93 0b       	sbc	r25, r19
    3898:	9e 01       	movw	r18, r28
    389a:	eb 01       	movw	r28, r22
    389c:	fc 01       	movw	r30, r24
    389e:	0e 94 7d 1c 	call	0x38fa	; 0x38fa <__muldi3_6>
    38a2:	af 91       	pop	r26
    38a4:	bf 91       	pop	r27
    38a6:	2f 91       	pop	r18
    38a8:	3f 91       	pop	r19
    38aa:	0e 94 7d 1c 	call	0x38fa	; 0x38fa <__muldi3_6>
    38ae:	be 01       	movw	r22, r28
    38b0:	cf 01       	movw	r24, r30
    38b2:	f9 01       	movw	r30, r18
    38b4:	2f 91       	pop	r18
    38b6:	3f 91       	pop	r19
    38b8:	cf 91       	pop	r28
    38ba:	df 91       	pop	r29
    38bc:	08 95       	ret

000038be <__ashrdi3>:
    38be:	97 fb       	bst	r25, 7
    38c0:	10 f8       	bld	r1, 0

000038c2 <__lshrdi3>:
    38c2:	16 94       	lsr	r1
    38c4:	00 08       	sbc	r0, r0
    38c6:	0f 93       	push	r16
    38c8:	08 30       	cpi	r16, 0x08	; 8
    38ca:	98 f0       	brcs	.+38     	; 0x38f2 <__lshrdi3+0x30>
    38cc:	08 50       	subi	r16, 0x08	; 8
    38ce:	23 2f       	mov	r18, r19
    38d0:	34 2f       	mov	r19, r20
    38d2:	45 2f       	mov	r20, r21
    38d4:	56 2f       	mov	r21, r22
    38d6:	67 2f       	mov	r22, r23
    38d8:	78 2f       	mov	r23, r24
    38da:	89 2f       	mov	r24, r25
    38dc:	90 2d       	mov	r25, r0
    38de:	f4 cf       	rjmp	.-24     	; 0x38c8 <__lshrdi3+0x6>
    38e0:	05 94       	asr	r0
    38e2:	97 95       	ror	r25
    38e4:	87 95       	ror	r24
    38e6:	77 95       	ror	r23
    38e8:	67 95       	ror	r22
    38ea:	57 95       	ror	r21
    38ec:	47 95       	ror	r20
    38ee:	37 95       	ror	r19
    38f0:	27 95       	ror	r18
    38f2:	0a 95       	dec	r16
    38f4:	aa f7       	brpl	.-22     	; 0x38e0 <__lshrdi3+0x1e>
    38f6:	0f 91       	pop	r16
    38f8:	08 95       	ret

000038fa <__muldi3_6>:
    38fa:	0e 94 12 1c 	call	0x3824	; 0x3824 <__umulhisi3>
    38fe:	46 0f       	add	r20, r22
    3900:	57 1f       	adc	r21, r23
    3902:	c8 1f       	adc	r28, r24
    3904:	d9 1f       	adc	r29, r25
    3906:	08 f4       	brcc	.+2      	; 0x390a <__muldi3_6+0x10>
    3908:	31 96       	adiw	r30, 0x01	; 1
    390a:	08 95       	ret

0000390c <strcat>:
    390c:	fb 01       	movw	r30, r22
    390e:	dc 01       	movw	r26, r24
    3910:	0d 90       	ld	r0, X+
    3912:	00 20       	and	r0, r0
    3914:	e9 f7       	brne	.-6      	; 0x3910 <strcat+0x4>
    3916:	11 97       	sbiw	r26, 0x01	; 1
    3918:	01 90       	ld	r0, Z+
    391a:	0d 92       	st	X+, r0
    391c:	00 20       	and	r0, r0
    391e:	e1 f7       	brne	.-8      	; 0x3918 <strcat+0xc>
    3920:	08 95       	ret

00003922 <__itoa_ncheck>:
    3922:	bb 27       	eor	r27, r27
    3924:	4a 30       	cpi	r20, 0x0A	; 10
    3926:	31 f4       	brne	.+12     	; 0x3934 <__itoa_ncheck+0x12>
    3928:	99 23       	and	r25, r25
    392a:	22 f4       	brpl	.+8      	; 0x3934 <__itoa_ncheck+0x12>
    392c:	bd e2       	ldi	r27, 0x2D	; 45
    392e:	90 95       	com	r25
    3930:	81 95       	neg	r24
    3932:	9f 4f       	sbci	r25, 0xFF	; 255
    3934:	0c 94 9d 1c 	jmp	0x393a	; 0x393a <__utoa_common>

00003938 <__utoa_ncheck>:
    3938:	bb 27       	eor	r27, r27

0000393a <__utoa_common>:
    393a:	fb 01       	movw	r30, r22
    393c:	55 27       	eor	r21, r21
    393e:	aa 27       	eor	r26, r26
    3940:	88 0f       	add	r24, r24
    3942:	99 1f       	adc	r25, r25
    3944:	aa 1f       	adc	r26, r26
    3946:	a4 17       	cp	r26, r20
    3948:	10 f0       	brcs	.+4      	; 0x394e <__utoa_common+0x14>
    394a:	a4 1b       	sub	r26, r20
    394c:	83 95       	inc	r24
    394e:	50 51       	subi	r21, 0x10	; 16
    3950:	b9 f7       	brne	.-18     	; 0x3940 <__utoa_common+0x6>
    3952:	a0 5d       	subi	r26, 0xD0	; 208
    3954:	aa 33       	cpi	r26, 0x3A	; 58
    3956:	08 f0       	brcs	.+2      	; 0x395a <__utoa_common+0x20>
    3958:	a9 5d       	subi	r26, 0xD9	; 217
    395a:	a1 93       	st	Z+, r26
    395c:	00 97       	sbiw	r24, 0x00	; 0
    395e:	79 f7       	brne	.-34     	; 0x393e <__utoa_common+0x4>
    3960:	b1 11       	cpse	r27, r1
    3962:	b1 93       	st	Z+, r27
    3964:	11 92       	st	Z+, r1
    3966:	cb 01       	movw	r24, r22
    3968:	0c 94 b6 1c 	jmp	0x396c	; 0x396c <strrev>

0000396c <strrev>:
    396c:	dc 01       	movw	r26, r24
    396e:	fc 01       	movw	r30, r24
    3970:	67 2f       	mov	r22, r23
    3972:	71 91       	ld	r23, Z+
    3974:	77 23       	and	r23, r23
    3976:	e1 f7       	brne	.-8      	; 0x3970 <strrev+0x4>
    3978:	32 97       	sbiw	r30, 0x02	; 2
    397a:	04 c0       	rjmp	.+8      	; 0x3984 <strrev+0x18>
    397c:	7c 91       	ld	r23, X
    397e:	6d 93       	st	X+, r22
    3980:	70 83       	st	Z, r23
    3982:	62 91       	ld	r22, -Z
    3984:	ae 17       	cp	r26, r30
    3986:	bf 07       	cpc	r27, r31
    3988:	c8 f3       	brcs	.-14     	; 0x397c <strrev+0x10>
    398a:	08 95       	ret

0000398c <eeprom_read_byte>:
    398c:	e1 99       	sbic	0x1c, 1	; 28
    398e:	fe cf       	rjmp	.-4      	; 0x398c <eeprom_read_byte>
    3990:	9f bb       	out	0x1f, r25	; 31
    3992:	8e bb       	out	0x1e, r24	; 30
    3994:	e0 9a       	sbi	0x1c, 0	; 28
    3996:	99 27       	eor	r25, r25
    3998:	8d b3       	in	r24, 0x1d	; 29
    399a:	08 95       	ret

0000399c <eeprom_read_word>:
    399c:	a8 e1       	ldi	r26, 0x18	; 24
    399e:	b0 e0       	ldi	r27, 0x00	; 0
    39a0:	42 e0       	ldi	r20, 0x02	; 2
    39a2:	50 e0       	ldi	r21, 0x00	; 0
    39a4:	0c 94 ee 1c 	jmp	0x39dc	; 0x39dc <eeprom_read_blraw>

000039a8 <eeprom_update_word>:
    39a8:	01 96       	adiw	r24, 0x01	; 1
    39aa:	27 2f       	mov	r18, r23
    39ac:	0e 94 fd 1c 	call	0x39fa	; 0x39fa <eeprom_update_r18>
    39b0:	0c 94 fc 1c 	jmp	0x39f8	; 0x39f8 <eeprom_update_byte>

000039b4 <eeprom_write_byte>:
    39b4:	26 2f       	mov	r18, r22

000039b6 <eeprom_write_r18>:
    39b6:	e1 99       	sbic	0x1c, 1	; 28
    39b8:	fe cf       	rjmp	.-4      	; 0x39b6 <eeprom_write_r18>
    39ba:	9f bb       	out	0x1f, r25	; 31
    39bc:	8e bb       	out	0x1e, r24	; 30
    39be:	2d bb       	out	0x1d, r18	; 29
    39c0:	0f b6       	in	r0, 0x3f	; 63
    39c2:	f8 94       	cli
    39c4:	e2 9a       	sbi	0x1c, 2	; 28
    39c6:	e1 9a       	sbi	0x1c, 1	; 28
    39c8:	0f be       	out	0x3f, r0	; 63
    39ca:	01 96       	adiw	r24, 0x01	; 1
    39cc:	08 95       	ret

000039ce <eeprom_write_word>:
    39ce:	0e 94 da 1c 	call	0x39b4	; 0x39b4 <eeprom_write_byte>
    39d2:	27 2f       	mov	r18, r23
    39d4:	0c 94 db 1c 	jmp	0x39b6	; 0x39b6 <eeprom_write_r18>

000039d8 <eeprom_read_block>:
    39d8:	dc 01       	movw	r26, r24
    39da:	cb 01       	movw	r24, r22

000039dc <eeprom_read_blraw>:
    39dc:	fc 01       	movw	r30, r24
    39de:	e1 99       	sbic	0x1c, 1	; 28
    39e0:	fe cf       	rjmp	.-4      	; 0x39de <eeprom_read_blraw+0x2>
    39e2:	06 c0       	rjmp	.+12     	; 0x39f0 <eeprom_read_blraw+0x14>
    39e4:	ff bb       	out	0x1f, r31	; 31
    39e6:	ee bb       	out	0x1e, r30	; 30
    39e8:	e0 9a       	sbi	0x1c, 0	; 28
    39ea:	31 96       	adiw	r30, 0x01	; 1
    39ec:	0d b2       	in	r0, 0x1d	; 29
    39ee:	0d 92       	st	X+, r0
    39f0:	41 50       	subi	r20, 0x01	; 1
    39f2:	50 40       	sbci	r21, 0x00	; 0
    39f4:	b8 f7       	brcc	.-18     	; 0x39e4 <eeprom_read_blraw+0x8>
    39f6:	08 95       	ret

000039f8 <eeprom_update_byte>:
    39f8:	26 2f       	mov	r18, r22

000039fa <eeprom_update_r18>:
    39fa:	e1 99       	sbic	0x1c, 1	; 28
    39fc:	fe cf       	rjmp	.-4      	; 0x39fa <eeprom_update_r18>
    39fe:	9f bb       	out	0x1f, r25	; 31
    3a00:	8e bb       	out	0x1e, r24	; 30
    3a02:	e0 9a       	sbi	0x1c, 0	; 28
    3a04:	01 97       	sbiw	r24, 0x01	; 1
    3a06:	0d b2       	in	r0, 0x1d	; 29
    3a08:	02 16       	cp	r0, r18
    3a0a:	31 f0       	breq	.+12     	; 0x3a18 <eeprom_update_r18+0x1e>
    3a0c:	2d bb       	out	0x1d, r18	; 29
    3a0e:	0f b6       	in	r0, 0x3f	; 63
    3a10:	f8 94       	cli
    3a12:	e2 9a       	sbi	0x1c, 2	; 28
    3a14:	e1 9a       	sbi	0x1c, 1	; 28
    3a16:	0f be       	out	0x3f, r0	; 63
    3a18:	08 95       	ret

00003a1a <_exit>:
    3a1a:	f8 94       	cli

00003a1c <__stop_program>:
    3a1c:	ff cf       	rjmp	.-2      	; 0x3a1c <__stop_program>
